
OSLUV.elf:     file format elf32-littlearm

Sections:
Idx Name          Size      VMA       LMA       File off  Algn
  0 .isr_vector   000000bc  08000000  08000000  00001000  2**0
                  CONTENTS, ALLOC, LOAD, READONLY, DATA
  1 .text         000076b4  080000bc  080000bc  000010bc  2**2
                  CONTENTS, ALLOC, LOAD, READONLY, CODE
  2 .rodata       00000144  08007770  08007770  00008770  2**2
                  CONTENTS, ALLOC, LOAD, READONLY, DATA
  3 .ARM.extab    00000000  080078b4  080078b4  00009028  2**0
                  CONTENTS, READONLY
  4 .ARM          00000008  080078b4  080078b4  000088b4  2**2
                  CONTENTS, ALLOC, LOAD, READONLY, DATA
  5 .preinit_array 00000000  080078bc  080078bc  00009028  2**0
                  CONTENTS, ALLOC, LOAD, DATA
  6 .init_array   00000004  080078bc  080078bc  000088bc  2**2
                  CONTENTS, ALLOC, LOAD, READONLY, DATA
  7 .fini_array   00000004  080078c0  080078c0  000088c0  2**2
                  CONTENTS, ALLOC, LOAD, READONLY, DATA
  8 .data         00000028  20000000  080078c4  00009000  2**2
                  CONTENTS, ALLOC, LOAD, DATA
  9 .bss          00000378  20000028  080078ec  00009028  2**2
                  ALLOC
 10 ._user_heap_stack 00000600  200003a0  080078ec  000093a0  2**0
                  ALLOC
 11 .ARM.attributes 00000028  00000000  00000000  00009028  2**0
                  CONTENTS, READONLY
 12 .debug_info   00016bea  00000000  00000000  00009050  2**0
                  CONTENTS, READONLY, DEBUGGING, OCTETS
 13 .debug_abbrev 00002fe7  00000000  00000000  0001fc3a  2**0
                  CONTENTS, READONLY, DEBUGGING, OCTETS
 14 .debug_aranges 00001400  00000000  00000000  00022c28  2**3
                  CONTENTS, READONLY, DEBUGGING, OCTETS
 15 .debug_macro  0001b455  00000000  00000000  00024028  2**0
                  CONTENTS, READONLY, DEBUGGING, OCTETS
 16 .debug_line   00017f56  00000000  00000000  0003f47d  2**0
                  CONTENTS, READONLY, DEBUGGING, OCTETS
 17 .debug_str    000b0f37  00000000  00000000  000573d3  2**0
                  CONTENTS, READONLY, DEBUGGING, OCTETS
 18 .comment      00000043  00000000  00000000  0010830a  2**0
                  CONTENTS, READONLY
 19 .debug_rnglists 00000f8f  00000000  00000000  0010834d  2**0
                  CONTENTS, READONLY, DEBUGGING, OCTETS
 20 .debug_frame  000048d4  00000000  00000000  001092dc  2**2
                  CONTENTS, READONLY, DEBUGGING, OCTETS
 21 .debug_line_str 00000075  00000000  00000000  0010dbb0  2**0
                  CONTENTS, READONLY, DEBUGGING, OCTETS

Disassembly of section .text:

080000bc <__do_global_dtors_aux>:
 80000bc:	b510      	push	{r4, lr}
 80000be:	4c06      	ldr	r4, [pc, #24]	@ (80000d8 <__do_global_dtors_aux+0x1c>)
 80000c0:	7823      	ldrb	r3, [r4, #0]
 80000c2:	2b00      	cmp	r3, #0
 80000c4:	d107      	bne.n	80000d6 <__do_global_dtors_aux+0x1a>
 80000c6:	4b05      	ldr	r3, [pc, #20]	@ (80000dc <__do_global_dtors_aux+0x20>)
 80000c8:	2b00      	cmp	r3, #0
 80000ca:	d002      	beq.n	80000d2 <__do_global_dtors_aux+0x16>
 80000cc:	4804      	ldr	r0, [pc, #16]	@ (80000e0 <__do_global_dtors_aux+0x24>)
 80000ce:	e000      	b.n	80000d2 <__do_global_dtors_aux+0x16>
 80000d0:	bf00      	nop
 80000d2:	2301      	movs	r3, #1
 80000d4:	7023      	strb	r3, [r4, #0]
 80000d6:	bd10      	pop	{r4, pc}
 80000d8:	20000028 	.word	0x20000028
 80000dc:	00000000 	.word	0x00000000
 80000e0:	08007758 	.word	0x08007758

080000e4 <frame_dummy>:
 80000e4:	4b04      	ldr	r3, [pc, #16]	@ (80000f8 <frame_dummy+0x14>)
 80000e6:	b510      	push	{r4, lr}
 80000e8:	2b00      	cmp	r3, #0
 80000ea:	d003      	beq.n	80000f4 <frame_dummy+0x10>
 80000ec:	4903      	ldr	r1, [pc, #12]	@ (80000fc <frame_dummy+0x18>)
 80000ee:	4804      	ldr	r0, [pc, #16]	@ (8000100 <frame_dummy+0x1c>)
 80000f0:	e000      	b.n	80000f4 <frame_dummy+0x10>
 80000f2:	bf00      	nop
 80000f4:	bd10      	pop	{r4, pc}
 80000f6:	46c0      	nop			@ (mov r8, r8)
 80000f8:	00000000 	.word	0x00000000
 80000fc:	2000002c 	.word	0x2000002c
 8000100:	08007758 	.word	0x08007758

08000104 <__udivsi3>:
 8000104:	2200      	movs	r2, #0
 8000106:	0843      	lsrs	r3, r0, #1
 8000108:	428b      	cmp	r3, r1
 800010a:	d374      	bcc.n	80001f6 <__udivsi3+0xf2>
 800010c:	0903      	lsrs	r3, r0, #4
 800010e:	428b      	cmp	r3, r1
 8000110:	d35f      	bcc.n	80001d2 <__udivsi3+0xce>
 8000112:	0a03      	lsrs	r3, r0, #8
 8000114:	428b      	cmp	r3, r1
 8000116:	d344      	bcc.n	80001a2 <__udivsi3+0x9e>
 8000118:	0b03      	lsrs	r3, r0, #12
 800011a:	428b      	cmp	r3, r1
 800011c:	d328      	bcc.n	8000170 <__udivsi3+0x6c>
 800011e:	0c03      	lsrs	r3, r0, #16
 8000120:	428b      	cmp	r3, r1
 8000122:	d30d      	bcc.n	8000140 <__udivsi3+0x3c>
 8000124:	22ff      	movs	r2, #255	@ 0xff
 8000126:	0209      	lsls	r1, r1, #8
 8000128:	ba12      	rev	r2, r2
 800012a:	0c03      	lsrs	r3, r0, #16
 800012c:	428b      	cmp	r3, r1
 800012e:	d302      	bcc.n	8000136 <__udivsi3+0x32>
 8000130:	1212      	asrs	r2, r2, #8
 8000132:	0209      	lsls	r1, r1, #8
 8000134:	d065      	beq.n	8000202 <__udivsi3+0xfe>
 8000136:	0b03      	lsrs	r3, r0, #12
 8000138:	428b      	cmp	r3, r1
 800013a:	d319      	bcc.n	8000170 <__udivsi3+0x6c>
 800013c:	e000      	b.n	8000140 <__udivsi3+0x3c>
 800013e:	0a09      	lsrs	r1, r1, #8
 8000140:	0bc3      	lsrs	r3, r0, #15
 8000142:	428b      	cmp	r3, r1
 8000144:	d301      	bcc.n	800014a <__udivsi3+0x46>
 8000146:	03cb      	lsls	r3, r1, #15
 8000148:	1ac0      	subs	r0, r0, r3
 800014a:	4152      	adcs	r2, r2
 800014c:	0b83      	lsrs	r3, r0, #14
 800014e:	428b      	cmp	r3, r1
 8000150:	d301      	bcc.n	8000156 <__udivsi3+0x52>
 8000152:	038b      	lsls	r3, r1, #14
 8000154:	1ac0      	subs	r0, r0, r3
 8000156:	4152      	adcs	r2, r2
 8000158:	0b43      	lsrs	r3, r0, #13
 800015a:	428b      	cmp	r3, r1
 800015c:	d301      	bcc.n	8000162 <__udivsi3+0x5e>
 800015e:	034b      	lsls	r3, r1, #13
 8000160:	1ac0      	subs	r0, r0, r3
 8000162:	4152      	adcs	r2, r2
 8000164:	0b03      	lsrs	r3, r0, #12
 8000166:	428b      	cmp	r3, r1
 8000168:	d301      	bcc.n	800016e <__udivsi3+0x6a>
 800016a:	030b      	lsls	r3, r1, #12
 800016c:	1ac0      	subs	r0, r0, r3
 800016e:	4152      	adcs	r2, r2
 8000170:	0ac3      	lsrs	r3, r0, #11
 8000172:	428b      	cmp	r3, r1
 8000174:	d301      	bcc.n	800017a <__udivsi3+0x76>
 8000176:	02cb      	lsls	r3, r1, #11
 8000178:	1ac0      	subs	r0, r0, r3
 800017a:	4152      	adcs	r2, r2
 800017c:	0a83      	lsrs	r3, r0, #10
 800017e:	428b      	cmp	r3, r1
 8000180:	d301      	bcc.n	8000186 <__udivsi3+0x82>
 8000182:	028b      	lsls	r3, r1, #10
 8000184:	1ac0      	subs	r0, r0, r3
 8000186:	4152      	adcs	r2, r2
 8000188:	0a43      	lsrs	r3, r0, #9
 800018a:	428b      	cmp	r3, r1
 800018c:	d301      	bcc.n	8000192 <__udivsi3+0x8e>
 800018e:	024b      	lsls	r3, r1, #9
 8000190:	1ac0      	subs	r0, r0, r3
 8000192:	4152      	adcs	r2, r2
 8000194:	0a03      	lsrs	r3, r0, #8
 8000196:	428b      	cmp	r3, r1
 8000198:	d301      	bcc.n	800019e <__udivsi3+0x9a>
 800019a:	020b      	lsls	r3, r1, #8
 800019c:	1ac0      	subs	r0, r0, r3
 800019e:	4152      	adcs	r2, r2
 80001a0:	d2cd      	bcs.n	800013e <__udivsi3+0x3a>
 80001a2:	09c3      	lsrs	r3, r0, #7
 80001a4:	428b      	cmp	r3, r1
 80001a6:	d301      	bcc.n	80001ac <__udivsi3+0xa8>
 80001a8:	01cb      	lsls	r3, r1, #7
 80001aa:	1ac0      	subs	r0, r0, r3
 80001ac:	4152      	adcs	r2, r2
 80001ae:	0983      	lsrs	r3, r0, #6
 80001b0:	428b      	cmp	r3, r1
 80001b2:	d301      	bcc.n	80001b8 <__udivsi3+0xb4>
 80001b4:	018b      	lsls	r3, r1, #6
 80001b6:	1ac0      	subs	r0, r0, r3
 80001b8:	4152      	adcs	r2, r2
 80001ba:	0943      	lsrs	r3, r0, #5
 80001bc:	428b      	cmp	r3, r1
 80001be:	d301      	bcc.n	80001c4 <__udivsi3+0xc0>
 80001c0:	014b      	lsls	r3, r1, #5
 80001c2:	1ac0      	subs	r0, r0, r3
 80001c4:	4152      	adcs	r2, r2
 80001c6:	0903      	lsrs	r3, r0, #4
 80001c8:	428b      	cmp	r3, r1
 80001ca:	d301      	bcc.n	80001d0 <__udivsi3+0xcc>
 80001cc:	010b      	lsls	r3, r1, #4
 80001ce:	1ac0      	subs	r0, r0, r3
 80001d0:	4152      	adcs	r2, r2
 80001d2:	08c3      	lsrs	r3, r0, #3
 80001d4:	428b      	cmp	r3, r1
 80001d6:	d301      	bcc.n	80001dc <__udivsi3+0xd8>
 80001d8:	00cb      	lsls	r3, r1, #3
 80001da:	1ac0      	subs	r0, r0, r3
 80001dc:	4152      	adcs	r2, r2
 80001de:	0883      	lsrs	r3, r0, #2
 80001e0:	428b      	cmp	r3, r1
 80001e2:	d301      	bcc.n	80001e8 <__udivsi3+0xe4>
 80001e4:	008b      	lsls	r3, r1, #2
 80001e6:	1ac0      	subs	r0, r0, r3
 80001e8:	4152      	adcs	r2, r2
 80001ea:	0843      	lsrs	r3, r0, #1
 80001ec:	428b      	cmp	r3, r1
 80001ee:	d301      	bcc.n	80001f4 <__udivsi3+0xf0>
 80001f0:	004b      	lsls	r3, r1, #1
 80001f2:	1ac0      	subs	r0, r0, r3
 80001f4:	4152      	adcs	r2, r2
 80001f6:	1a41      	subs	r1, r0, r1
 80001f8:	d200      	bcs.n	80001fc <__udivsi3+0xf8>
 80001fa:	4601      	mov	r1, r0
 80001fc:	4152      	adcs	r2, r2
 80001fe:	4610      	mov	r0, r2
 8000200:	4770      	bx	lr
 8000202:	e7ff      	b.n	8000204 <__udivsi3+0x100>
 8000204:	b501      	push	{r0, lr}
 8000206:	2000      	movs	r0, #0
 8000208:	f000 f8f0 	bl	80003ec <__aeabi_idiv0>
 800020c:	bd02      	pop	{r1, pc}
 800020e:	46c0      	nop			@ (mov r8, r8)

08000210 <__aeabi_uidivmod>:
 8000210:	2900      	cmp	r1, #0
 8000212:	d0f7      	beq.n	8000204 <__udivsi3+0x100>
 8000214:	e776      	b.n	8000104 <__udivsi3>
 8000216:	4770      	bx	lr

08000218 <__divsi3>:
 8000218:	4603      	mov	r3, r0
 800021a:	430b      	orrs	r3, r1
 800021c:	d47f      	bmi.n	800031e <__divsi3+0x106>
 800021e:	2200      	movs	r2, #0
 8000220:	0843      	lsrs	r3, r0, #1
 8000222:	428b      	cmp	r3, r1
 8000224:	d374      	bcc.n	8000310 <__divsi3+0xf8>
 8000226:	0903      	lsrs	r3, r0, #4
 8000228:	428b      	cmp	r3, r1
 800022a:	d35f      	bcc.n	80002ec <__divsi3+0xd4>
 800022c:	0a03      	lsrs	r3, r0, #8
 800022e:	428b      	cmp	r3, r1
 8000230:	d344      	bcc.n	80002bc <__divsi3+0xa4>
 8000232:	0b03      	lsrs	r3, r0, #12
 8000234:	428b      	cmp	r3, r1
 8000236:	d328      	bcc.n	800028a <__divsi3+0x72>
 8000238:	0c03      	lsrs	r3, r0, #16
 800023a:	428b      	cmp	r3, r1
 800023c:	d30d      	bcc.n	800025a <__divsi3+0x42>
 800023e:	22ff      	movs	r2, #255	@ 0xff
 8000240:	0209      	lsls	r1, r1, #8
 8000242:	ba12      	rev	r2, r2
 8000244:	0c03      	lsrs	r3, r0, #16
 8000246:	428b      	cmp	r3, r1
 8000248:	d302      	bcc.n	8000250 <__divsi3+0x38>
 800024a:	1212      	asrs	r2, r2, #8
 800024c:	0209      	lsls	r1, r1, #8
 800024e:	d065      	beq.n	800031c <__divsi3+0x104>
 8000250:	0b03      	lsrs	r3, r0, #12
 8000252:	428b      	cmp	r3, r1
 8000254:	d319      	bcc.n	800028a <__divsi3+0x72>
 8000256:	e000      	b.n	800025a <__divsi3+0x42>
 8000258:	0a09      	lsrs	r1, r1, #8
 800025a:	0bc3      	lsrs	r3, r0, #15
 800025c:	428b      	cmp	r3, r1
 800025e:	d301      	bcc.n	8000264 <__divsi3+0x4c>
 8000260:	03cb      	lsls	r3, r1, #15
 8000262:	1ac0      	subs	r0, r0, r3
 8000264:	4152      	adcs	r2, r2
 8000266:	0b83      	lsrs	r3, r0, #14
 8000268:	428b      	cmp	r3, r1
 800026a:	d301      	bcc.n	8000270 <__divsi3+0x58>
 800026c:	038b      	lsls	r3, r1, #14
 800026e:	1ac0      	subs	r0, r0, r3
 8000270:	4152      	adcs	r2, r2
 8000272:	0b43      	lsrs	r3, r0, #13
 8000274:	428b      	cmp	r3, r1
 8000276:	d301      	bcc.n	800027c <__divsi3+0x64>
 8000278:	034b      	lsls	r3, r1, #13
 800027a:	1ac0      	subs	r0, r0, r3
 800027c:	4152      	adcs	r2, r2
 800027e:	0b03      	lsrs	r3, r0, #12
 8000280:	428b      	cmp	r3, r1
 8000282:	d301      	bcc.n	8000288 <__divsi3+0x70>
 8000284:	030b      	lsls	r3, r1, #12
 8000286:	1ac0      	subs	r0, r0, r3
 8000288:	4152      	adcs	r2, r2
 800028a:	0ac3      	lsrs	r3, r0, #11
 800028c:	428b      	cmp	r3, r1
 800028e:	d301      	bcc.n	8000294 <__divsi3+0x7c>
 8000290:	02cb      	lsls	r3, r1, #11
 8000292:	1ac0      	subs	r0, r0, r3
 8000294:	4152      	adcs	r2, r2
 8000296:	0a83      	lsrs	r3, r0, #10
 8000298:	428b      	cmp	r3, r1
 800029a:	d301      	bcc.n	80002a0 <__divsi3+0x88>
 800029c:	028b      	lsls	r3, r1, #10
 800029e:	1ac0      	subs	r0, r0, r3
 80002a0:	4152      	adcs	r2, r2
 80002a2:	0a43      	lsrs	r3, r0, #9
 80002a4:	428b      	cmp	r3, r1
 80002a6:	d301      	bcc.n	80002ac <__divsi3+0x94>
 80002a8:	024b      	lsls	r3, r1, #9
 80002aa:	1ac0      	subs	r0, r0, r3
 80002ac:	4152      	adcs	r2, r2
 80002ae:	0a03      	lsrs	r3, r0, #8
 80002b0:	428b      	cmp	r3, r1
 80002b2:	d301      	bcc.n	80002b8 <__divsi3+0xa0>
 80002b4:	020b      	lsls	r3, r1, #8
 80002b6:	1ac0      	subs	r0, r0, r3
 80002b8:	4152      	adcs	r2, r2
 80002ba:	d2cd      	bcs.n	8000258 <__divsi3+0x40>
 80002bc:	09c3      	lsrs	r3, r0, #7
 80002be:	428b      	cmp	r3, r1
 80002c0:	d301      	bcc.n	80002c6 <__divsi3+0xae>
 80002c2:	01cb      	lsls	r3, r1, #7
 80002c4:	1ac0      	subs	r0, r0, r3
 80002c6:	4152      	adcs	r2, r2
 80002c8:	0983      	lsrs	r3, r0, #6
 80002ca:	428b      	cmp	r3, r1
 80002cc:	d301      	bcc.n	80002d2 <__divsi3+0xba>
 80002ce:	018b      	lsls	r3, r1, #6
 80002d0:	1ac0      	subs	r0, r0, r3
 80002d2:	4152      	adcs	r2, r2
 80002d4:	0943      	lsrs	r3, r0, #5
 80002d6:	428b      	cmp	r3, r1
 80002d8:	d301      	bcc.n	80002de <__divsi3+0xc6>
 80002da:	014b      	lsls	r3, r1, #5
 80002dc:	1ac0      	subs	r0, r0, r3
 80002de:	4152      	adcs	r2, r2
 80002e0:	0903      	lsrs	r3, r0, #4
 80002e2:	428b      	cmp	r3, r1
 80002e4:	d301      	bcc.n	80002ea <__divsi3+0xd2>
 80002e6:	010b      	lsls	r3, r1, #4
 80002e8:	1ac0      	subs	r0, r0, r3
 80002ea:	4152      	adcs	r2, r2
 80002ec:	08c3      	lsrs	r3, r0, #3
 80002ee:	428b      	cmp	r3, r1
 80002f0:	d301      	bcc.n	80002f6 <__divsi3+0xde>
 80002f2:	00cb      	lsls	r3, r1, #3
 80002f4:	1ac0      	subs	r0, r0, r3
 80002f6:	4152      	adcs	r2, r2
 80002f8:	0883      	lsrs	r3, r0, #2
 80002fa:	428b      	cmp	r3, r1
 80002fc:	d301      	bcc.n	8000302 <__divsi3+0xea>
 80002fe:	008b      	lsls	r3, r1, #2
 8000300:	1ac0      	subs	r0, r0, r3
 8000302:	4152      	adcs	r2, r2
 8000304:	0843      	lsrs	r3, r0, #1
 8000306:	428b      	cmp	r3, r1
 8000308:	d301      	bcc.n	800030e <__divsi3+0xf6>
 800030a:	004b      	lsls	r3, r1, #1
 800030c:	1ac0      	subs	r0, r0, r3
 800030e:	4152      	adcs	r2, r2
 8000310:	1a41      	subs	r1, r0, r1
 8000312:	d200      	bcs.n	8000316 <__divsi3+0xfe>
 8000314:	4601      	mov	r1, r0
 8000316:	4152      	adcs	r2, r2
 8000318:	4610      	mov	r0, r2
 800031a:	4770      	bx	lr
 800031c:	e05d      	b.n	80003da <__divsi3+0x1c2>
 800031e:	0fca      	lsrs	r2, r1, #31
 8000320:	d000      	beq.n	8000324 <__divsi3+0x10c>
 8000322:	4249      	negs	r1, r1
 8000324:	1003      	asrs	r3, r0, #32
 8000326:	d300      	bcc.n	800032a <__divsi3+0x112>
 8000328:	4240      	negs	r0, r0
 800032a:	4053      	eors	r3, r2
 800032c:	2200      	movs	r2, #0
 800032e:	469c      	mov	ip, r3
 8000330:	0903      	lsrs	r3, r0, #4
 8000332:	428b      	cmp	r3, r1
 8000334:	d32d      	bcc.n	8000392 <__divsi3+0x17a>
 8000336:	0a03      	lsrs	r3, r0, #8
 8000338:	428b      	cmp	r3, r1
 800033a:	d312      	bcc.n	8000362 <__divsi3+0x14a>
 800033c:	22fc      	movs	r2, #252	@ 0xfc
 800033e:	0189      	lsls	r1, r1, #6
 8000340:	ba12      	rev	r2, r2
 8000342:	0a03      	lsrs	r3, r0, #8
 8000344:	428b      	cmp	r3, r1
 8000346:	d30c      	bcc.n	8000362 <__divsi3+0x14a>
 8000348:	0189      	lsls	r1, r1, #6
 800034a:	1192      	asrs	r2, r2, #6
 800034c:	428b      	cmp	r3, r1
 800034e:	d308      	bcc.n	8000362 <__divsi3+0x14a>
 8000350:	0189      	lsls	r1, r1, #6
 8000352:	1192      	asrs	r2, r2, #6
 8000354:	428b      	cmp	r3, r1
 8000356:	d304      	bcc.n	8000362 <__divsi3+0x14a>
 8000358:	0189      	lsls	r1, r1, #6
 800035a:	d03a      	beq.n	80003d2 <__divsi3+0x1ba>
 800035c:	1192      	asrs	r2, r2, #6
 800035e:	e000      	b.n	8000362 <__divsi3+0x14a>
 8000360:	0989      	lsrs	r1, r1, #6
 8000362:	09c3      	lsrs	r3, r0, #7
 8000364:	428b      	cmp	r3, r1
 8000366:	d301      	bcc.n	800036c <__divsi3+0x154>
 8000368:	01cb      	lsls	r3, r1, #7
 800036a:	1ac0      	subs	r0, r0, r3
 800036c:	4152      	adcs	r2, r2
 800036e:	0983      	lsrs	r3, r0, #6
 8000370:	428b      	cmp	r3, r1
 8000372:	d301      	bcc.n	8000378 <__divsi3+0x160>
 8000374:	018b      	lsls	r3, r1, #6
 8000376:	1ac0      	subs	r0, r0, r3
 8000378:	4152      	adcs	r2, r2
 800037a:	0943      	lsrs	r3, r0, #5
 800037c:	428b      	cmp	r3, r1
 800037e:	d301      	bcc.n	8000384 <__divsi3+0x16c>
 8000380:	014b      	lsls	r3, r1, #5
 8000382:	1ac0      	subs	r0, r0, r3
 8000384:	4152      	adcs	r2, r2
 8000386:	0903      	lsrs	r3, r0, #4
 8000388:	428b      	cmp	r3, r1
 800038a:	d301      	bcc.n	8000390 <__divsi3+0x178>
 800038c:	010b      	lsls	r3, r1, #4
 800038e:	1ac0      	subs	r0, r0, r3
 8000390:	4152      	adcs	r2, r2
 8000392:	08c3      	lsrs	r3, r0, #3
 8000394:	428b      	cmp	r3, r1
 8000396:	d301      	bcc.n	800039c <__divsi3+0x184>
 8000398:	00cb      	lsls	r3, r1, #3
 800039a:	1ac0      	subs	r0, r0, r3
 800039c:	4152      	adcs	r2, r2
 800039e:	0883      	lsrs	r3, r0, #2
 80003a0:	428b      	cmp	r3, r1
 80003a2:	d301      	bcc.n	80003a8 <__divsi3+0x190>
 80003a4:	008b      	lsls	r3, r1, #2
 80003a6:	1ac0      	subs	r0, r0, r3
 80003a8:	4152      	adcs	r2, r2
 80003aa:	d2d9      	bcs.n	8000360 <__divsi3+0x148>
 80003ac:	0843      	lsrs	r3, r0, #1
 80003ae:	428b      	cmp	r3, r1
 80003b0:	d301      	bcc.n	80003b6 <__divsi3+0x19e>
 80003b2:	004b      	lsls	r3, r1, #1
 80003b4:	1ac0      	subs	r0, r0, r3
 80003b6:	4152      	adcs	r2, r2
 80003b8:	1a41      	subs	r1, r0, r1
 80003ba:	d200      	bcs.n	80003be <__divsi3+0x1a6>
 80003bc:	4601      	mov	r1, r0
 80003be:	4663      	mov	r3, ip
 80003c0:	4152      	adcs	r2, r2
 80003c2:	105b      	asrs	r3, r3, #1
 80003c4:	4610      	mov	r0, r2
 80003c6:	d301      	bcc.n	80003cc <__divsi3+0x1b4>
 80003c8:	4240      	negs	r0, r0
 80003ca:	2b00      	cmp	r3, #0
 80003cc:	d500      	bpl.n	80003d0 <__divsi3+0x1b8>
 80003ce:	4249      	negs	r1, r1
 80003d0:	4770      	bx	lr
 80003d2:	4663      	mov	r3, ip
 80003d4:	105b      	asrs	r3, r3, #1
 80003d6:	d300      	bcc.n	80003da <__divsi3+0x1c2>
 80003d8:	4240      	negs	r0, r0
 80003da:	b501      	push	{r0, lr}
 80003dc:	2000      	movs	r0, #0
 80003de:	f000 f805 	bl	80003ec <__aeabi_idiv0>
 80003e2:	bd02      	pop	{r1, pc}

080003e4 <__aeabi_idivmod>:
 80003e4:	2900      	cmp	r1, #0
 80003e6:	d0f8      	beq.n	80003da <__divsi3+0x1c2>
 80003e8:	e716      	b.n	8000218 <__divsi3>
 80003ea:	4770      	bx	lr

080003ec <__aeabi_idiv0>:
 80003ec:	4770      	bx	lr
 80003ee:	46c0      	nop			@ (mov r8, r8)

080003f0 <__aeabi_uldivmod>:
 80003f0:	2b00      	cmp	r3, #0
 80003f2:	d111      	bne.n	8000418 <__aeabi_uldivmod+0x28>
 80003f4:	2a00      	cmp	r2, #0
 80003f6:	d10f      	bne.n	8000418 <__aeabi_uldivmod+0x28>
 80003f8:	2900      	cmp	r1, #0
 80003fa:	d100      	bne.n	80003fe <__aeabi_uldivmod+0xe>
 80003fc:	2800      	cmp	r0, #0
 80003fe:	d002      	beq.n	8000406 <__aeabi_uldivmod+0x16>
 8000400:	2100      	movs	r1, #0
 8000402:	43c9      	mvns	r1, r1
 8000404:	0008      	movs	r0, r1
 8000406:	b407      	push	{r0, r1, r2}
 8000408:	4802      	ldr	r0, [pc, #8]	@ (8000414 <__aeabi_uldivmod+0x24>)
 800040a:	a102      	add	r1, pc, #8	@ (adr r1, 8000414 <__aeabi_uldivmod+0x24>)
 800040c:	1840      	adds	r0, r0, r1
 800040e:	9002      	str	r0, [sp, #8]
 8000410:	bd03      	pop	{r0, r1, pc}
 8000412:	46c0      	nop			@ (mov r8, r8)
 8000414:	ffffffd9 	.word	0xffffffd9
 8000418:	b403      	push	{r0, r1}
 800041a:	4668      	mov	r0, sp
 800041c:	b501      	push	{r0, lr}
 800041e:	9802      	ldr	r0, [sp, #8]
 8000420:	f000 f806 	bl	8000430 <__udivmoddi4>
 8000424:	9b01      	ldr	r3, [sp, #4]
 8000426:	469e      	mov	lr, r3
 8000428:	b002      	add	sp, #8
 800042a:	bc0c      	pop	{r2, r3}
 800042c:	4770      	bx	lr
 800042e:	46c0      	nop			@ (mov r8, r8)

08000430 <__udivmoddi4>:
 8000430:	b5f0      	push	{r4, r5, r6, r7, lr}
 8000432:	4657      	mov	r7, sl
 8000434:	464e      	mov	r6, r9
 8000436:	4645      	mov	r5, r8
 8000438:	46de      	mov	lr, fp
 800043a:	b5e0      	push	{r5, r6, r7, lr}
 800043c:	0004      	movs	r4, r0
 800043e:	000d      	movs	r5, r1
 8000440:	4692      	mov	sl, r2
 8000442:	4699      	mov	r9, r3
 8000444:	b083      	sub	sp, #12
 8000446:	428b      	cmp	r3, r1
 8000448:	d830      	bhi.n	80004ac <__udivmoddi4+0x7c>
 800044a:	d02d      	beq.n	80004a8 <__udivmoddi4+0x78>
 800044c:	4649      	mov	r1, r9
 800044e:	4650      	mov	r0, sl
 8000450:	f000 f8ba 	bl	80005c8 <__clzdi2>
 8000454:	0029      	movs	r1, r5
 8000456:	0006      	movs	r6, r0
 8000458:	0020      	movs	r0, r4
 800045a:	f000 f8b5 	bl	80005c8 <__clzdi2>
 800045e:	1a33      	subs	r3, r6, r0
 8000460:	4698      	mov	r8, r3
 8000462:	3b20      	subs	r3, #32
 8000464:	d434      	bmi.n	80004d0 <__udivmoddi4+0xa0>
 8000466:	469b      	mov	fp, r3
 8000468:	4653      	mov	r3, sl
 800046a:	465a      	mov	r2, fp
 800046c:	4093      	lsls	r3, r2
 800046e:	4642      	mov	r2, r8
 8000470:	001f      	movs	r7, r3
 8000472:	4653      	mov	r3, sl
 8000474:	4093      	lsls	r3, r2
 8000476:	001e      	movs	r6, r3
 8000478:	42af      	cmp	r7, r5
 800047a:	d83b      	bhi.n	80004f4 <__udivmoddi4+0xc4>
 800047c:	42af      	cmp	r7, r5
 800047e:	d100      	bne.n	8000482 <__udivmoddi4+0x52>
 8000480:	e079      	b.n	8000576 <__udivmoddi4+0x146>
 8000482:	465b      	mov	r3, fp
 8000484:	1ba4      	subs	r4, r4, r6
 8000486:	41bd      	sbcs	r5, r7
 8000488:	2b00      	cmp	r3, #0
 800048a:	da00      	bge.n	800048e <__udivmoddi4+0x5e>
 800048c:	e076      	b.n	800057c <__udivmoddi4+0x14c>
 800048e:	2200      	movs	r2, #0
 8000490:	2300      	movs	r3, #0
 8000492:	9200      	str	r2, [sp, #0]
 8000494:	9301      	str	r3, [sp, #4]
 8000496:	2301      	movs	r3, #1
 8000498:	465a      	mov	r2, fp
 800049a:	4093      	lsls	r3, r2
 800049c:	9301      	str	r3, [sp, #4]
 800049e:	2301      	movs	r3, #1
 80004a0:	4642      	mov	r2, r8
 80004a2:	4093      	lsls	r3, r2
 80004a4:	9300      	str	r3, [sp, #0]
 80004a6:	e029      	b.n	80004fc <__udivmoddi4+0xcc>
 80004a8:	4282      	cmp	r2, r0
 80004aa:	d9cf      	bls.n	800044c <__udivmoddi4+0x1c>
 80004ac:	2200      	movs	r2, #0
 80004ae:	2300      	movs	r3, #0
 80004b0:	9200      	str	r2, [sp, #0]
 80004b2:	9301      	str	r3, [sp, #4]
 80004b4:	9b0c      	ldr	r3, [sp, #48]	@ 0x30
 80004b6:	2b00      	cmp	r3, #0
 80004b8:	d001      	beq.n	80004be <__udivmoddi4+0x8e>
 80004ba:	601c      	str	r4, [r3, #0]
 80004bc:	605d      	str	r5, [r3, #4]
 80004be:	9800      	ldr	r0, [sp, #0]
 80004c0:	9901      	ldr	r1, [sp, #4]
 80004c2:	b003      	add	sp, #12
 80004c4:	bcf0      	pop	{r4, r5, r6, r7}
 80004c6:	46bb      	mov	fp, r7
 80004c8:	46b2      	mov	sl, r6
 80004ca:	46a9      	mov	r9, r5
 80004cc:	46a0      	mov	r8, r4
 80004ce:	bdf0      	pop	{r4, r5, r6, r7, pc}
 80004d0:	4642      	mov	r2, r8
 80004d2:	469b      	mov	fp, r3
 80004d4:	2320      	movs	r3, #32
 80004d6:	1a9b      	subs	r3, r3, r2
 80004d8:	4652      	mov	r2, sl
 80004da:	40da      	lsrs	r2, r3
 80004dc:	4641      	mov	r1, r8
 80004de:	0013      	movs	r3, r2
 80004e0:	464a      	mov	r2, r9
 80004e2:	408a      	lsls	r2, r1
 80004e4:	0017      	movs	r7, r2
 80004e6:	4642      	mov	r2, r8
 80004e8:	431f      	orrs	r7, r3
 80004ea:	4653      	mov	r3, sl
 80004ec:	4093      	lsls	r3, r2
 80004ee:	001e      	movs	r6, r3
 80004f0:	42af      	cmp	r7, r5
 80004f2:	d9c3      	bls.n	800047c <__udivmoddi4+0x4c>
 80004f4:	2200      	movs	r2, #0
 80004f6:	2300      	movs	r3, #0
 80004f8:	9200      	str	r2, [sp, #0]
 80004fa:	9301      	str	r3, [sp, #4]
 80004fc:	4643      	mov	r3, r8
 80004fe:	2b00      	cmp	r3, #0
 8000500:	d0d8      	beq.n	80004b4 <__udivmoddi4+0x84>
 8000502:	07fb      	lsls	r3, r7, #31
 8000504:	0872      	lsrs	r2, r6, #1
 8000506:	431a      	orrs	r2, r3
 8000508:	4646      	mov	r6, r8
 800050a:	087b      	lsrs	r3, r7, #1
 800050c:	e00e      	b.n	800052c <__udivmoddi4+0xfc>
 800050e:	42ab      	cmp	r3, r5
 8000510:	d101      	bne.n	8000516 <__udivmoddi4+0xe6>
 8000512:	42a2      	cmp	r2, r4
 8000514:	d80c      	bhi.n	8000530 <__udivmoddi4+0x100>
 8000516:	1aa4      	subs	r4, r4, r2
 8000518:	419d      	sbcs	r5, r3
 800051a:	2001      	movs	r0, #1
 800051c:	1924      	adds	r4, r4, r4
 800051e:	416d      	adcs	r5, r5
 8000520:	2100      	movs	r1, #0
 8000522:	3e01      	subs	r6, #1
 8000524:	1824      	adds	r4, r4, r0
 8000526:	414d      	adcs	r5, r1
 8000528:	2e00      	cmp	r6, #0
 800052a:	d006      	beq.n	800053a <__udivmoddi4+0x10a>
 800052c:	42ab      	cmp	r3, r5
 800052e:	d9ee      	bls.n	800050e <__udivmoddi4+0xde>
 8000530:	3e01      	subs	r6, #1
 8000532:	1924      	adds	r4, r4, r4
 8000534:	416d      	adcs	r5, r5
 8000536:	2e00      	cmp	r6, #0
 8000538:	d1f8      	bne.n	800052c <__udivmoddi4+0xfc>
 800053a:	9800      	ldr	r0, [sp, #0]
 800053c:	9901      	ldr	r1, [sp, #4]
 800053e:	465b      	mov	r3, fp
 8000540:	1900      	adds	r0, r0, r4
 8000542:	4169      	adcs	r1, r5
 8000544:	2b00      	cmp	r3, #0
 8000546:	db24      	blt.n	8000592 <__udivmoddi4+0x162>
 8000548:	002b      	movs	r3, r5
 800054a:	465a      	mov	r2, fp
 800054c:	4644      	mov	r4, r8
 800054e:	40d3      	lsrs	r3, r2
 8000550:	002a      	movs	r2, r5
 8000552:	40e2      	lsrs	r2, r4
 8000554:	001c      	movs	r4, r3
 8000556:	465b      	mov	r3, fp
 8000558:	0015      	movs	r5, r2
 800055a:	2b00      	cmp	r3, #0
 800055c:	db2a      	blt.n	80005b4 <__udivmoddi4+0x184>
 800055e:	0026      	movs	r6, r4
 8000560:	409e      	lsls	r6, r3
 8000562:	0033      	movs	r3, r6
 8000564:	0026      	movs	r6, r4
 8000566:	4647      	mov	r7, r8
 8000568:	40be      	lsls	r6, r7
 800056a:	0032      	movs	r2, r6
 800056c:	1a80      	subs	r0, r0, r2
 800056e:	4199      	sbcs	r1, r3
 8000570:	9000      	str	r0, [sp, #0]
 8000572:	9101      	str	r1, [sp, #4]
 8000574:	e79e      	b.n	80004b4 <__udivmoddi4+0x84>
 8000576:	42a3      	cmp	r3, r4
 8000578:	d8bc      	bhi.n	80004f4 <__udivmoddi4+0xc4>
 800057a:	e782      	b.n	8000482 <__udivmoddi4+0x52>
 800057c:	4642      	mov	r2, r8
 800057e:	2320      	movs	r3, #32
 8000580:	2100      	movs	r1, #0
 8000582:	1a9b      	subs	r3, r3, r2
 8000584:	2200      	movs	r2, #0
 8000586:	9100      	str	r1, [sp, #0]
 8000588:	9201      	str	r2, [sp, #4]
 800058a:	2201      	movs	r2, #1
 800058c:	40da      	lsrs	r2, r3
 800058e:	9201      	str	r2, [sp, #4]
 8000590:	e785      	b.n	800049e <__udivmoddi4+0x6e>
 8000592:	4642      	mov	r2, r8
 8000594:	2320      	movs	r3, #32
 8000596:	1a9b      	subs	r3, r3, r2
 8000598:	002a      	movs	r2, r5
 800059a:	4646      	mov	r6, r8
 800059c:	409a      	lsls	r2, r3
 800059e:	0023      	movs	r3, r4
 80005a0:	40f3      	lsrs	r3, r6
 80005a2:	4644      	mov	r4, r8
 80005a4:	4313      	orrs	r3, r2
 80005a6:	002a      	movs	r2, r5
 80005a8:	40e2      	lsrs	r2, r4
 80005aa:	001c      	movs	r4, r3
 80005ac:	465b      	mov	r3, fp
 80005ae:	0015      	movs	r5, r2
 80005b0:	2b00      	cmp	r3, #0
 80005b2:	dad4      	bge.n	800055e <__udivmoddi4+0x12e>
 80005b4:	4642      	mov	r2, r8
 80005b6:	002f      	movs	r7, r5
 80005b8:	2320      	movs	r3, #32
 80005ba:	0026      	movs	r6, r4
 80005bc:	4097      	lsls	r7, r2
 80005be:	1a9b      	subs	r3, r3, r2
 80005c0:	40de      	lsrs	r6, r3
 80005c2:	003b      	movs	r3, r7
 80005c4:	4333      	orrs	r3, r6
 80005c6:	e7cd      	b.n	8000564 <__udivmoddi4+0x134>

080005c8 <__clzdi2>:
 80005c8:	b510      	push	{r4, lr}
 80005ca:	2900      	cmp	r1, #0
 80005cc:	d103      	bne.n	80005d6 <__clzdi2+0xe>
 80005ce:	f000 f807 	bl	80005e0 <__clzsi2>
 80005d2:	3020      	adds	r0, #32
 80005d4:	e002      	b.n	80005dc <__clzdi2+0x14>
 80005d6:	0008      	movs	r0, r1
 80005d8:	f000 f802 	bl	80005e0 <__clzsi2>
 80005dc:	bd10      	pop	{r4, pc}
 80005de:	46c0      	nop			@ (mov r8, r8)

080005e0 <__clzsi2>:
 80005e0:	211c      	movs	r1, #28
 80005e2:	2301      	movs	r3, #1
 80005e4:	041b      	lsls	r3, r3, #16
 80005e6:	4298      	cmp	r0, r3
 80005e8:	d301      	bcc.n	80005ee <__clzsi2+0xe>
 80005ea:	0c00      	lsrs	r0, r0, #16
 80005ec:	3910      	subs	r1, #16
 80005ee:	0a1b      	lsrs	r3, r3, #8
 80005f0:	4298      	cmp	r0, r3
 80005f2:	d301      	bcc.n	80005f8 <__clzsi2+0x18>
 80005f4:	0a00      	lsrs	r0, r0, #8
 80005f6:	3908      	subs	r1, #8
 80005f8:	091b      	lsrs	r3, r3, #4
 80005fa:	4298      	cmp	r0, r3
 80005fc:	d301      	bcc.n	8000602 <__clzsi2+0x22>
 80005fe:	0900      	lsrs	r0, r0, #4
 8000600:	3904      	subs	r1, #4
 8000602:	a202      	add	r2, pc, #8	@ (adr r2, 800060c <__clzsi2+0x2c>)
 8000604:	5c10      	ldrb	r0, [r2, r0]
 8000606:	1840      	adds	r0, r0, r1
 8000608:	4770      	bx	lr
 800060a:	46c0      	nop			@ (mov r8, r8)
 800060c:	02020304 	.word	0x02020304
 8000610:	01010101 	.word	0x01010101
	...

0800061c <main>:
/**
  * @brief  The application entry point.
  * @retval int
  */
int main(void)
{
 800061c:	b580      	push	{r7, lr}
 800061e:	b082      	sub	sp, #8
 8000620:	af00      	add	r7, sp, #0
  /* USER CODE END 1 */

  /* MCU Configuration--------------------------------------------------------*/

  /* Reset of all peripherals, Initializes the Flash interface and the Systick. */
  HAL_Init();
 8000622:	f001 fbdf 	bl	8001de4 <HAL_Init>

  /* USER CODE BEGIN Init */
	HAL_Delay(100);
 8000626:	2064      	movs	r0, #100	@ 0x64
 8000628:	f001 fc62 	bl	8001ef0 <HAL_Delay>
  /* USER CODE END Init */

  /* Configure the system clock */
  SystemClock_Config();
 800062c:	f000 fa5a 	bl	8000ae4 <SystemClock_Config>

  /* USER CODE BEGIN SysInit */
	HAL_Delay(100);
 8000630:	2064      	movs	r0, #100	@ 0x64
 8000632:	f001 fc5d 	bl	8001ef0 <HAL_Delay>
  /* USER CODE END SysInit */

  /* Initialize all configured peripherals */
  MX_GPIO_Init();
 8000636:	f000 feb3 	bl	80013a0 <MX_GPIO_Init>
  MX_DMA_Init();
 800063a:	f000 fe9b 	bl	8001374 <MX_DMA_Init>
  MX_ADC1_Init();
 800063e:	f000 fad5 	bl	8000bec <MX_ADC1_Init>
  MX_COMP2_Init();
 8000642:	f000 fb97 	bl	8000d74 <MX_COMP2_Init>
  MX_DAC1_Init();
 8000646:	f000 fbc5 	bl	8000dd4 <MX_DAC1_Init>
  MX_TIM1_Init();
 800064a:	f000 fc07 	bl	8000e5c <MX_TIM1_Init>
  MX_TIM2_Init();
 800064e:	f000 fcc9 	bl	8000fe4 <MX_TIM2_Init>
  MX_TIM3_Init();
 8000652:	f000 fd27 	bl	80010a4 <MX_TIM3_Init>
  MX_TIM16_Init();
 8000656:	f000 fdef 	bl	8001238 <MX_TIM16_Init>
  MX_USART2_UART_Init();
 800065a:	f000 fe3d 	bl	80012d8 <MX_USART2_UART_Init>
  MX_TIM6_Init();
 800065e:	f000 fdb1 	bl	80011c4 <MX_TIM6_Init>

  /* Initialize interrupts */
  MX_NVIC_Init();
 8000662:	f000 fa9d 	bl	8000ba0 <MX_NVIC_Init>
  /* USER CODE BEGIN 2 */

	// synchronous timing interrupts
	TIM6->ARR = 1000;
 8000666:	4bcd      	ldr	r3, [pc, #820]	@ (800099c <main+0x380>)
 8000668:	22fa      	movs	r2, #250	@ 0xfa
 800066a:	0092      	lsls	r2, r2, #2
 800066c:	62da      	str	r2, [r3, #44]	@ 0x2c
	HAL_TIM_Base_Start_IT(&htim6);
 800066e:	4bcc      	ldr	r3, [pc, #816]	@ (80009a0 <main+0x384>)
 8000670:	0018      	movs	r0, r3
 8000672:	f004 fcd7 	bl	8005024 <HAL_TIM_Base_Start_IT>

	// DRV PWM output
	TIM1->CCMR1 |= TIM_CCMR1_OC1CE; // enable OCREF clear
 8000676:	4bcb      	ldr	r3, [pc, #812]	@ (80009a4 <main+0x388>)
 8000678:	699a      	ldr	r2, [r3, #24]
 800067a:	4bca      	ldr	r3, [pc, #808]	@ (80009a4 <main+0x388>)
 800067c:	2180      	movs	r1, #128	@ 0x80
 800067e:	430a      	orrs	r2, r1
 8000680:	619a      	str	r2, [r3, #24]
	TIM1->CR1 |= TIM_CR1_ARPE; // auto-reload preload
 8000682:	4bc8      	ldr	r3, [pc, #800]	@ (80009a4 <main+0x388>)
 8000684:	681a      	ldr	r2, [r3, #0]
 8000686:	4bc7      	ldr	r3, [pc, #796]	@ (80009a4 <main+0x388>)
 8000688:	2180      	movs	r1, #128	@ 0x80
 800068a:	430a      	orrs	r2, r1
 800068c:	601a      	str	r2, [r3, #0]
	HAL_TIM_PWM_Start(&htim1, TIM_CHANNEL_1); // start PWM
 800068e:	4bc6      	ldr	r3, [pc, #792]	@ (80009a8 <main+0x38c>)
 8000690:	2100      	movs	r1, #0
 8000692:	0018      	movs	r0, r3
 8000694:	f004 fd7a 	bl	800518c <HAL_TIM_PWM_Start>
	__HAL_TIM_MOE_ENABLE(&htim1); //master enable
 8000698:	4bc3      	ldr	r3, [pc, #780]	@ (80009a8 <main+0x38c>)
 800069a:	681b      	ldr	r3, [r3, #0]
 800069c:	6c5a      	ldr	r2, [r3, #68]	@ 0x44
 800069e:	4bc2      	ldr	r3, [pc, #776]	@ (80009a8 <main+0x38c>)
 80006a0:	681b      	ldr	r3, [r3, #0]
 80006a2:	2180      	movs	r1, #128	@ 0x80
 80006a4:	0209      	lsls	r1, r1, #8
 80006a6:	430a      	orrs	r2, r1
 80006a8:	645a      	str	r2, [r3, #68]	@ 0x44

	// Start DAC
	HAL_DAC_Start(&hdac1, DAC_CHANNEL_1); // DAC for current setpoint (intput to Comp2 in-)
 80006aa:	4bc0      	ldr	r3, [pc, #768]	@ (80009ac <main+0x390>)
 80006ac:	2100      	movs	r1, #0
 80006ae:	0018      	movs	r0, r3
 80006b0:	f002 ff71 	bl	8003596 <HAL_DAC_Start>
	HAL_DAC_SetValue(&hdac1, DAC_CHANNEL_1, DAC_ALIGN_12B_R, 4095); // disable current limit for init
 80006b4:	4bbe      	ldr	r3, [pc, #760]	@ (80009b0 <main+0x394>)
 80006b6:	48bd      	ldr	r0, [pc, #756]	@ (80009ac <main+0x390>)
 80006b8:	2200      	movs	r2, #0
 80006ba:	2100      	movs	r1, #0
 80006bc:	f003 f81e 	bl	80036fc <HAL_DAC_SetValue>
	HAL_COMP_Start(&hcomp2); // start comparator for peak current control
 80006c0:	4bbc      	ldr	r3, [pc, #752]	@ (80009b4 <main+0x398>)
 80006c2:	0018      	movs	r0, r3
 80006c4:	f002 fe14 	bl	80032f0 <HAL_COMP_Start>

	// Start ADC
	HAL_ADC_Start_DMA(&hadc1, (uint32_t*)adc_DMA, numberADCchannels); // start ADC with DMA, 6 channels
 80006c8:	4bbb      	ldr	r3, [pc, #748]	@ (80009b8 <main+0x39c>)
 80006ca:	781b      	ldrb	r3, [r3, #0]
 80006cc:	b2db      	uxtb	r3, r3
 80006ce:	001a      	movs	r2, r3
 80006d0:	49ba      	ldr	r1, [pc, #744]	@ (80009bc <main+0x3a0>)
 80006d2:	4bbb      	ldr	r3, [pc, #748]	@ (80009c0 <main+0x3a4>)
 80006d4:	0018      	movs	r0, r3
 80006d6:	f001 ff2b 	bl	8002530 <HAL_ADC_Start_DMA>
	// TIM3 for input capture - read PWM for power setting.
	//HAL_TIM_IC_Start_IT(&htim3, TIM_CHANNEL_2); // Primary channel - rising edge
	//HAL_TIM_IC_Start(&htim3, TIM_CHANNEL_1);    // Secondary channel - falling edge


	enum States state = INIT;
 80006da:	1dfb      	adds	r3, r7, #7
 80006dc:	2200      	movs	r2, #0
 80006de:	701a      	strb	r2, [r3, #0]

	// blink LED
	HAL_GPIO_TogglePin(GPIOC, GPIO_PIN_15);
 80006e0:	2380      	movs	r3, #128	@ 0x80
 80006e2:	021b      	lsls	r3, r3, #8
 80006e4:	4ab7      	ldr	r2, [pc, #732]	@ (80009c4 <main+0x3a8>)
 80006e6:	0019      	movs	r1, r3
 80006e8:	0010      	movs	r0, r2
 80006ea:	f003 fd5f 	bl	80041ac <HAL_GPIO_TogglePin>
	HAL_Delay(500);
 80006ee:	23fa      	movs	r3, #250	@ 0xfa
 80006f0:	005b      	lsls	r3, r3, #1
 80006f2:	0018      	movs	r0, r3
 80006f4:	f001 fbfc 	bl	8001ef0 <HAL_Delay>
	HAL_GPIO_TogglePin(GPIOC, GPIO_PIN_15);
 80006f8:	2380      	movs	r3, #128	@ 0x80
 80006fa:	021b      	lsls	r3, r3, #8
 80006fc:	4ab1      	ldr	r2, [pc, #708]	@ (80009c4 <main+0x3a8>)
 80006fe:	0019      	movs	r1, r3
 8000700:	0010      	movs	r0, r2
 8000702:	f003 fd53 	bl	80041ac <HAL_GPIO_TogglePin>
	HAL_Delay(500);
 8000706:	23fa      	movs	r3, #250	@ 0xfa
 8000708:	005b      	lsls	r3, r3, #1
 800070a:	0018      	movs	r0, r3
 800070c:	f001 fbf0 	bl	8001ef0 <HAL_Delay>
	HAL_GPIO_TogglePin(GPIOC, GPIO_PIN_15);
 8000710:	2380      	movs	r3, #128	@ 0x80
 8000712:	021b      	lsls	r3, r3, #8
 8000714:	4aab      	ldr	r2, [pc, #684]	@ (80009c4 <main+0x3a8>)
 8000716:	0019      	movs	r1, r3
 8000718:	0010      	movs	r0, r2
 800071a:	f003 fd47 	bl	80041ac <HAL_GPIO_TogglePin>
	HAL_Delay(500);
 800071e:	23fa      	movs	r3, #250	@ 0xfa
 8000720:	005b      	lsls	r3, r3, #1
 8000722:	0018      	movs	r0, r3
 8000724:	f001 fbe4 	bl	8001ef0 <HAL_Delay>
	HAL_GPIO_TogglePin(GPIOC, GPIO_PIN_15);
 8000728:	2380      	movs	r3, #128	@ 0x80
 800072a:	021b      	lsls	r3, r3, #8
 800072c:	4aa5      	ldr	r2, [pc, #660]	@ (80009c4 <main+0x3a8>)
 800072e:	0019      	movs	r1, r3
 8000730:	0010      	movs	r0, r2
 8000732:	f003 fd3b 	bl	80041ac <HAL_GPIO_TogglePin>

    /* USER CODE BEGIN 3 */

		// ------------ Interrupts -----------------------
		// interrupt 1 Hz for UART send
		if (tim6_slowIrq_request && enableUART) {
 8000736:	4ba4      	ldr	r3, [pc, #656]	@ (80009c8 <main+0x3ac>)
 8000738:	781b      	ldrb	r3, [r3, #0]
			sendInt16UART();
		}


		// interrupt  1 kHz
		if (tim6_irq_request) {
 800073a:	4ba4      	ldr	r3, [pc, #656]	@ (80009cc <main+0x3b0>)
 800073c:	781b      	ldrb	r3, [r3, #0]
 800073e:	b2db      	uxtb	r3, r3
 8000740:	2b00      	cmp	r3, #0
 8000742:	d054      	beq.n	80007ee <main+0x1d2>
			tim6_irq_request = 0;
 8000744:	4ba1      	ldr	r3, [pc, #644]	@ (80009cc <main+0x3b0>)
 8000746:	2200      	movs	r2, #0
 8000748:	701a      	strb	r2, [r3, #0]

			// Check enable flag
			enableFlag = !HAL_GPIO_ReadPin(GPIOB, GPIO_PIN_9); //pull low for enabling
 800074a:	2380      	movs	r3, #128	@ 0x80
 800074c:	009b      	lsls	r3, r3, #2
 800074e:	4aa0      	ldr	r2, [pc, #640]	@ (80009d0 <main+0x3b4>)
 8000750:	0019      	movs	r1, r3
 8000752:	0010      	movs	r0, r2
 8000754:	f003 fcf0 	bl	8004138 <HAL_GPIO_ReadPin>
 8000758:	0003      	movs	r3, r0
 800075a:	425a      	negs	r2, r3
 800075c:	4153      	adcs	r3, r2
 800075e:	b2db      	uxtb	r3, r3
 8000760:	001a      	movs	r2, r3
 8000762:	4b9c      	ldr	r3, [pc, #624]	@ (80009d4 <main+0x3b8>)
 8000764:	701a      	strb	r2, [r3, #0]
			// check ignition
			if (enableFlag && !ignitionFlag) {
 8000766:	4b9b      	ldr	r3, [pc, #620]	@ (80009d4 <main+0x3b8>)
 8000768:	781b      	ldrb	r3, [r3, #0]
 800076a:	b2db      	uxtb	r3, r3
 800076c:	2b00      	cmp	r3, #0
 800076e:	d009      	beq.n	8000784 <main+0x168>
 8000770:	4b99      	ldr	r3, [pc, #612]	@ (80009d8 <main+0x3bc>)
 8000772:	781b      	ldrb	r3, [r3, #0]
 8000774:	2b00      	cmp	r3, #0
 8000776:	d105      	bne.n	8000784 <main+0x168>
				ignitionCounter++;
 8000778:	4b98      	ldr	r3, [pc, #608]	@ (80009dc <main+0x3c0>)
 800077a:	881b      	ldrh	r3, [r3, #0]
 800077c:	3301      	adds	r3, #1
 800077e:	b29a      	uxth	r2, r3
 8000780:	4b96      	ldr	r3, [pc, #600]	@ (80009dc <main+0x3c0>)
 8000782:	801a      	strh	r2, [r3, #0]

			// checked in all states
			// check lamp voltage

			// check supply voltage
			if ((adc_24V < upper_24Vsupply) && (adc_24V > lower_24Vsupply)) {
 8000784:	4b96      	ldr	r3, [pc, #600]	@ (80009e0 <main+0x3c4>)
 8000786:	881b      	ldrh	r3, [r3, #0]
 8000788:	b29a      	uxth	r2, r3
 800078a:	4b96      	ldr	r3, [pc, #600]	@ (80009e4 <main+0x3c8>)
 800078c:	881b      	ldrh	r3, [r3, #0]
 800078e:	b29b      	uxth	r3, r3
 8000790:	429a      	cmp	r2, r3
 8000792:	d20b      	bcs.n	80007ac <main+0x190>
 8000794:	4b92      	ldr	r3, [pc, #584]	@ (80009e0 <main+0x3c4>)
 8000796:	881b      	ldrh	r3, [r3, #0]
 8000798:	b29a      	uxth	r2, r3
 800079a:	4b93      	ldr	r3, [pc, #588]	@ (80009e8 <main+0x3cc>)
 800079c:	881b      	ldrh	r3, [r3, #0]
 800079e:	b29b      	uxth	r3, r3
 80007a0:	429a      	cmp	r2, r3
 80007a2:	d903      	bls.n	80007ac <main+0x190>
				supplyOKFlag = 1;
 80007a4:	4b91      	ldr	r3, [pc, #580]	@ (80009ec <main+0x3d0>)
 80007a6:	2201      	movs	r2, #1
 80007a8:	701a      	strb	r2, [r3, #0]
 80007aa:	e002      	b.n	80007b2 <main+0x196>
			}
			else {
				supplyOKFlag = 0;
 80007ac:	4b8f      	ldr	r3, [pc, #572]	@ (80009ec <main+0x3d0>)
 80007ae:	2200      	movs	r2, #0
 80007b0:	701a      	strb	r2, [r3, #0]
			}
			// check temperature
			if (adc_tempMOSFET > upper_tempMOSFET) {
 80007b2:	4b8f      	ldr	r3, [pc, #572]	@ (80009f0 <main+0x3d4>)
 80007b4:	881b      	ldrh	r3, [r3, #0]
 80007b6:	b29a      	uxth	r2, r3
 80007b8:	4b8e      	ldr	r3, [pc, #568]	@ (80009f4 <main+0x3d8>)
 80007ba:	881b      	ldrh	r3, [r3, #0]
 80007bc:	b29b      	uxth	r3, r3
 80007be:	429a      	cmp	r2, r3
 80007c0:	d903      	bls.n	80007ca <main+0x1ae>
				OT_flag = 1;
 80007c2:	4b8d      	ldr	r3, [pc, #564]	@ (80009f8 <main+0x3dc>)
 80007c4:	2201      	movs	r2, #1
 80007c6:	701a      	strb	r2, [r3, #0]
 80007c8:	e002      	b.n	80007d0 <main+0x1b4>
			}
			else {
				OT_flag = 0;
 80007ca:	4b8b      	ldr	r3, [pc, #556]	@ (80009f8 <main+0x3dc>)
 80007cc:	2200      	movs	r2, #0
 80007ce:	701a      	strb	r2, [r3, #0]
			}
			// check input current
			if (adc_iSenseIn > upper_iIn) {
 80007d0:	4b8a      	ldr	r3, [pc, #552]	@ (80009fc <main+0x3e0>)
 80007d2:	881b      	ldrh	r3, [r3, #0]
 80007d4:	b29a      	uxth	r2, r3
 80007d6:	4b8a      	ldr	r3, [pc, #552]	@ (8000a00 <main+0x3e4>)
 80007d8:	881b      	ldrh	r3, [r3, #0]
 80007da:	b29b      	uxth	r3, r3
 80007dc:	429a      	cmp	r2, r3
 80007de:	d903      	bls.n	80007e8 <main+0x1cc>
				OCPinFlag = 1;
 80007e0:	4b88      	ldr	r3, [pc, #544]	@ (8000a04 <main+0x3e8>)
 80007e2:	2201      	movs	r2, #1
 80007e4:	701a      	strb	r2, [r3, #0]
 80007e6:	e002      	b.n	80007ee <main+0x1d2>
			}
			else {
				OCPinFlag = 0;
 80007e8:	4b86      	ldr	r3, [pc, #536]	@ (8000a04 <main+0x3e8>)
 80007ea:	2200      	movs	r2, #0
 80007ec:	701a      	strb	r2, [r3, #0]


		}

		// ------------ ASM -----------------------
		switch (state) {
 80007ee:	1dfb      	adds	r3, r7, #7
 80007f0:	781b      	ldrb	r3, [r3, #0]
 80007f2:	2b04      	cmp	r3, #4
 80007f4:	d89f      	bhi.n	8000736 <main+0x11a>
 80007f6:	009a      	lsls	r2, r3, #2
 80007f8:	4b83      	ldr	r3, [pc, #524]	@ (8000a08 <main+0x3ec>)
 80007fa:	18d3      	adds	r3, r2, r3
 80007fc:	681b      	ldr	r3, [r3, #0]
 80007fe:	469f      	mov	pc, r3
		case INIT:
			// init code
			ignitionFlag = 0;
 8000800:	4b75      	ldr	r3, [pc, #468]	@ (80009d8 <main+0x3bc>)
 8000802:	2200      	movs	r2, #0
 8000804:	701a      	strb	r2, [r3, #0]
			ignitionCounter = 0;
 8000806:	4b75      	ldr	r3, [pc, #468]	@ (80009dc <main+0x3c0>)
 8000808:	2200      	movs	r2, #0
 800080a:	801a      	strh	r2, [r3, #0]
			HAL_GPIO_WritePin(GPIOC, GPIO_PIN_15, GPIO_PIN_RESET); // status LED
 800080c:	2380      	movs	r3, #128	@ 0x80
 800080e:	021b      	lsls	r3, r3, #8
 8000810:	486c      	ldr	r0, [pc, #432]	@ (80009c4 <main+0x3a8>)
 8000812:	2200      	movs	r2, #0
 8000814:	0019      	movs	r1, r3
 8000816:	f003 fcac 	bl	8004172 <HAL_GPIO_WritePin>
			HAL_GPIO_WritePin(GPIOB, GPIO_PIN_6, GPIO_PIN_RESET); // UV LED
 800081a:	4b6d      	ldr	r3, [pc, #436]	@ (80009d0 <main+0x3b4>)
 800081c:	2200      	movs	r2, #0
 800081e:	2140      	movs	r1, #64	@ 0x40
 8000820:	0018      	movs	r0, r3
 8000822:	f003 fca6 	bl	8004172 <HAL_GPIO_WritePin>

			// set DRV to zero
			__HAL_TIM_SET_COMPARE(&htim1, TIM_CHANNEL_1, 0);
 8000826:	4b60      	ldr	r3, [pc, #384]	@ (80009a8 <main+0x38c>)
 8000828:	681b      	ldr	r3, [r3, #0]
 800082a:	2200      	movs	r2, #0
 800082c:	635a      	str	r2, [r3, #52]	@ 0x34
			TIM1->ARR=ignFrequency; //50 kHz
 800082e:	4b77      	ldr	r3, [pc, #476]	@ (8000a0c <main+0x3f0>)
 8000830:	881b      	ldrh	r3, [r3, #0]
 8000832:	b29a      	uxth	r2, r3
 8000834:	4b5b      	ldr	r3, [pc, #364]	@ (80009a4 <main+0x388>)
 8000836:	62da      	str	r2, [r3, #44]	@ 0x2c

			// exit conditions
			if (errorFlag) {
 8000838:	4b75      	ldr	r3, [pc, #468]	@ (8000a10 <main+0x3f4>)
 800083a:	781b      	ldrb	r3, [r3, #0]
 800083c:	b2db      	uxtb	r3, r3
 800083e:	2b00      	cmp	r3, #0
 8000840:	d002      	beq.n	8000848 <main+0x22c>
				state = ERROR_state;
 8000842:	1dfb      	adds	r3, r7, #7
 8000844:	2204      	movs	r2, #4
 8000846:	701a      	strb	r2, [r3, #0]
			}
			if (enableFlag  && supplyOKFlag ) {
 8000848:	4b62      	ldr	r3, [pc, #392]	@ (80009d4 <main+0x3b8>)
 800084a:	781b      	ldrb	r3, [r3, #0]
 800084c:	b2db      	uxtb	r3, r3
 800084e:	2b00      	cmp	r3, #0
 8000850:	d100      	bne.n	8000854 <main+0x238>
 8000852:	e12c      	b.n	8000aae <main+0x492>
 8000854:	4b65      	ldr	r3, [pc, #404]	@ (80009ec <main+0x3d0>)
 8000856:	781b      	ldrb	r3, [r3, #0]
 8000858:	b2db      	uxtb	r3, r3
 800085a:	2b00      	cmp	r3, #0
 800085c:	d100      	bne.n	8000860 <main+0x244>
 800085e:	e126      	b.n	8000aae <main+0x492>
				state = IGNITE;
 8000860:	1dfb      	adds	r3, r7, #7
 8000862:	2202      	movs	r2, #2
 8000864:	701a      	strb	r2, [r3, #0]
			}
			break;
 8000866:	e122      	b.n	8000aae <main+0x492>

		case IGNITE:
			if (failedIgnitionCounter > maxIgnitionAttempts) {
 8000868:	4b6a      	ldr	r3, [pc, #424]	@ (8000a14 <main+0x3f8>)
 800086a:	781a      	ldrb	r2, [r3, #0]
 800086c:	4b6a      	ldr	r3, [pc, #424]	@ (8000a18 <main+0x3fc>)
 800086e:	781b      	ldrb	r3, [r3, #0]
 8000870:	429a      	cmp	r2, r3
 8000872:	d903      	bls.n	800087c <main+0x260>
				state = ERROR_state;
 8000874:	1dfb      	adds	r3, r7, #7
 8000876:	2204      	movs	r2, #4
 8000878:	701a      	strb	r2, [r3, #0]
 800087a:	e044      	b.n	8000906 <main+0x2ea>
			}
			else if (!ignitionFlag) {
 800087c:	4b56      	ldr	r3, [pc, #344]	@ (80009d8 <main+0x3bc>)
 800087e:	781b      	ldrb	r3, [r3, #0]
 8000880:	2b00      	cmp	r3, #0
 8000882:	d140      	bne.n	8000906 <main+0x2ea>

				// ignition mode for three seconds
				if (ignitionCounter < maxIgnitionTime) { // try ignition
 8000884:	4b55      	ldr	r3, [pc, #340]	@ (80009dc <main+0x3c0>)
 8000886:	881a      	ldrh	r2, [r3, #0]
 8000888:	4b64      	ldr	r3, [pc, #400]	@ (8000a1c <main+0x400>)
 800088a:	881b      	ldrh	r3, [r3, #0]
 800088c:	429a      	cmp	r2, r3
 800088e:	d231      	bcs.n	80008f4 <main+0x2d8>
					HAL_GPIO_WritePin(GPIOC, GPIO_PIN_15, GPIO_PIN_RESET); // disable Status LED
 8000890:	2380      	movs	r3, #128	@ 0x80
 8000892:	021b      	lsls	r3, r3, #8
 8000894:	484b      	ldr	r0, [pc, #300]	@ (80009c4 <main+0x3a8>)
 8000896:	2200      	movs	r2, #0
 8000898:	0019      	movs	r1, r3
 800089a:	f003 fc6a 	bl	8004172 <HAL_GPIO_WritePin>
					__HAL_TIM_SET_COMPARE(&htim1, TIM_CHANNEL_1, dutyMaxIgn); // high energy ignition
 800089e:	4b60      	ldr	r3, [pc, #384]	@ (8000a20 <main+0x404>)
 80008a0:	881b      	ldrh	r3, [r3, #0]
 80008a2:	b29a      	uxth	r2, r3
 80008a4:	4b40      	ldr	r3, [pc, #256]	@ (80009a8 <main+0x38c>)
 80008a6:	681b      	ldr	r3, [r3, #0]
 80008a8:	635a      	str	r2, [r3, #52]	@ 0x34
					TIM1->ARR = ignFrequency;
 80008aa:	4b58      	ldr	r3, [pc, #352]	@ (8000a0c <main+0x3f0>)
 80008ac:	881b      	ldrh	r3, [r3, #0]
 80008ae:	b29a      	uxth	r2, r3
 80008b0:	4b3c      	ldr	r3, [pc, #240]	@ (80009a4 <main+0x388>)
 80008b2:	62da      	str	r2, [r3, #44]	@ 0x2c
					HAL_GPIO_WritePin(GPIOB, GPIO_PIN_6, GPIO_PIN_SET); // enable UV-LED
 80008b4:	4b46      	ldr	r3, [pc, #280]	@ (80009d0 <main+0x3b4>)
 80008b6:	2201      	movs	r2, #1
 80008b8:	2140      	movs	r1, #64	@ 0x40
 80008ba:	0018      	movs	r0, r3
 80008bc:	f003 fc59 	bl	8004172 <HAL_GPIO_WritePin>
					//if (adc_iSenseLamp > adc_iSenseLampIgnited && adc_uSenseLamp < adc_uSenseLampIgnited) {
					if (adc_iSenseLamp > adc_iSenseLampIgnited && ignitionCounter > 1000) { // minimum ignition time 1000 ms
 80008c0:	4b58      	ldr	r3, [pc, #352]	@ (8000a24 <main+0x408>)
 80008c2:	881b      	ldrh	r3, [r3, #0]
 80008c4:	b29a      	uxth	r2, r3
 80008c6:	4b58      	ldr	r3, [pc, #352]	@ (8000a28 <main+0x40c>)
 80008c8:	881b      	ldrh	r3, [r3, #0]
 80008ca:	429a      	cmp	r2, r3
 80008cc:	d91b      	bls.n	8000906 <main+0x2ea>
 80008ce:	4b43      	ldr	r3, [pc, #268]	@ (80009dc <main+0x3c0>)
 80008d0:	881a      	ldrh	r2, [r3, #0]
 80008d2:	23fa      	movs	r3, #250	@ 0xfa
 80008d4:	009b      	lsls	r3, r3, #2
 80008d6:	429a      	cmp	r2, r3
 80008d8:	d915      	bls.n	8000906 <main+0x2ea>
					//if ( ignitionCounter > 1000) { // minimum ignition time 1000 ms
						HAL_GPIO_WritePin(GPIOB, GPIO_PIN_6, GPIO_PIN_RESET); // disable UV-LED
 80008da:	4b3d      	ldr	r3, [pc, #244]	@ (80009d0 <main+0x3b4>)
 80008dc:	2200      	movs	r2, #0
 80008de:	2140      	movs	r1, #64	@ 0x40
 80008e0:	0018      	movs	r0, r3
 80008e2:	f003 fc46 	bl	8004172 <HAL_GPIO_WritePin>
						ignitionFlag = 1;
 80008e6:	4b3c      	ldr	r3, [pc, #240]	@ (80009d8 <main+0x3bc>)
 80008e8:	2201      	movs	r2, #1
 80008ea:	701a      	strb	r2, [r3, #0]
						state = RUN;
 80008ec:	1dfb      	adds	r3, r7, #7
 80008ee:	2201      	movs	r2, #1
 80008f0:	701a      	strb	r2, [r3, #0]
 80008f2:	e008      	b.n	8000906 <main+0x2ea>
							state = ERROR_state;
						}
					}*/

				}
				else if (ignitionCounter > (maxIgnitionTime-1)) { // ignition failed
 80008f4:	4b49      	ldr	r3, [pc, #292]	@ (8000a1c <main+0x400>)
 80008f6:	881a      	ldrh	r2, [r3, #0]
 80008f8:	4b38      	ldr	r3, [pc, #224]	@ (80009dc <main+0x3c0>)
 80008fa:	881b      	ldrh	r3, [r3, #0]
 80008fc:	429a      	cmp	r2, r3
 80008fe:	d802      	bhi.n	8000906 <main+0x2ea>
					state = IGN_FAIL;
 8000900:	1dfb      	adds	r3, r7, #7
 8000902:	2203      	movs	r2, #3
 8000904:	701a      	strb	r2, [r3, #0]
				}
			}
			if (!enableFlag) {
 8000906:	4b33      	ldr	r3, [pc, #204]	@ (80009d4 <main+0x3b8>)
 8000908:	781b      	ldrb	r3, [r3, #0]
 800090a:	b2db      	uxtb	r3, r3
 800090c:	2b00      	cmp	r3, #0
 800090e:	d000      	beq.n	8000912 <main+0x2f6>
 8000910:	e0cf      	b.n	8000ab2 <main+0x496>
				state = INIT;
 8000912:	1dfb      	adds	r3, r7, #7
 8000914:	2200      	movs	r2, #0
 8000916:	701a      	strb	r2, [r3, #0]
			}


			break;
 8000918:	e0cb      	b.n	8000ab2 <main+0x496>
		case IGN_FAIL:
			ignitionFlag = 0;
 800091a:	4b2f      	ldr	r3, [pc, #188]	@ (80009d8 <main+0x3bc>)
 800091c:	2200      	movs	r2, #0
 800091e:	701a      	strb	r2, [r3, #0]
			HAL_GPIO_WritePin(GPIOB, GPIO_PIN_6, GPIO_PIN_RESET); // disable UV-LED
 8000920:	4b2b      	ldr	r3, [pc, #172]	@ (80009d0 <main+0x3b4>)
 8000922:	2200      	movs	r2, #0
 8000924:	2140      	movs	r1, #64	@ 0x40
 8000926:	0018      	movs	r0, r3
 8000928:	f003 fc23 	bl	8004172 <HAL_GPIO_WritePin>
			__HAL_TIM_SET_COMPARE(&htim1, TIM_CHANNEL_1, 0); // off
 800092c:	4b1e      	ldr	r3, [pc, #120]	@ (80009a8 <main+0x38c>)
 800092e:	681b      	ldr	r3, [r3, #0]
 8000930:	2200      	movs	r2, #0
 8000932:	635a      	str	r2, [r3, #52]	@ 0x34
			HAL_GPIO_TogglePin(GPIOC, GPIO_PIN_15);
 8000934:	2380      	movs	r3, #128	@ 0x80
 8000936:	021b      	lsls	r3, r3, #8
 8000938:	4a22      	ldr	r2, [pc, #136]	@ (80009c4 <main+0x3a8>)
 800093a:	0019      	movs	r1, r3
 800093c:	0010      	movs	r0, r2
 800093e:	f003 fc35 	bl	80041ac <HAL_GPIO_TogglePin>
			HAL_Delay(100);
 8000942:	2064      	movs	r0, #100	@ 0x64
 8000944:	f001 fad4 	bl	8001ef0 <HAL_Delay>
			HAL_GPIO_TogglePin(GPIOC, GPIO_PIN_15);
 8000948:	2380      	movs	r3, #128	@ 0x80
 800094a:	021b      	lsls	r3, r3, #8
 800094c:	4a1d      	ldr	r2, [pc, #116]	@ (80009c4 <main+0x3a8>)
 800094e:	0019      	movs	r1, r3
 8000950:	0010      	movs	r0, r2
 8000952:	f003 fc2b 	bl	80041ac <HAL_GPIO_TogglePin>
			HAL_Delay(100);
 8000956:	2064      	movs	r0, #100	@ 0x64
 8000958:	f001 faca 	bl	8001ef0 <HAL_Delay>
			HAL_GPIO_TogglePin(GPIOC, GPIO_PIN_15);
 800095c:	2380      	movs	r3, #128	@ 0x80
 800095e:	021b      	lsls	r3, r3, #8
 8000960:	4a18      	ldr	r2, [pc, #96]	@ (80009c4 <main+0x3a8>)
 8000962:	0019      	movs	r1, r3
 8000964:	0010      	movs	r0, r2
 8000966:	f003 fc21 	bl	80041ac <HAL_GPIO_TogglePin>
			HAL_Delay(100);
 800096a:	2064      	movs	r0, #100	@ 0x64
 800096c:	f001 fac0 	bl	8001ef0 <HAL_Delay>
			HAL_GPIO_TogglePin(GPIOC, GPIO_PIN_15);
 8000970:	2380      	movs	r3, #128	@ 0x80
 8000972:	021b      	lsls	r3, r3, #8
 8000974:	4a13      	ldr	r2, [pc, #76]	@ (80009c4 <main+0x3a8>)
 8000976:	0019      	movs	r1, r3
 8000978:	0010      	movs	r0, r2
 800097a:	f003 fc17 	bl	80041ac <HAL_GPIO_TogglePin>
			HAL_Delay(delayFailedIgnition); // wait and restart
 800097e:	4b2b      	ldr	r3, [pc, #172]	@ (8000a2c <main+0x410>)
 8000980:	881b      	ldrh	r3, [r3, #0]
 8000982:	0018      	movs	r0, r3
 8000984:	f001 fab4 	bl	8001ef0 <HAL_Delay>
			failedIgnitionCounter++;
 8000988:	4b22      	ldr	r3, [pc, #136]	@ (8000a14 <main+0x3f8>)
 800098a:	781b      	ldrb	r3, [r3, #0]
 800098c:	3301      	adds	r3, #1
 800098e:	b2da      	uxtb	r2, r3
 8000990:	4b20      	ldr	r3, [pc, #128]	@ (8000a14 <main+0x3f8>)
 8000992:	701a      	strb	r2, [r3, #0]
			state = INIT;
 8000994:	1dfb      	adds	r3, r7, #7
 8000996:	2200      	movs	r2, #0
 8000998:	701a      	strb	r2, [r3, #0]
			break;
 800099a:	e08d      	b.n	8000ab8 <main+0x49c>
 800099c:	40001000 	.word	0x40001000
 80009a0:	20000264 	.word	0x20000264
 80009a4:	40012c00 	.word	0x40012c00
 80009a8:	20000180 	.word	0x20000180
 80009ac:	2000016c 	.word	0x2000016c
 80009b0:	00000fff 	.word	0x00000fff
 80009b4:	2000013c 	.word	0x2000013c
 80009b8:	20000000 	.word	0x20000000
 80009bc:	2000004c 	.word	0x2000004c
 80009c0:	2000007c 	.word	0x2000007c
 80009c4:	50000800 	.word	0x50000800
 80009c8:	2000004a 	.word	0x2000004a
 80009cc:	20000049 	.word	0x20000049
 80009d0:	50000400 	.word	0x50000400
 80009d4:	20000044 	.word	0x20000044
 80009d8:	20000392 	.word	0x20000392
 80009dc:	20000390 	.word	0x20000390
 80009e0:	20000070 	.word	0x20000070
 80009e4:	20000014 	.word	0x20000014
 80009e8:	20000016 	.word	0x20000016
 80009ec:	20000045 	.word	0x20000045
 80009f0:	20000072 	.word	0x20000072
 80009f4:	20000018 	.word	0x20000018
 80009f8:	20000047 	.word	0x20000047
 80009fc:	2000007a 	.word	0x2000007a
 8000a00:	2000001a 	.word	0x2000001a
 8000a04:	20000048 	.word	0x20000048
 8000a08:	08007770 	.word	0x08007770
 8000a0c:	20000008 	.word	0x20000008
 8000a10:	20000046 	.word	0x20000046
 8000a14:	20000393 	.word	0x20000393
 8000a18:	20000012 	.word	0x20000012
 8000a1c:	2000000e 	.word	0x2000000e
 8000a20:	20000004 	.word	0x20000004
 8000a24:	20000076 	.word	0x20000076
 8000a28:	2000000c 	.word	0x2000000c
 8000a2c:	20000010 	.word	0x20000010


		case RUN:
			// RUN code
			HAL_GPIO_WritePin(GPIOC, GPIO_PIN_15, GPIO_PIN_SET); // enable status LED
 8000a30:	2380      	movs	r3, #128	@ 0x80
 8000a32:	021b      	lsls	r3, r3, #8
 8000a34:	4821      	ldr	r0, [pc, #132]	@ (8000abc <main+0x4a0>)
 8000a36:	2201      	movs	r2, #1
 8000a38:	0019      	movs	r1, r3
 8000a3a:	f003 fb9a 	bl	8004172 <HAL_GPIO_WritePin>
			TIM1->ARR=operationFrequency;
 8000a3e:	4b20      	ldr	r3, [pc, #128]	@ (8000ac0 <main+0x4a4>)
 8000a40:	881b      	ldrh	r3, [r3, #0]
 8000a42:	b29a      	uxth	r2, r3
 8000a44:	4b1f      	ldr	r3, [pc, #124]	@ (8000ac4 <main+0x4a8>)
 8000a46:	62da      	str	r2, [r3, #44]	@ 0x2c
			__HAL_TIM_SET_COMPARE(&htim1, TIM_CHANNEL_1, dutyMax); // max. duty cycle limiting
 8000a48:	4b1f      	ldr	r3, [pc, #124]	@ (8000ac8 <main+0x4ac>)
 8000a4a:	881b      	ldrh	r3, [r3, #0]
 8000a4c:	b29a      	uxth	r2, r3
 8000a4e:	4b1f      	ldr	r3, [pc, #124]	@ (8000acc <main+0x4b0>)
 8000a50:	681b      	ldr	r3, [r3, #0]
 8000a52:	635a      	str	r2, [r3, #52]	@ 0x34
			HAL_DAC_SetValue(&hdac1, DAC_CHANNEL_1, DAC_ALIGN_12B_R, dac_IsenseMOS); // set current limiting value
 8000a54:	4b1e      	ldr	r3, [pc, #120]	@ (8000ad0 <main+0x4b4>)
 8000a56:	881b      	ldrh	r3, [r3, #0]
 8000a58:	b29b      	uxth	r3, r3
 8000a5a:	481e      	ldr	r0, [pc, #120]	@ (8000ad4 <main+0x4b8>)
 8000a5c:	2200      	movs	r2, #0
 8000a5e:	2100      	movs	r1, #0
 8000a60:	f002 fe4c 	bl	80036fc <HAL_DAC_SetValue>

			// exit conditions

			if (enableFlag == 0 || supplyOKFlag == 0) {
 8000a64:	4b1c      	ldr	r3, [pc, #112]	@ (8000ad8 <main+0x4bc>)
 8000a66:	781b      	ldrb	r3, [r3, #0]
 8000a68:	b2db      	uxtb	r3, r3
 8000a6a:	2b00      	cmp	r3, #0
 8000a6c:	d004      	beq.n	8000a78 <main+0x45c>
 8000a6e:	4b1b      	ldr	r3, [pc, #108]	@ (8000adc <main+0x4c0>)
 8000a70:	781b      	ldrb	r3, [r3, #0]
 8000a72:	b2db      	uxtb	r3, r3
 8000a74:	2b00      	cmp	r3, #0
 8000a76:	d102      	bne.n	8000a7e <main+0x462>
				state = INIT;
 8000a78:	1dfb      	adds	r3, r7, #7
 8000a7a:	2200      	movs	r2, #0
 8000a7c:	701a      	strb	r2, [r3, #0]
			}

			/*if (OT_flag || errorFlag || (adc_uSenseLamp>adc_uSenseLampOpenCircuit)) {
				state = ERROR_state;
			}*/
			if (OT_flag ) {
 8000a7e:	4b18      	ldr	r3, [pc, #96]	@ (8000ae0 <main+0x4c4>)
 8000a80:	781b      	ldrb	r3, [r3, #0]
 8000a82:	b2db      	uxtb	r3, r3
 8000a84:	2b00      	cmp	r3, #0
 8000a86:	d016      	beq.n	8000ab6 <main+0x49a>
				state = ERROR_state;
 8000a88:	1dfb      	adds	r3, r7, #7
 8000a8a:	2204      	movs	r2, #4
 8000a8c:	701a      	strb	r2, [r3, #0]
			}


			break;
 8000a8e:	e012      	b.n	8000ab6 <main+0x49a>
		case ERROR_state:
			// ERROR code
			// set DRV to zero
			__HAL_TIM_SET_COMPARE(&htim1, TIM_CHANNEL_1, 0);
 8000a90:	4b0e      	ldr	r3, [pc, #56]	@ (8000acc <main+0x4b0>)
 8000a92:	681b      	ldr	r3, [r3, #0]
 8000a94:	2200      	movs	r2, #0
 8000a96:	635a      	str	r2, [r3, #52]	@ 0x34


			// communicate error (blink LED, UART)
			HAL_GPIO_TogglePin(GPIOC, GPIO_PIN_15); //  LED
 8000a98:	2380      	movs	r3, #128	@ 0x80
 8000a9a:	021b      	lsls	r3, r3, #8
 8000a9c:	4a07      	ldr	r2, [pc, #28]	@ (8000abc <main+0x4a0>)
 8000a9e:	0019      	movs	r1, r3
 8000aa0:	0010      	movs	r0, r2
 8000aa2:	f003 fb83 	bl	80041ac <HAL_GPIO_TogglePin>
			HAL_Delay(200);
 8000aa6:	20c8      	movs	r0, #200	@ 0xc8
 8000aa8:	f001 fa22 	bl	8001ef0 <HAL_Delay>
			// no exit conditions, only power cycle
			break;
 8000aac:	e004      	b.n	8000ab8 <main+0x49c>
			break;
 8000aae:	46c0      	nop			@ (mov r8, r8)
 8000ab0:	e641      	b.n	8000736 <main+0x11a>
			break;
 8000ab2:	46c0      	nop			@ (mov r8, r8)
 8000ab4:	e63f      	b.n	8000736 <main+0x11a>
			break;
 8000ab6:	46c0      	nop			@ (mov r8, r8)
		if (tim6_slowIrq_request && enableUART) {
 8000ab8:	e63d      	b.n	8000736 <main+0x11a>
 8000aba:	46c0      	nop			@ (mov r8, r8)
 8000abc:	50000800 	.word	0x50000800
 8000ac0:	2000000a 	.word	0x2000000a
 8000ac4:	40012c00 	.word	0x40012c00
 8000ac8:	20000006 	.word	0x20000006
 8000acc:	20000180 	.word	0x20000180
 8000ad0:	20000002 	.word	0x20000002
 8000ad4:	2000016c 	.word	0x2000016c
 8000ad8:	20000044 	.word	0x20000044
 8000adc:	20000045 	.word	0x20000045
 8000ae0:	20000047 	.word	0x20000047

08000ae4 <SystemClock_Config>:
/**
  * @brief System Clock Configuration
  * @retval None
  */
void SystemClock_Config(void)
{
 8000ae4:	b590      	push	{r4, r7, lr}
 8000ae6:	b093      	sub	sp, #76	@ 0x4c
 8000ae8:	af00      	add	r7, sp, #0
  RCC_OscInitTypeDef RCC_OscInitStruct = {0};
 8000aea:	2410      	movs	r4, #16
 8000aec:	193b      	adds	r3, r7, r4
 8000aee:	0018      	movs	r0, r3
 8000af0:	2338      	movs	r3, #56	@ 0x38
 8000af2:	001a      	movs	r2, r3
 8000af4:	2100      	movs	r1, #0
 8000af6:	f006 fe03 	bl	8007700 <memset>
  RCC_ClkInitTypeDef RCC_ClkInitStruct = {0};
 8000afa:	003b      	movs	r3, r7
 8000afc:	0018      	movs	r0, r3
 8000afe:	2310      	movs	r3, #16
 8000b00:	001a      	movs	r2, r3
 8000b02:	2100      	movs	r1, #0
 8000b04:	f006 fdfc 	bl	8007700 <memset>

  /** Configure the main internal regulator output voltage
  */
  HAL_PWREx_ControlVoltageScaling(PWR_REGULATOR_VOLTAGE_SCALE1);
 8000b08:	2380      	movs	r3, #128	@ 0x80
 8000b0a:	009b      	lsls	r3, r3, #2
 8000b0c:	0018      	movs	r0, r3
 8000b0e:	f003 fb69 	bl	80041e4 <HAL_PWREx_ControlVoltageScaling>

  /** Initializes the RCC Oscillators according to the specified parameters
  * in the RCC_OscInitTypeDef structure.
  */
  RCC_OscInitStruct.OscillatorType = RCC_OSCILLATORTYPE_HSI;
 8000b12:	193b      	adds	r3, r7, r4
 8000b14:	2202      	movs	r2, #2
 8000b16:	601a      	str	r2, [r3, #0]
  RCC_OscInitStruct.HSIState = RCC_HSI_ON;
 8000b18:	193b      	adds	r3, r7, r4
 8000b1a:	2280      	movs	r2, #128	@ 0x80
 8000b1c:	0052      	lsls	r2, r2, #1
 8000b1e:	60da      	str	r2, [r3, #12]
  RCC_OscInitStruct.HSIDiv = RCC_HSI_DIV1;
 8000b20:	0021      	movs	r1, r4
 8000b22:	187b      	adds	r3, r7, r1
 8000b24:	2200      	movs	r2, #0
 8000b26:	611a      	str	r2, [r3, #16]
  RCC_OscInitStruct.HSICalibrationValue = RCC_HSICALIBRATION_DEFAULT;
 8000b28:	187b      	adds	r3, r7, r1
 8000b2a:	2240      	movs	r2, #64	@ 0x40
 8000b2c:	615a      	str	r2, [r3, #20]
  RCC_OscInitStruct.PLL.PLLState = RCC_PLL_ON;
 8000b2e:	187b      	adds	r3, r7, r1
 8000b30:	2202      	movs	r2, #2
 8000b32:	61da      	str	r2, [r3, #28]
  RCC_OscInitStruct.PLL.PLLSource = RCC_PLLSOURCE_HSI;
 8000b34:	187b      	adds	r3, r7, r1
 8000b36:	2202      	movs	r2, #2
 8000b38:	621a      	str	r2, [r3, #32]
  RCC_OscInitStruct.PLL.PLLM = RCC_PLLM_DIV1;
 8000b3a:	187b      	adds	r3, r7, r1
 8000b3c:	2200      	movs	r2, #0
 8000b3e:	625a      	str	r2, [r3, #36]	@ 0x24
  RCC_OscInitStruct.PLL.PLLN = 8;
 8000b40:	187b      	adds	r3, r7, r1
 8000b42:	2208      	movs	r2, #8
 8000b44:	629a      	str	r2, [r3, #40]	@ 0x28
  RCC_OscInitStruct.PLL.PLLP = RCC_PLLP_DIV8;
 8000b46:	187b      	adds	r3, r7, r1
 8000b48:	22e0      	movs	r2, #224	@ 0xe0
 8000b4a:	0312      	lsls	r2, r2, #12
 8000b4c:	62da      	str	r2, [r3, #44]	@ 0x2c
  RCC_OscInitStruct.PLL.PLLQ = RCC_PLLQ_DIV8;
 8000b4e:	187b      	adds	r3, r7, r1
 8000b50:	22e0      	movs	r2, #224	@ 0xe0
 8000b52:	0512      	lsls	r2, r2, #20
 8000b54:	631a      	str	r2, [r3, #48]	@ 0x30
  RCC_OscInitStruct.PLL.PLLR = RCC_PLLR_DIV2;
 8000b56:	187b      	adds	r3, r7, r1
 8000b58:	2280      	movs	r2, #128	@ 0x80
 8000b5a:	0592      	lsls	r2, r2, #22
 8000b5c:	635a      	str	r2, [r3, #52]	@ 0x34
  if (HAL_RCC_OscConfig(&RCC_OscInitStruct) != HAL_OK)
 8000b5e:	187b      	adds	r3, r7, r1
 8000b60:	0018      	movs	r0, r3
 8000b62:	f003 fb8b 	bl	800427c <HAL_RCC_OscConfig>
 8000b66:	1e03      	subs	r3, r0, #0
 8000b68:	d001      	beq.n	8000b6e <SystemClock_Config+0x8a>
  {
    Error_Handler();
 8000b6a:	f000 fcc3 	bl	80014f4 <Error_Handler>
  }

  /** Initializes the CPU, AHB and APB buses clocks
  */
  RCC_ClkInitStruct.ClockType = RCC_CLOCKTYPE_HCLK|RCC_CLOCKTYPE_SYSCLK
 8000b6e:	003b      	movs	r3, r7
 8000b70:	2207      	movs	r2, #7
 8000b72:	601a      	str	r2, [r3, #0]
                              |RCC_CLOCKTYPE_PCLK1;
  RCC_ClkInitStruct.SYSCLKSource = RCC_SYSCLKSOURCE_HSI;
 8000b74:	003b      	movs	r3, r7
 8000b76:	2200      	movs	r2, #0
 8000b78:	605a      	str	r2, [r3, #4]
  RCC_ClkInitStruct.AHBCLKDivider = RCC_SYSCLK_DIV1;
 8000b7a:	003b      	movs	r3, r7
 8000b7c:	2200      	movs	r2, #0
 8000b7e:	609a      	str	r2, [r3, #8]
  RCC_ClkInitStruct.APB1CLKDivider = RCC_HCLK_DIV1;
 8000b80:	003b      	movs	r3, r7
 8000b82:	2200      	movs	r2, #0
 8000b84:	60da      	str	r2, [r3, #12]

  if (HAL_RCC_ClockConfig(&RCC_ClkInitStruct, FLASH_LATENCY_0) != HAL_OK)
 8000b86:	003b      	movs	r3, r7
 8000b88:	2100      	movs	r1, #0
 8000b8a:	0018      	movs	r0, r3
 8000b8c:	f003 fe90 	bl	80048b0 <HAL_RCC_ClockConfig>
 8000b90:	1e03      	subs	r3, r0, #0
 8000b92:	d001      	beq.n	8000b98 <SystemClock_Config+0xb4>
  {
    Error_Handler();
 8000b94:	f000 fcae 	bl	80014f4 <Error_Handler>
  }
}
 8000b98:	46c0      	nop			@ (mov r8, r8)
 8000b9a:	46bd      	mov	sp, r7
 8000b9c:	b013      	add	sp, #76	@ 0x4c
 8000b9e:	bd90      	pop	{r4, r7, pc}

08000ba0 <MX_NVIC_Init>:
/**
  * @brief NVIC Configuration.
  * @retval None
  */
static void MX_NVIC_Init(void)
{
 8000ba0:	b580      	push	{r7, lr}
 8000ba2:	af00      	add	r7, sp, #0
  /* TIM6_DAC_LPTIM1_IRQn interrupt configuration */
  HAL_NVIC_SetPriority(TIM6_DAC_LPTIM1_IRQn, 0, 0);
 8000ba4:	2200      	movs	r2, #0
 8000ba6:	2100      	movs	r1, #0
 8000ba8:	2011      	movs	r0, #17
 8000baa:	f002 fc9f 	bl	80034ec <HAL_NVIC_SetPriority>
  HAL_NVIC_EnableIRQ(TIM6_DAC_LPTIM1_IRQn);
 8000bae:	2011      	movs	r0, #17
 8000bb0:	f002 fcb1 	bl	8003516 <HAL_NVIC_EnableIRQ>
  /* ADC1_COMP_IRQn interrupt configuration */
  HAL_NVIC_SetPriority(ADC1_COMP_IRQn, 0, 0);
 8000bb4:	2200      	movs	r2, #0
 8000bb6:	2100      	movs	r1, #0
 8000bb8:	200c      	movs	r0, #12
 8000bba:	f002 fc97 	bl	80034ec <HAL_NVIC_SetPriority>
  HAL_NVIC_EnableIRQ(ADC1_COMP_IRQn);
 8000bbe:	200c      	movs	r0, #12
 8000bc0:	f002 fca9 	bl	8003516 <HAL_NVIC_EnableIRQ>
  /* DMA1_Channel1_IRQn interrupt configuration */
  HAL_NVIC_SetPriority(DMA1_Channel1_IRQn, 0, 0);
 8000bc4:	2200      	movs	r2, #0
 8000bc6:	2100      	movs	r1, #0
 8000bc8:	2009      	movs	r0, #9
 8000bca:	f002 fc8f 	bl	80034ec <HAL_NVIC_SetPriority>
  HAL_NVIC_EnableIRQ(DMA1_Channel1_IRQn);
 8000bce:	2009      	movs	r0, #9
 8000bd0:	f002 fca1 	bl	8003516 <HAL_NVIC_EnableIRQ>
  /* TIM3_IRQn interrupt configuration */
  HAL_NVIC_SetPriority(TIM3_IRQn, 0, 0);
 8000bd4:	2200      	movs	r2, #0
 8000bd6:	2100      	movs	r1, #0
 8000bd8:	2010      	movs	r0, #16
 8000bda:	f002 fc87 	bl	80034ec <HAL_NVIC_SetPriority>
  HAL_NVIC_EnableIRQ(TIM3_IRQn);
 8000bde:	2010      	movs	r0, #16
 8000be0:	f002 fc99 	bl	8003516 <HAL_NVIC_EnableIRQ>
}
 8000be4:	46c0      	nop			@ (mov r8, r8)
 8000be6:	46bd      	mov	sp, r7
 8000be8:	bd80      	pop	{r7, pc}
	...

08000bec <MX_ADC1_Init>:
  * @brief ADC1 Initialization Function
  * @param None
  * @retval None
  */
static void MX_ADC1_Init(void)
{
 8000bec:	b580      	push	{r7, lr}
 8000bee:	b084      	sub	sp, #16
 8000bf0:	af00      	add	r7, sp, #0

  /* USER CODE BEGIN ADC1_Init 0 */

  /* USER CODE END ADC1_Init 0 */

  ADC_ChannelConfTypeDef sConfig = {0};
 8000bf2:	1d3b      	adds	r3, r7, #4
 8000bf4:	0018      	movs	r0, r3
 8000bf6:	230c      	movs	r3, #12
 8000bf8:	001a      	movs	r2, r3
 8000bfa:	2100      	movs	r1, #0
 8000bfc:	f006 fd80 	bl	8007700 <memset>

  /* USER CODE END ADC1_Init 1 */

  /** Configure the global features of the ADC (Clock, Resolution, Data Alignment and number of conversion)
  */
  hadc1.Instance = ADC1;
 8000c00:	4b55      	ldr	r3, [pc, #340]	@ (8000d58 <MX_ADC1_Init+0x16c>)
 8000c02:	4a56      	ldr	r2, [pc, #344]	@ (8000d5c <MX_ADC1_Init+0x170>)
 8000c04:	601a      	str	r2, [r3, #0]
  hadc1.Init.ClockPrescaler = ADC_CLOCK_ASYNC_DIV10;
 8000c06:	4b54      	ldr	r3, [pc, #336]	@ (8000d58 <MX_ADC1_Init+0x16c>)
 8000c08:	22a0      	movs	r2, #160	@ 0xa0
 8000c0a:	0352      	lsls	r2, r2, #13
 8000c0c:	605a      	str	r2, [r3, #4]
  hadc1.Init.Resolution = ADC_RESOLUTION_12B;
 8000c0e:	4b52      	ldr	r3, [pc, #328]	@ (8000d58 <MX_ADC1_Init+0x16c>)
 8000c10:	2200      	movs	r2, #0
 8000c12:	609a      	str	r2, [r3, #8]
  hadc1.Init.DataAlign = ADC_DATAALIGN_RIGHT;
 8000c14:	4b50      	ldr	r3, [pc, #320]	@ (8000d58 <MX_ADC1_Init+0x16c>)
 8000c16:	2200      	movs	r2, #0
 8000c18:	60da      	str	r2, [r3, #12]
  hadc1.Init.ScanConvMode = ADC_SCAN_ENABLE;
 8000c1a:	4b4f      	ldr	r3, [pc, #316]	@ (8000d58 <MX_ADC1_Init+0x16c>)
 8000c1c:	2280      	movs	r2, #128	@ 0x80
 8000c1e:	0392      	lsls	r2, r2, #14
 8000c20:	611a      	str	r2, [r3, #16]
  hadc1.Init.EOCSelection = ADC_EOC_SINGLE_CONV;
 8000c22:	4b4d      	ldr	r3, [pc, #308]	@ (8000d58 <MX_ADC1_Init+0x16c>)
 8000c24:	2204      	movs	r2, #4
 8000c26:	615a      	str	r2, [r3, #20]
  hadc1.Init.LowPowerAutoWait = DISABLE;
 8000c28:	4b4b      	ldr	r3, [pc, #300]	@ (8000d58 <MX_ADC1_Init+0x16c>)
 8000c2a:	2200      	movs	r2, #0
 8000c2c:	761a      	strb	r2, [r3, #24]
  hadc1.Init.LowPowerAutoPowerOff = DISABLE;
 8000c2e:	4b4a      	ldr	r3, [pc, #296]	@ (8000d58 <MX_ADC1_Init+0x16c>)
 8000c30:	2200      	movs	r2, #0
 8000c32:	765a      	strb	r2, [r3, #25]
  hadc1.Init.ContinuousConvMode = ENABLE;
 8000c34:	4b48      	ldr	r3, [pc, #288]	@ (8000d58 <MX_ADC1_Init+0x16c>)
 8000c36:	2201      	movs	r2, #1
 8000c38:	769a      	strb	r2, [r3, #26]
  hadc1.Init.NbrOfConversion = 6;
 8000c3a:	4b47      	ldr	r3, [pc, #284]	@ (8000d58 <MX_ADC1_Init+0x16c>)
 8000c3c:	2206      	movs	r2, #6
 8000c3e:	61da      	str	r2, [r3, #28]
  hadc1.Init.ExternalTrigConv = ADC_EXTERNALTRIG_T6_TRGO;
 8000c40:	4b45      	ldr	r3, [pc, #276]	@ (8000d58 <MX_ADC1_Init+0x16c>)
 8000c42:	22a8      	movs	r2, #168	@ 0xa8
 8000c44:	00d2      	lsls	r2, r2, #3
 8000c46:	625a      	str	r2, [r3, #36]	@ 0x24
  hadc1.Init.ExternalTrigConvEdge = ADC_EXTERNALTRIGCONVEDGE_RISING;
 8000c48:	4b43      	ldr	r3, [pc, #268]	@ (8000d58 <MX_ADC1_Init+0x16c>)
 8000c4a:	2280      	movs	r2, #128	@ 0x80
 8000c4c:	00d2      	lsls	r2, r2, #3
 8000c4e:	629a      	str	r2, [r3, #40]	@ 0x28
  hadc1.Init.DMAContinuousRequests = ENABLE;
 8000c50:	4b41      	ldr	r3, [pc, #260]	@ (8000d58 <MX_ADC1_Init+0x16c>)
 8000c52:	222c      	movs	r2, #44	@ 0x2c
 8000c54:	2101      	movs	r1, #1
 8000c56:	5499      	strb	r1, [r3, r2]
  hadc1.Init.Overrun = ADC_OVR_DATA_PRESERVED;
 8000c58:	4b3f      	ldr	r3, [pc, #252]	@ (8000d58 <MX_ADC1_Init+0x16c>)
 8000c5a:	2200      	movs	r2, #0
 8000c5c:	631a      	str	r2, [r3, #48]	@ 0x30
  hadc1.Init.SamplingTimeCommon1 = ADC_SAMPLETIME_79CYCLES_5;
 8000c5e:	4b3e      	ldr	r3, [pc, #248]	@ (8000d58 <MX_ADC1_Init+0x16c>)
 8000c60:	2206      	movs	r2, #6
 8000c62:	635a      	str	r2, [r3, #52]	@ 0x34
  hadc1.Init.SamplingTimeCommon2 = ADC_SAMPLETIME_79CYCLES_5;
 8000c64:	4b3c      	ldr	r3, [pc, #240]	@ (8000d58 <MX_ADC1_Init+0x16c>)
 8000c66:	2206      	movs	r2, #6
 8000c68:	639a      	str	r2, [r3, #56]	@ 0x38
  hadc1.Init.OversamplingMode = DISABLE;
 8000c6a:	4b3b      	ldr	r3, [pc, #236]	@ (8000d58 <MX_ADC1_Init+0x16c>)
 8000c6c:	223c      	movs	r2, #60	@ 0x3c
 8000c6e:	2100      	movs	r1, #0
 8000c70:	5499      	strb	r1, [r3, r2]
  hadc1.Init.TriggerFrequencyMode = ADC_TRIGGER_FREQ_HIGH;
 8000c72:	4b39      	ldr	r3, [pc, #228]	@ (8000d58 <MX_ADC1_Init+0x16c>)
 8000c74:	2200      	movs	r2, #0
 8000c76:	64da      	str	r2, [r3, #76]	@ 0x4c
  if (HAL_ADC_Init(&hadc1) != HAL_OK)
 8000c78:	4b37      	ldr	r3, [pc, #220]	@ (8000d58 <MX_ADC1_Init+0x16c>)
 8000c7a:	0018      	movs	r0, r3
 8000c7c:	f001 fab0 	bl	80021e0 <HAL_ADC_Init>
 8000c80:	1e03      	subs	r3, r0, #0
 8000c82:	d001      	beq.n	8000c88 <MX_ADC1_Init+0x9c>
  {
    Error_Handler();
 8000c84:	f000 fc36 	bl	80014f4 <Error_Handler>
  }

  /** Configure Regular Channel
  */
  sConfig.Channel = ADC_CHANNEL_0;
 8000c88:	1d3b      	adds	r3, r7, #4
 8000c8a:	2201      	movs	r2, #1
 8000c8c:	601a      	str	r2, [r3, #0]
  sConfig.Rank = ADC_REGULAR_RANK_1;
 8000c8e:	1d3b      	adds	r3, r7, #4
 8000c90:	2200      	movs	r2, #0
 8000c92:	605a      	str	r2, [r3, #4]
  sConfig.SamplingTime = ADC_SAMPLINGTIME_COMMON_1;
 8000c94:	1d3b      	adds	r3, r7, #4
 8000c96:	2200      	movs	r2, #0
 8000c98:	609a      	str	r2, [r3, #8]
  if (HAL_ADC_ConfigChannel(&hadc1, &sConfig) != HAL_OK)
 8000c9a:	1d3a      	adds	r2, r7, #4
 8000c9c:	4b2e      	ldr	r3, [pc, #184]	@ (8000d58 <MX_ADC1_Init+0x16c>)
 8000c9e:	0011      	movs	r1, r2
 8000ca0:	0018      	movs	r0, r3
 8000ca2:	f001 fe0b 	bl	80028bc <HAL_ADC_ConfigChannel>
 8000ca6:	1e03      	subs	r3, r0, #0
 8000ca8:	d001      	beq.n	8000cae <MX_ADC1_Init+0xc2>
  {
    Error_Handler();
 8000caa:	f000 fc23 	bl	80014f4 <Error_Handler>
  }

  /** Configure Regular Channel
  */
  sConfig.Channel = ADC_CHANNEL_1;
 8000cae:	1d3b      	adds	r3, r7, #4
 8000cb0:	4a2b      	ldr	r2, [pc, #172]	@ (8000d60 <MX_ADC1_Init+0x174>)
 8000cb2:	601a      	str	r2, [r3, #0]
  sConfig.Rank = ADC_REGULAR_RANK_2;
 8000cb4:	1d3b      	adds	r3, r7, #4
 8000cb6:	2204      	movs	r2, #4
 8000cb8:	605a      	str	r2, [r3, #4]
  if (HAL_ADC_ConfigChannel(&hadc1, &sConfig) != HAL_OK)
 8000cba:	1d3a      	adds	r2, r7, #4
 8000cbc:	4b26      	ldr	r3, [pc, #152]	@ (8000d58 <MX_ADC1_Init+0x16c>)
 8000cbe:	0011      	movs	r1, r2
 8000cc0:	0018      	movs	r0, r3
 8000cc2:	f001 fdfb 	bl	80028bc <HAL_ADC_ConfigChannel>
 8000cc6:	1e03      	subs	r3, r0, #0
 8000cc8:	d001      	beq.n	8000cce <MX_ADC1_Init+0xe2>
  {
    Error_Handler();
 8000cca:	f000 fc13 	bl	80014f4 <Error_Handler>
  }

  /** Configure Regular Channel
  */
  sConfig.Channel = ADC_CHANNEL_3;
 8000cce:	1d3b      	adds	r3, r7, #4
 8000cd0:	4a24      	ldr	r2, [pc, #144]	@ (8000d64 <MX_ADC1_Init+0x178>)
 8000cd2:	601a      	str	r2, [r3, #0]
  sConfig.Rank = ADC_REGULAR_RANK_3;
 8000cd4:	1d3b      	adds	r3, r7, #4
 8000cd6:	2208      	movs	r2, #8
 8000cd8:	605a      	str	r2, [r3, #4]
  if (HAL_ADC_ConfigChannel(&hadc1, &sConfig) != HAL_OK)
 8000cda:	1d3a      	adds	r2, r7, #4
 8000cdc:	4b1e      	ldr	r3, [pc, #120]	@ (8000d58 <MX_ADC1_Init+0x16c>)
 8000cde:	0011      	movs	r1, r2
 8000ce0:	0018      	movs	r0, r3
 8000ce2:	f001 fdeb 	bl	80028bc <HAL_ADC_ConfigChannel>
 8000ce6:	1e03      	subs	r3, r0, #0
 8000ce8:	d001      	beq.n	8000cee <MX_ADC1_Init+0x102>
  {
    Error_Handler();
 8000cea:	f000 fc03 	bl	80014f4 <Error_Handler>
  }

  /** Configure Regular Channel
  */
  sConfig.Channel = ADC_CHANNEL_8;
 8000cee:	1d3b      	adds	r3, r7, #4
 8000cf0:	4a1d      	ldr	r2, [pc, #116]	@ (8000d68 <MX_ADC1_Init+0x17c>)
 8000cf2:	601a      	str	r2, [r3, #0]
  sConfig.Rank = ADC_REGULAR_RANK_4;
 8000cf4:	1d3b      	adds	r3, r7, #4
 8000cf6:	220c      	movs	r2, #12
 8000cf8:	605a      	str	r2, [r3, #4]
  if (HAL_ADC_ConfigChannel(&hadc1, &sConfig) != HAL_OK)
 8000cfa:	1d3a      	adds	r2, r7, #4
 8000cfc:	4b16      	ldr	r3, [pc, #88]	@ (8000d58 <MX_ADC1_Init+0x16c>)
 8000cfe:	0011      	movs	r1, r2
 8000d00:	0018      	movs	r0, r3
 8000d02:	f001 fddb 	bl	80028bc <HAL_ADC_ConfigChannel>
 8000d06:	1e03      	subs	r3, r0, #0
 8000d08:	d001      	beq.n	8000d0e <MX_ADC1_Init+0x122>
  {
    Error_Handler();
 8000d0a:	f000 fbf3 	bl	80014f4 <Error_Handler>
  }

  /** Configure Regular Channel
  */
  sConfig.Channel = ADC_CHANNEL_9;
 8000d0e:	1d3b      	adds	r3, r7, #4
 8000d10:	4a16      	ldr	r2, [pc, #88]	@ (8000d6c <MX_ADC1_Init+0x180>)
 8000d12:	601a      	str	r2, [r3, #0]
  sConfig.Rank = ADC_REGULAR_RANK_5;
 8000d14:	1d3b      	adds	r3, r7, #4
 8000d16:	2210      	movs	r2, #16
 8000d18:	605a      	str	r2, [r3, #4]
  if (HAL_ADC_ConfigChannel(&hadc1, &sConfig) != HAL_OK)
 8000d1a:	1d3a      	adds	r2, r7, #4
 8000d1c:	4b0e      	ldr	r3, [pc, #56]	@ (8000d58 <MX_ADC1_Init+0x16c>)
 8000d1e:	0011      	movs	r1, r2
 8000d20:	0018      	movs	r0, r3
 8000d22:	f001 fdcb 	bl	80028bc <HAL_ADC_ConfigChannel>
 8000d26:	1e03      	subs	r3, r0, #0
 8000d28:	d001      	beq.n	8000d2e <MX_ADC1_Init+0x142>
  {
    Error_Handler();
 8000d2a:	f000 fbe3 	bl	80014f4 <Error_Handler>
  }

  /** Configure Regular Channel
  */
  sConfig.Channel = ADC_CHANNEL_10;
 8000d2e:	1d3b      	adds	r3, r7, #4
 8000d30:	4a0f      	ldr	r2, [pc, #60]	@ (8000d70 <MX_ADC1_Init+0x184>)
 8000d32:	601a      	str	r2, [r3, #0]
  sConfig.Rank = ADC_REGULAR_RANK_6;
 8000d34:	1d3b      	adds	r3, r7, #4
 8000d36:	2214      	movs	r2, #20
 8000d38:	605a      	str	r2, [r3, #4]
  if (HAL_ADC_ConfigChannel(&hadc1, &sConfig) != HAL_OK)
 8000d3a:	1d3a      	adds	r2, r7, #4
 8000d3c:	4b06      	ldr	r3, [pc, #24]	@ (8000d58 <MX_ADC1_Init+0x16c>)
 8000d3e:	0011      	movs	r1, r2
 8000d40:	0018      	movs	r0, r3
 8000d42:	f001 fdbb 	bl	80028bc <HAL_ADC_ConfigChannel>
 8000d46:	1e03      	subs	r3, r0, #0
 8000d48:	d001      	beq.n	8000d4e <MX_ADC1_Init+0x162>
  {
    Error_Handler();
 8000d4a:	f000 fbd3 	bl	80014f4 <Error_Handler>
  }
  /* USER CODE BEGIN ADC1_Init 2 */

  /* USER CODE END ADC1_Init 2 */

}
 8000d4e:	46c0      	nop			@ (mov r8, r8)
 8000d50:	46bd      	mov	sp, r7
 8000d52:	b004      	add	sp, #16
 8000d54:	bd80      	pop	{r7, pc}
 8000d56:	46c0      	nop			@ (mov r8, r8)
 8000d58:	2000007c 	.word	0x2000007c
 8000d5c:	40012400 	.word	0x40012400
 8000d60:	04000002 	.word	0x04000002
 8000d64:	0c000008 	.word	0x0c000008
 8000d68:	20000100 	.word	0x20000100
 8000d6c:	24000200 	.word	0x24000200
 8000d70:	28000400 	.word	0x28000400

08000d74 <MX_COMP2_Init>:
  * @brief COMP2 Initialization Function
  * @param None
  * @retval None
  */
static void MX_COMP2_Init(void)
{
 8000d74:	b580      	push	{r7, lr}
 8000d76:	af00      	add	r7, sp, #0
  /* USER CODE END COMP2_Init 0 */

  /* USER CODE BEGIN COMP2_Init 1 */

  /* USER CODE END COMP2_Init 1 */
  hcomp2.Instance = COMP2;
 8000d78:	4b14      	ldr	r3, [pc, #80]	@ (8000dcc <MX_COMP2_Init+0x58>)
 8000d7a:	4a15      	ldr	r2, [pc, #84]	@ (8000dd0 <MX_COMP2_Init+0x5c>)
 8000d7c:	601a      	str	r2, [r3, #0]
  hcomp2.Init.InputPlus = COMP_INPUT_PLUS_IO1;
 8000d7e:	4b13      	ldr	r3, [pc, #76]	@ (8000dcc <MX_COMP2_Init+0x58>)
 8000d80:	2200      	movs	r2, #0
 8000d82:	611a      	str	r2, [r3, #16]
  hcomp2.Init.InputMinus = COMP_INPUT_MINUS_DAC1_CH1;
 8000d84:	4b11      	ldr	r3, [pc, #68]	@ (8000dcc <MX_COMP2_Init+0x58>)
 8000d86:	2240      	movs	r2, #64	@ 0x40
 8000d88:	615a      	str	r2, [r3, #20]
  hcomp2.Init.OutputPol = COMP_OUTPUTPOL_NONINVERTED;
 8000d8a:	4b10      	ldr	r3, [pc, #64]	@ (8000dcc <MX_COMP2_Init+0x58>)
 8000d8c:	2200      	movs	r2, #0
 8000d8e:	61da      	str	r2, [r3, #28]
  hcomp2.Init.WindowOutput = COMP_WINDOWOUTPUT_EACH_COMP;
 8000d90:	4b0e      	ldr	r3, [pc, #56]	@ (8000dcc <MX_COMP2_Init+0x58>)
 8000d92:	2200      	movs	r2, #0
 8000d94:	609a      	str	r2, [r3, #8]
  hcomp2.Init.Hysteresis = COMP_HYSTERESIS_NONE;
 8000d96:	4b0d      	ldr	r3, [pc, #52]	@ (8000dcc <MX_COMP2_Init+0x58>)
 8000d98:	2200      	movs	r2, #0
 8000d9a:	619a      	str	r2, [r3, #24]
  hcomp2.Init.BlankingSrce = COMP_BLANKINGSRC_NONE;
 8000d9c:	4b0b      	ldr	r3, [pc, #44]	@ (8000dcc <MX_COMP2_Init+0x58>)
 8000d9e:	2200      	movs	r2, #0
 8000da0:	621a      	str	r2, [r3, #32]
  hcomp2.Init.Mode = COMP_POWERMODE_HIGHSPEED;
 8000da2:	4b0a      	ldr	r3, [pc, #40]	@ (8000dcc <MX_COMP2_Init+0x58>)
 8000da4:	2200      	movs	r2, #0
 8000da6:	60da      	str	r2, [r3, #12]
  hcomp2.Init.WindowMode = COMP_WINDOWMODE_DISABLE;
 8000da8:	4b08      	ldr	r3, [pc, #32]	@ (8000dcc <MX_COMP2_Init+0x58>)
 8000daa:	2200      	movs	r2, #0
 8000dac:	605a      	str	r2, [r3, #4]
  hcomp2.Init.TriggerMode = COMP_TRIGGERMODE_NONE;
 8000dae:	4b07      	ldr	r3, [pc, #28]	@ (8000dcc <MX_COMP2_Init+0x58>)
 8000db0:	2200      	movs	r2, #0
 8000db2:	625a      	str	r2, [r3, #36]	@ 0x24
  if (HAL_COMP_Init(&hcomp2) != HAL_OK)
 8000db4:	4b05      	ldr	r3, [pc, #20]	@ (8000dcc <MX_COMP2_Init+0x58>)
 8000db6:	0018      	movs	r0, r3
 8000db8:	f002 f938 	bl	800302c <HAL_COMP_Init>
 8000dbc:	1e03      	subs	r3, r0, #0
 8000dbe:	d001      	beq.n	8000dc4 <MX_COMP2_Init+0x50>
  {
    Error_Handler();
 8000dc0:	f000 fb98 	bl	80014f4 <Error_Handler>
  }
  /* USER CODE BEGIN COMP2_Init 2 */

  /* USER CODE END COMP2_Init 2 */

}
 8000dc4:	46c0      	nop			@ (mov r8, r8)
 8000dc6:	46bd      	mov	sp, r7
 8000dc8:	bd80      	pop	{r7, pc}
 8000dca:	46c0      	nop			@ (mov r8, r8)
 8000dcc:	2000013c 	.word	0x2000013c
 8000dd0:	40010204 	.word	0x40010204

08000dd4 <MX_DAC1_Init>:
  * @brief DAC1 Initialization Function
  * @param None
  * @retval None
  */
static void MX_DAC1_Init(void)
{
 8000dd4:	b580      	push	{r7, lr}
 8000dd6:	b08a      	sub	sp, #40	@ 0x28
 8000dd8:	af00      	add	r7, sp, #0

  /* USER CODE BEGIN DAC1_Init 0 */

  /* USER CODE END DAC1_Init 0 */

  DAC_ChannelConfTypeDef sConfig = {0};
 8000dda:	1d3b      	adds	r3, r7, #4
 8000ddc:	0018      	movs	r0, r3
 8000dde:	2324      	movs	r3, #36	@ 0x24
 8000de0:	001a      	movs	r2, r3
 8000de2:	2100      	movs	r1, #0
 8000de4:	f006 fc8c 	bl	8007700 <memset>

  /* USER CODE END DAC1_Init 1 */

  /** DAC Initialization
  */
  hdac1.Instance = DAC1;
 8000de8:	4b1a      	ldr	r3, [pc, #104]	@ (8000e54 <MX_DAC1_Init+0x80>)
 8000dea:	4a1b      	ldr	r2, [pc, #108]	@ (8000e58 <MX_DAC1_Init+0x84>)
 8000dec:	601a      	str	r2, [r3, #0]
  if (HAL_DAC_Init(&hdac1) != HAL_OK)
 8000dee:	4b19      	ldr	r3, [pc, #100]	@ (8000e54 <MX_DAC1_Init+0x80>)
 8000df0:	0018      	movs	r0, r3
 8000df2:	f002 fbad 	bl	8003550 <HAL_DAC_Init>
 8000df6:	1e03      	subs	r3, r0, #0
 8000df8:	d001      	beq.n	8000dfe <MX_DAC1_Init+0x2a>
  {
    Error_Handler();
 8000dfa:	f000 fb7b 	bl	80014f4 <Error_Handler>
  }

  /** DAC channel OUT1 config
  */
  sConfig.DAC_SampleAndHold = DAC_SAMPLEANDHOLD_DISABLE;
 8000dfe:	1d3b      	adds	r3, r7, #4
 8000e00:	2200      	movs	r2, #0
 8000e02:	601a      	str	r2, [r3, #0]
  sConfig.DAC_Trigger = DAC_TRIGGER_NONE;
 8000e04:	1d3b      	adds	r3, r7, #4
 8000e06:	2200      	movs	r2, #0
 8000e08:	605a      	str	r2, [r3, #4]
  sConfig.DAC_OutputBuffer = DAC_OUTPUTBUFFER_ENABLE;
 8000e0a:	1d3b      	adds	r3, r7, #4
 8000e0c:	2200      	movs	r2, #0
 8000e0e:	609a      	str	r2, [r3, #8]
  sConfig.DAC_ConnectOnChipPeripheral = DAC_CHIPCONNECT_ENABLE;
 8000e10:	1d3b      	adds	r3, r7, #4
 8000e12:	2201      	movs	r2, #1
 8000e14:	60da      	str	r2, [r3, #12]
  sConfig.DAC_UserTrimming = DAC_TRIMMING_FACTORY;
 8000e16:	1d3b      	adds	r3, r7, #4
 8000e18:	2200      	movs	r2, #0
 8000e1a:	611a      	str	r2, [r3, #16]
  if (HAL_DAC_ConfigChannel(&hdac1, &sConfig, DAC_CHANNEL_1) != HAL_OK)
 8000e1c:	1d39      	adds	r1, r7, #4
 8000e1e:	4b0d      	ldr	r3, [pc, #52]	@ (8000e54 <MX_DAC1_Init+0x80>)
 8000e20:	2200      	movs	r2, #0
 8000e22:	0018      	movs	r0, r3
 8000e24:	f002 fc9a 	bl	800375c <HAL_DAC_ConfigChannel>
 8000e28:	1e03      	subs	r3, r0, #0
 8000e2a:	d001      	beq.n	8000e30 <MX_DAC1_Init+0x5c>
  {
    Error_Handler();
 8000e2c:	f000 fb62 	bl	80014f4 <Error_Handler>
  }

  /** DAC channel OUT2 config
  */
  sConfig.DAC_ConnectOnChipPeripheral = DAC_CHIPCONNECT_DISABLE;
 8000e30:	1d3b      	adds	r3, r7, #4
 8000e32:	2200      	movs	r2, #0
 8000e34:	60da      	str	r2, [r3, #12]
  if (HAL_DAC_ConfigChannel(&hdac1, &sConfig, DAC_CHANNEL_2) != HAL_OK)
 8000e36:	1d39      	adds	r1, r7, #4
 8000e38:	4b06      	ldr	r3, [pc, #24]	@ (8000e54 <MX_DAC1_Init+0x80>)
 8000e3a:	2210      	movs	r2, #16
 8000e3c:	0018      	movs	r0, r3
 8000e3e:	f002 fc8d 	bl	800375c <HAL_DAC_ConfigChannel>
 8000e42:	1e03      	subs	r3, r0, #0
 8000e44:	d001      	beq.n	8000e4a <MX_DAC1_Init+0x76>
  {
    Error_Handler();
 8000e46:	f000 fb55 	bl	80014f4 <Error_Handler>
  }
  /* USER CODE BEGIN DAC1_Init 2 */

  /* USER CODE END DAC1_Init 2 */

}
 8000e4a:	46c0      	nop			@ (mov r8, r8)
 8000e4c:	46bd      	mov	sp, r7
 8000e4e:	b00a      	add	sp, #40	@ 0x28
 8000e50:	bd80      	pop	{r7, pc}
 8000e52:	46c0      	nop			@ (mov r8, r8)
 8000e54:	2000016c 	.word	0x2000016c
 8000e58:	40007400 	.word	0x40007400

08000e5c <MX_TIM1_Init>:
  * @brief TIM1 Initialization Function
  * @param None
  * @retval None
  */
static void MX_TIM1_Init(void)
{
 8000e5c:	b580      	push	{r7, lr}
 8000e5e:	b09c      	sub	sp, #112	@ 0x70
 8000e60:	af00      	add	r7, sp, #0

  /* USER CODE BEGIN TIM1_Init 0 */

  /* USER CODE END TIM1_Init 0 */

  TIM_ClearInputConfigTypeDef sClearInputConfig = {0};
 8000e62:	235c      	movs	r3, #92	@ 0x5c
 8000e64:	18fb      	adds	r3, r7, r3
 8000e66:	0018      	movs	r0, r3
 8000e68:	2314      	movs	r3, #20
 8000e6a:	001a      	movs	r2, r3
 8000e6c:	2100      	movs	r1, #0
 8000e6e:	f006 fc47 	bl	8007700 <memset>
  TIM_MasterConfigTypeDef sMasterConfig = {0};
 8000e72:	2350      	movs	r3, #80	@ 0x50
 8000e74:	18fb      	adds	r3, r7, r3
 8000e76:	0018      	movs	r0, r3
 8000e78:	230c      	movs	r3, #12
 8000e7a:	001a      	movs	r2, r3
 8000e7c:	2100      	movs	r1, #0
 8000e7e:	f006 fc3f 	bl	8007700 <memset>
  TIM_OC_InitTypeDef sConfigOC = {0};
 8000e82:	2334      	movs	r3, #52	@ 0x34
 8000e84:	18fb      	adds	r3, r7, r3
 8000e86:	0018      	movs	r0, r3
 8000e88:	231c      	movs	r3, #28
 8000e8a:	001a      	movs	r2, r3
 8000e8c:	2100      	movs	r1, #0
 8000e8e:	f006 fc37 	bl	8007700 <memset>
  TIM_BreakDeadTimeConfigTypeDef sBreakDeadTimeConfig = {0};
 8000e92:	003b      	movs	r3, r7
 8000e94:	0018      	movs	r0, r3
 8000e96:	2334      	movs	r3, #52	@ 0x34
 8000e98:	001a      	movs	r2, r3
 8000e9a:	2100      	movs	r1, #0
 8000e9c:	f006 fc30 	bl	8007700 <memset>

  /* USER CODE BEGIN TIM1_Init 1 */

  /* USER CODE END TIM1_Init 1 */
  htim1.Instance = TIM1;
 8000ea0:	4b4e      	ldr	r3, [pc, #312]	@ (8000fdc <MX_TIM1_Init+0x180>)
 8000ea2:	4a4f      	ldr	r2, [pc, #316]	@ (8000fe0 <MX_TIM1_Init+0x184>)
 8000ea4:	601a      	str	r2, [r3, #0]
  htim1.Init.Prescaler = 0;
 8000ea6:	4b4d      	ldr	r3, [pc, #308]	@ (8000fdc <MX_TIM1_Init+0x180>)
 8000ea8:	2200      	movs	r2, #0
 8000eaa:	605a      	str	r2, [r3, #4]
  htim1.Init.CounterMode = TIM_COUNTERMODE_UP;
 8000eac:	4b4b      	ldr	r3, [pc, #300]	@ (8000fdc <MX_TIM1_Init+0x180>)
 8000eae:	2200      	movs	r2, #0
 8000eb0:	609a      	str	r2, [r3, #8]
  htim1.Init.Period = 320;
 8000eb2:	4b4a      	ldr	r3, [pc, #296]	@ (8000fdc <MX_TIM1_Init+0x180>)
 8000eb4:	22a0      	movs	r2, #160	@ 0xa0
 8000eb6:	0052      	lsls	r2, r2, #1
 8000eb8:	60da      	str	r2, [r3, #12]
  htim1.Init.ClockDivision = TIM_CLOCKDIVISION_DIV1;
 8000eba:	4b48      	ldr	r3, [pc, #288]	@ (8000fdc <MX_TIM1_Init+0x180>)
 8000ebc:	2200      	movs	r2, #0
 8000ebe:	611a      	str	r2, [r3, #16]
  htim1.Init.RepetitionCounter = 0;
 8000ec0:	4b46      	ldr	r3, [pc, #280]	@ (8000fdc <MX_TIM1_Init+0x180>)
 8000ec2:	2200      	movs	r2, #0
 8000ec4:	615a      	str	r2, [r3, #20]
  htim1.Init.AutoReloadPreload = TIM_AUTORELOAD_PRELOAD_ENABLE;
 8000ec6:	4b45      	ldr	r3, [pc, #276]	@ (8000fdc <MX_TIM1_Init+0x180>)
 8000ec8:	2280      	movs	r2, #128	@ 0x80
 8000eca:	619a      	str	r2, [r3, #24]
  if (HAL_TIM_PWM_Init(&htim1) != HAL_OK)
 8000ecc:	4b43      	ldr	r3, [pc, #268]	@ (8000fdc <MX_TIM1_Init+0x180>)
 8000ece:	0018      	movs	r0, r3
 8000ed0:	f004 f904 	bl	80050dc <HAL_TIM_PWM_Init>
 8000ed4:	1e03      	subs	r3, r0, #0
 8000ed6:	d001      	beq.n	8000edc <MX_TIM1_Init+0x80>
  {
    Error_Handler();
 8000ed8:	f000 fb0c 	bl	80014f4 <Error_Handler>
  }
  sClearInputConfig.ClearInputState = ENABLE;
 8000edc:	215c      	movs	r1, #92	@ 0x5c
 8000ede:	187b      	adds	r3, r7, r1
 8000ee0:	2201      	movs	r2, #1
 8000ee2:	601a      	str	r2, [r3, #0]
  sClearInputConfig.ClearInputSource = TIM_CLEARINPUTSOURCE_COMP2;
 8000ee4:	187b      	adds	r3, r7, r1
 8000ee6:	2201      	movs	r2, #1
 8000ee8:	605a      	str	r2, [r3, #4]
  if (HAL_TIM_ConfigOCrefClear(&htim1, &sClearInputConfig, TIM_CHANNEL_1) != HAL_OK)
 8000eea:	1879      	adds	r1, r7, r1
 8000eec:	4b3b      	ldr	r3, [pc, #236]	@ (8000fdc <MX_TIM1_Init+0x180>)
 8000eee:	2200      	movs	r2, #0
 8000ef0:	0018      	movs	r0, r3
 8000ef2:	f004 fd39 	bl	8005968 <HAL_TIM_ConfigOCrefClear>
 8000ef6:	1e03      	subs	r3, r0, #0
 8000ef8:	d001      	beq.n	8000efe <MX_TIM1_Init+0xa2>
  {
    Error_Handler();
 8000efa:	f000 fafb 	bl	80014f4 <Error_Handler>
  }
  sMasterConfig.MasterOutputTrigger = TIM_TRGO_RESET;
 8000efe:	2150      	movs	r1, #80	@ 0x50
 8000f00:	187b      	adds	r3, r7, r1
 8000f02:	2200      	movs	r2, #0
 8000f04:	601a      	str	r2, [r3, #0]
  sMasterConfig.MasterOutputTrigger2 = TIM_TRGO2_RESET;
 8000f06:	187b      	adds	r3, r7, r1
 8000f08:	2200      	movs	r2, #0
 8000f0a:	605a      	str	r2, [r3, #4]
  sMasterConfig.MasterSlaveMode = TIM_MASTERSLAVEMODE_DISABLE;
 8000f0c:	187b      	adds	r3, r7, r1
 8000f0e:	2200      	movs	r2, #0
 8000f10:	609a      	str	r2, [r3, #8]
  if (HAL_TIMEx_MasterConfigSynchronization(&htim1, &sMasterConfig) != HAL_OK)
 8000f12:	187a      	adds	r2, r7, r1
 8000f14:	4b31      	ldr	r3, [pc, #196]	@ (8000fdc <MX_TIM1_Init+0x180>)
 8000f16:	0011      	movs	r1, r2
 8000f18:	0018      	movs	r0, r3
 8000f1a:	f005 fc6d 	bl	80067f8 <HAL_TIMEx_MasterConfigSynchronization>
 8000f1e:	1e03      	subs	r3, r0, #0
 8000f20:	d001      	beq.n	8000f26 <MX_TIM1_Init+0xca>
  {
    Error_Handler();
 8000f22:	f000 fae7 	bl	80014f4 <Error_Handler>
  }
  sConfigOC.OCMode = TIM_OCMODE_PWM1;
 8000f26:	2134      	movs	r1, #52	@ 0x34
 8000f28:	187b      	adds	r3, r7, r1
 8000f2a:	2260      	movs	r2, #96	@ 0x60
 8000f2c:	601a      	str	r2, [r3, #0]
  sConfigOC.Pulse = 0;
 8000f2e:	187b      	adds	r3, r7, r1
 8000f30:	2200      	movs	r2, #0
 8000f32:	605a      	str	r2, [r3, #4]
  sConfigOC.OCPolarity = TIM_OCPOLARITY_HIGH;
 8000f34:	187b      	adds	r3, r7, r1
 8000f36:	2200      	movs	r2, #0
 8000f38:	609a      	str	r2, [r3, #8]
  sConfigOC.OCNPolarity = TIM_OCNPOLARITY_HIGH;
 8000f3a:	187b      	adds	r3, r7, r1
 8000f3c:	2200      	movs	r2, #0
 8000f3e:	60da      	str	r2, [r3, #12]
  sConfigOC.OCFastMode = TIM_OCFAST_DISABLE;
 8000f40:	187b      	adds	r3, r7, r1
 8000f42:	2200      	movs	r2, #0
 8000f44:	611a      	str	r2, [r3, #16]
  sConfigOC.OCIdleState = TIM_OCIDLESTATE_RESET;
 8000f46:	187b      	adds	r3, r7, r1
 8000f48:	2200      	movs	r2, #0
 8000f4a:	615a      	str	r2, [r3, #20]
  sConfigOC.OCNIdleState = TIM_OCNIDLESTATE_RESET;
 8000f4c:	187b      	adds	r3, r7, r1
 8000f4e:	2200      	movs	r2, #0
 8000f50:	619a      	str	r2, [r3, #24]
  if (HAL_TIM_PWM_ConfigChannel(&htim1, &sConfigOC, TIM_CHANNEL_1) != HAL_OK)
 8000f52:	1879      	adds	r1, r7, r1
 8000f54:	4b21      	ldr	r3, [pc, #132]	@ (8000fdc <MX_TIM1_Init+0x180>)
 8000f56:	2200      	movs	r2, #0
 8000f58:	0018      	movs	r0, r3
 8000f5a:	f004 fc05 	bl	8005768 <HAL_TIM_PWM_ConfigChannel>
 8000f5e:	1e03      	subs	r3, r0, #0
 8000f60:	d001      	beq.n	8000f66 <MX_TIM1_Init+0x10a>
  {
    Error_Handler();
 8000f62:	f000 fac7 	bl	80014f4 <Error_Handler>
  }
  sBreakDeadTimeConfig.OffStateRunMode = TIM_OSSR_DISABLE;
 8000f66:	003b      	movs	r3, r7
 8000f68:	2200      	movs	r2, #0
 8000f6a:	601a      	str	r2, [r3, #0]
  sBreakDeadTimeConfig.OffStateIDLEMode = TIM_OSSI_DISABLE;
 8000f6c:	003b      	movs	r3, r7
 8000f6e:	2200      	movs	r2, #0
 8000f70:	605a      	str	r2, [r3, #4]
  sBreakDeadTimeConfig.LockLevel = TIM_LOCKLEVEL_OFF;
 8000f72:	003b      	movs	r3, r7
 8000f74:	2200      	movs	r2, #0
 8000f76:	609a      	str	r2, [r3, #8]
  sBreakDeadTimeConfig.DeadTime = 0;
 8000f78:	003b      	movs	r3, r7
 8000f7a:	2200      	movs	r2, #0
 8000f7c:	60da      	str	r2, [r3, #12]
  sBreakDeadTimeConfig.BreakState = TIM_BREAK_DISABLE;
 8000f7e:	003b      	movs	r3, r7
 8000f80:	2200      	movs	r2, #0
 8000f82:	611a      	str	r2, [r3, #16]
  sBreakDeadTimeConfig.BreakPolarity = TIM_BREAKPOLARITY_HIGH;
 8000f84:	003b      	movs	r3, r7
 8000f86:	2280      	movs	r2, #128	@ 0x80
 8000f88:	0192      	lsls	r2, r2, #6
 8000f8a:	615a      	str	r2, [r3, #20]
  sBreakDeadTimeConfig.BreakFilter = 0;
 8000f8c:	003b      	movs	r3, r7
 8000f8e:	2200      	movs	r2, #0
 8000f90:	619a      	str	r2, [r3, #24]
  sBreakDeadTimeConfig.BreakAFMode = TIM_BREAK_AFMODE_INPUT;
 8000f92:	003b      	movs	r3, r7
 8000f94:	2200      	movs	r2, #0
 8000f96:	61da      	str	r2, [r3, #28]
  sBreakDeadTimeConfig.Break2State = TIM_BREAK2_DISABLE;
 8000f98:	003b      	movs	r3, r7
 8000f9a:	2200      	movs	r2, #0
 8000f9c:	621a      	str	r2, [r3, #32]
  sBreakDeadTimeConfig.Break2Polarity = TIM_BREAK2POLARITY_HIGH;
 8000f9e:	003b      	movs	r3, r7
 8000fa0:	2280      	movs	r2, #128	@ 0x80
 8000fa2:	0492      	lsls	r2, r2, #18
 8000fa4:	625a      	str	r2, [r3, #36]	@ 0x24
  sBreakDeadTimeConfig.Break2Filter = 0;
 8000fa6:	003b      	movs	r3, r7
 8000fa8:	2200      	movs	r2, #0
 8000faa:	629a      	str	r2, [r3, #40]	@ 0x28
  sBreakDeadTimeConfig.Break2AFMode = TIM_BREAK_AFMODE_INPUT;
 8000fac:	003b      	movs	r3, r7
 8000fae:	2200      	movs	r2, #0
 8000fb0:	62da      	str	r2, [r3, #44]	@ 0x2c
  sBreakDeadTimeConfig.AutomaticOutput = TIM_AUTOMATICOUTPUT_DISABLE;
 8000fb2:	003b      	movs	r3, r7
 8000fb4:	2200      	movs	r2, #0
 8000fb6:	631a      	str	r2, [r3, #48]	@ 0x30
  if (HAL_TIMEx_ConfigBreakDeadTime(&htim1, &sBreakDeadTimeConfig) != HAL_OK)
 8000fb8:	003a      	movs	r2, r7
 8000fba:	4b08      	ldr	r3, [pc, #32]	@ (8000fdc <MX_TIM1_Init+0x180>)
 8000fbc:	0011      	movs	r1, r2
 8000fbe:	0018      	movs	r0, r3
 8000fc0:	f005 fc88 	bl	80068d4 <HAL_TIMEx_ConfigBreakDeadTime>
 8000fc4:	1e03      	subs	r3, r0, #0
 8000fc6:	d001      	beq.n	8000fcc <MX_TIM1_Init+0x170>
  {
    Error_Handler();
 8000fc8:	f000 fa94 	bl	80014f4 <Error_Handler>
  }
  /* USER CODE BEGIN TIM1_Init 2 */

  /* USER CODE END TIM1_Init 2 */
  HAL_TIM_MspPostInit(&htim1);
 8000fcc:	4b03      	ldr	r3, [pc, #12]	@ (8000fdc <MX_TIM1_Init+0x180>)
 8000fce:	0018      	movs	r0, r3
 8000fd0:	f000 fd12 	bl	80019f8 <HAL_TIM_MspPostInit>

}
 8000fd4:	46c0      	nop			@ (mov r8, r8)
 8000fd6:	46bd      	mov	sp, r7
 8000fd8:	b01c      	add	sp, #112	@ 0x70
 8000fda:	bd80      	pop	{r7, pc}
 8000fdc:	20000180 	.word	0x20000180
 8000fe0:	40012c00 	.word	0x40012c00

08000fe4 <MX_TIM2_Init>:
  * @brief TIM2 Initialization Function
  * @param None
  * @retval None
  */
static void MX_TIM2_Init(void)
{
 8000fe4:	b580      	push	{r7, lr}
 8000fe6:	b08a      	sub	sp, #40	@ 0x28
 8000fe8:	af00      	add	r7, sp, #0

  /* USER CODE BEGIN TIM2_Init 0 */

  /* USER CODE END TIM2_Init 0 */

  TIM_MasterConfigTypeDef sMasterConfig = {0};
 8000fea:	231c      	movs	r3, #28
 8000fec:	18fb      	adds	r3, r7, r3
 8000fee:	0018      	movs	r0, r3
 8000ff0:	230c      	movs	r3, #12
 8000ff2:	001a      	movs	r2, r3
 8000ff4:	2100      	movs	r1, #0
 8000ff6:	f006 fb83 	bl	8007700 <memset>
  TIM_OC_InitTypeDef sConfigOC = {0};
 8000ffa:	003b      	movs	r3, r7
 8000ffc:	0018      	movs	r0, r3
 8000ffe:	231c      	movs	r3, #28
 8001000:	001a      	movs	r2, r3
 8001002:	2100      	movs	r1, #0
 8001004:	f006 fb7c 	bl	8007700 <memset>

  /* USER CODE BEGIN TIM2_Init 1 */

  /* USER CODE END TIM2_Init 1 */
  htim2.Instance = TIM2;
 8001008:	4b25      	ldr	r3, [pc, #148]	@ (80010a0 <MX_TIM2_Init+0xbc>)
 800100a:	2280      	movs	r2, #128	@ 0x80
 800100c:	05d2      	lsls	r2, r2, #23
 800100e:	601a      	str	r2, [r3, #0]
  htim2.Init.Prescaler = 16;
 8001010:	4b23      	ldr	r3, [pc, #140]	@ (80010a0 <MX_TIM2_Init+0xbc>)
 8001012:	2210      	movs	r2, #16
 8001014:	605a      	str	r2, [r3, #4]
  htim2.Init.CounterMode = TIM_COUNTERMODE_UP;
 8001016:	4b22      	ldr	r3, [pc, #136]	@ (80010a0 <MX_TIM2_Init+0xbc>)
 8001018:	2200      	movs	r2, #0
 800101a:	609a      	str	r2, [r3, #8]
  htim2.Init.Period = 1000;
 800101c:	4b20      	ldr	r3, [pc, #128]	@ (80010a0 <MX_TIM2_Init+0xbc>)
 800101e:	22fa      	movs	r2, #250	@ 0xfa
 8001020:	0092      	lsls	r2, r2, #2
 8001022:	60da      	str	r2, [r3, #12]
  htim2.Init.ClockDivision = TIM_CLOCKDIVISION_DIV1;
 8001024:	4b1e      	ldr	r3, [pc, #120]	@ (80010a0 <MX_TIM2_Init+0xbc>)
 8001026:	2200      	movs	r2, #0
 8001028:	611a      	str	r2, [r3, #16]
  htim2.Init.AutoReloadPreload = TIM_AUTORELOAD_PRELOAD_DISABLE;
 800102a:	4b1d      	ldr	r3, [pc, #116]	@ (80010a0 <MX_TIM2_Init+0xbc>)
 800102c:	2200      	movs	r2, #0
 800102e:	619a      	str	r2, [r3, #24]
  if (HAL_TIM_PWM_Init(&htim2) != HAL_OK)
 8001030:	4b1b      	ldr	r3, [pc, #108]	@ (80010a0 <MX_TIM2_Init+0xbc>)
 8001032:	0018      	movs	r0, r3
 8001034:	f004 f852 	bl	80050dc <HAL_TIM_PWM_Init>
 8001038:	1e03      	subs	r3, r0, #0
 800103a:	d001      	beq.n	8001040 <MX_TIM2_Init+0x5c>
  {
    Error_Handler();
 800103c:	f000 fa5a 	bl	80014f4 <Error_Handler>
  }
  sMasterConfig.MasterOutputTrigger = TIM_TRGO_RESET;
 8001040:	211c      	movs	r1, #28
 8001042:	187b      	adds	r3, r7, r1
 8001044:	2200      	movs	r2, #0
 8001046:	601a      	str	r2, [r3, #0]
  sMasterConfig.MasterSlaveMode = TIM_MASTERSLAVEMODE_DISABLE;
 8001048:	187b      	adds	r3, r7, r1
 800104a:	2200      	movs	r2, #0
 800104c:	609a      	str	r2, [r3, #8]
  if (HAL_TIMEx_MasterConfigSynchronization(&htim2, &sMasterConfig) != HAL_OK)
 800104e:	187a      	adds	r2, r7, r1
 8001050:	4b13      	ldr	r3, [pc, #76]	@ (80010a0 <MX_TIM2_Init+0xbc>)
 8001052:	0011      	movs	r1, r2
 8001054:	0018      	movs	r0, r3
 8001056:	f005 fbcf 	bl	80067f8 <HAL_TIMEx_MasterConfigSynchronization>
 800105a:	1e03      	subs	r3, r0, #0
 800105c:	d001      	beq.n	8001062 <MX_TIM2_Init+0x7e>
  {
    Error_Handler();
 800105e:	f000 fa49 	bl	80014f4 <Error_Handler>
  }
  sConfigOC.OCMode = TIM_OCMODE_PWM1;
 8001062:	003b      	movs	r3, r7
 8001064:	2260      	movs	r2, #96	@ 0x60
 8001066:	601a      	str	r2, [r3, #0]
  sConfigOC.Pulse = 500;
 8001068:	003b      	movs	r3, r7
 800106a:	22fa      	movs	r2, #250	@ 0xfa
 800106c:	0052      	lsls	r2, r2, #1
 800106e:	605a      	str	r2, [r3, #4]
  sConfigOC.OCPolarity = TIM_OCPOLARITY_HIGH;
 8001070:	003b      	movs	r3, r7
 8001072:	2200      	movs	r2, #0
 8001074:	609a      	str	r2, [r3, #8]
  sConfigOC.OCFastMode = TIM_OCFAST_DISABLE;
 8001076:	003b      	movs	r3, r7
 8001078:	2200      	movs	r2, #0
 800107a:	611a      	str	r2, [r3, #16]
  if (HAL_TIM_PWM_ConfigChannel(&htim2, &sConfigOC, TIM_CHANNEL_3) != HAL_OK)
 800107c:	0039      	movs	r1, r7
 800107e:	4b08      	ldr	r3, [pc, #32]	@ (80010a0 <MX_TIM2_Init+0xbc>)
 8001080:	2208      	movs	r2, #8
 8001082:	0018      	movs	r0, r3
 8001084:	f004 fb70 	bl	8005768 <HAL_TIM_PWM_ConfigChannel>
 8001088:	1e03      	subs	r3, r0, #0
 800108a:	d001      	beq.n	8001090 <MX_TIM2_Init+0xac>
  {
    Error_Handler();
 800108c:	f000 fa32 	bl	80014f4 <Error_Handler>
  }
  /* USER CODE BEGIN TIM2_Init 2 */

  /* USER CODE END TIM2_Init 2 */
  HAL_TIM_MspPostInit(&htim2);
 8001090:	4b03      	ldr	r3, [pc, #12]	@ (80010a0 <MX_TIM2_Init+0xbc>)
 8001092:	0018      	movs	r0, r3
 8001094:	f000 fcb0 	bl	80019f8 <HAL_TIM_MspPostInit>

}
 8001098:	46c0      	nop			@ (mov r8, r8)
 800109a:	46bd      	mov	sp, r7
 800109c:	b00a      	add	sp, #40	@ 0x28
 800109e:	bd80      	pop	{r7, pc}
 80010a0:	200001cc 	.word	0x200001cc

080010a4 <MX_TIM3_Init>:
  * @brief TIM3 Initialization Function
  * @param None
  * @retval None
  */
static void MX_TIM3_Init(void)
{
 80010a4:	b580      	push	{r7, lr}
 80010a6:	b08c      	sub	sp, #48	@ 0x30
 80010a8:	af00      	add	r7, sp, #0

  /* USER CODE BEGIN TIM3_Init 0 */

  /* USER CODE END TIM3_Init 0 */

  TIM_SlaveConfigTypeDef sSlaveConfig = {0};
 80010aa:	231c      	movs	r3, #28
 80010ac:	18fb      	adds	r3, r7, r3
 80010ae:	0018      	movs	r0, r3
 80010b0:	2314      	movs	r3, #20
 80010b2:	001a      	movs	r2, r3
 80010b4:	2100      	movs	r1, #0
 80010b6:	f006 fb23 	bl	8007700 <memset>
  TIM_IC_InitTypeDef sConfigIC = {0};
 80010ba:	230c      	movs	r3, #12
 80010bc:	18fb      	adds	r3, r7, r3
 80010be:	0018      	movs	r0, r3
 80010c0:	2310      	movs	r3, #16
 80010c2:	001a      	movs	r2, r3
 80010c4:	2100      	movs	r1, #0
 80010c6:	f006 fb1b 	bl	8007700 <memset>
  TIM_MasterConfigTypeDef sMasterConfig = {0};
 80010ca:	003b      	movs	r3, r7
 80010cc:	0018      	movs	r0, r3
 80010ce:	230c      	movs	r3, #12
 80010d0:	001a      	movs	r2, r3
 80010d2:	2100      	movs	r1, #0
 80010d4:	f006 fb14 	bl	8007700 <memset>

  /* USER CODE BEGIN TIM3_Init 1 */

  /* USER CODE END TIM3_Init 1 */
  htim3.Instance = TIM3;
 80010d8:	4b37      	ldr	r3, [pc, #220]	@ (80011b8 <MX_TIM3_Init+0x114>)
 80010da:	4a38      	ldr	r2, [pc, #224]	@ (80011bc <MX_TIM3_Init+0x118>)
 80010dc:	601a      	str	r2, [r3, #0]
  htim3.Init.Prescaler = 0;
 80010de:	4b36      	ldr	r3, [pc, #216]	@ (80011b8 <MX_TIM3_Init+0x114>)
 80010e0:	2200      	movs	r2, #0
 80010e2:	605a      	str	r2, [r3, #4]
  htim3.Init.CounterMode = TIM_COUNTERMODE_UP;
 80010e4:	4b34      	ldr	r3, [pc, #208]	@ (80011b8 <MX_TIM3_Init+0x114>)
 80010e6:	2200      	movs	r2, #0
 80010e8:	609a      	str	r2, [r3, #8]
  htim3.Init.Period = 65535;
 80010ea:	4b33      	ldr	r3, [pc, #204]	@ (80011b8 <MX_TIM3_Init+0x114>)
 80010ec:	4a34      	ldr	r2, [pc, #208]	@ (80011c0 <MX_TIM3_Init+0x11c>)
 80010ee:	60da      	str	r2, [r3, #12]
  htim3.Init.ClockDivision = TIM_CLOCKDIVISION_DIV1;
 80010f0:	4b31      	ldr	r3, [pc, #196]	@ (80011b8 <MX_TIM3_Init+0x114>)
 80010f2:	2200      	movs	r2, #0
 80010f4:	611a      	str	r2, [r3, #16]
  htim3.Init.AutoReloadPreload = TIM_AUTORELOAD_PRELOAD_DISABLE;
 80010f6:	4b30      	ldr	r3, [pc, #192]	@ (80011b8 <MX_TIM3_Init+0x114>)
 80010f8:	2200      	movs	r2, #0
 80010fa:	619a      	str	r2, [r3, #24]
  if (HAL_TIM_IC_Init(&htim3) != HAL_OK)
 80010fc:	4b2e      	ldr	r3, [pc, #184]	@ (80011b8 <MX_TIM3_Init+0x114>)
 80010fe:	0018      	movs	r0, r3
 8001100:	f004 f92e 	bl	8005360 <HAL_TIM_IC_Init>
 8001104:	1e03      	subs	r3, r0, #0
 8001106:	d001      	beq.n	800110c <MX_TIM3_Init+0x68>
  {
    Error_Handler();
 8001108:	f000 f9f4 	bl	80014f4 <Error_Handler>
  }
  sSlaveConfig.SlaveMode = TIM_SLAVEMODE_RESET;
 800110c:	211c      	movs	r1, #28
 800110e:	187b      	adds	r3, r7, r1
 8001110:	2204      	movs	r2, #4
 8001112:	601a      	str	r2, [r3, #0]
  sSlaveConfig.InputTrigger = TIM_TS_TI2FP2;
 8001114:	187b      	adds	r3, r7, r1
 8001116:	2260      	movs	r2, #96	@ 0x60
 8001118:	605a      	str	r2, [r3, #4]
  sSlaveConfig.TriggerPolarity = TIM_INPUTCHANNELPOLARITY_RISING;
 800111a:	187b      	adds	r3, r7, r1
 800111c:	2200      	movs	r2, #0
 800111e:	609a      	str	r2, [r3, #8]
  sSlaveConfig.TriggerPrescaler = TIM_ICPSC_DIV1;
 8001120:	187b      	adds	r3, r7, r1
 8001122:	2200      	movs	r2, #0
 8001124:	60da      	str	r2, [r3, #12]
  sSlaveConfig.TriggerFilter = 0;
 8001126:	187b      	adds	r3, r7, r1
 8001128:	2200      	movs	r2, #0
 800112a:	611a      	str	r2, [r3, #16]
  if (HAL_TIM_SlaveConfigSynchro(&htim3, &sSlaveConfig) != HAL_OK)
 800112c:	187a      	adds	r2, r7, r1
 800112e:	4b22      	ldr	r3, [pc, #136]	@ (80011b8 <MX_TIM3_Init+0x114>)
 8001130:	0011      	movs	r1, r2
 8001132:	0018      	movs	r0, r3
 8001134:	f004 fd42 	bl	8005bbc <HAL_TIM_SlaveConfigSynchro>
 8001138:	1e03      	subs	r3, r0, #0
 800113a:	d001      	beq.n	8001140 <MX_TIM3_Init+0x9c>
  {
    Error_Handler();
 800113c:	f000 f9da 	bl	80014f4 <Error_Handler>
  }
  sConfigIC.ICPolarity = TIM_INPUTCHANNELPOLARITY_FALLING;
 8001140:	210c      	movs	r1, #12
 8001142:	187b      	adds	r3, r7, r1
 8001144:	2202      	movs	r2, #2
 8001146:	601a      	str	r2, [r3, #0]
  sConfigIC.ICSelection = TIM_ICSELECTION_INDIRECTTI;
 8001148:	187b      	adds	r3, r7, r1
 800114a:	2202      	movs	r2, #2
 800114c:	605a      	str	r2, [r3, #4]
  sConfigIC.ICPrescaler = TIM_ICPSC_DIV1;
 800114e:	187b      	adds	r3, r7, r1
 8001150:	2200      	movs	r2, #0
 8001152:	609a      	str	r2, [r3, #8]
  sConfigIC.ICFilter = 0;
 8001154:	187b      	adds	r3, r7, r1
 8001156:	2200      	movs	r2, #0
 8001158:	60da      	str	r2, [r3, #12]
  if (HAL_TIM_IC_ConfigChannel(&htim3, &sConfigIC, TIM_CHANNEL_1) != HAL_OK)
 800115a:	1879      	adds	r1, r7, r1
 800115c:	4b16      	ldr	r3, [pc, #88]	@ (80011b8 <MX_TIM3_Init+0x114>)
 800115e:	2200      	movs	r2, #0
 8001160:	0018      	movs	r0, r3
 8001162:	f004 fa5d 	bl	8005620 <HAL_TIM_IC_ConfigChannel>
 8001166:	1e03      	subs	r3, r0, #0
 8001168:	d001      	beq.n	800116e <MX_TIM3_Init+0xca>
  {
    Error_Handler();
 800116a:	f000 f9c3 	bl	80014f4 <Error_Handler>
  }
  sConfigIC.ICPolarity = TIM_INPUTCHANNELPOLARITY_RISING;
 800116e:	210c      	movs	r1, #12
 8001170:	187b      	adds	r3, r7, r1
 8001172:	2200      	movs	r2, #0
 8001174:	601a      	str	r2, [r3, #0]
  sConfigIC.ICSelection = TIM_ICSELECTION_DIRECTTI;
 8001176:	187b      	adds	r3, r7, r1
 8001178:	2201      	movs	r2, #1
 800117a:	605a      	str	r2, [r3, #4]
  if (HAL_TIM_IC_ConfigChannel(&htim3, &sConfigIC, TIM_CHANNEL_2) != HAL_OK)
 800117c:	1879      	adds	r1, r7, r1
 800117e:	4b0e      	ldr	r3, [pc, #56]	@ (80011b8 <MX_TIM3_Init+0x114>)
 8001180:	2204      	movs	r2, #4
 8001182:	0018      	movs	r0, r3
 8001184:	f004 fa4c 	bl	8005620 <HAL_TIM_IC_ConfigChannel>
 8001188:	1e03      	subs	r3, r0, #0
 800118a:	d001      	beq.n	8001190 <MX_TIM3_Init+0xec>
  {
    Error_Handler();
 800118c:	f000 f9b2 	bl	80014f4 <Error_Handler>
  }
  sMasterConfig.MasterOutputTrigger = TIM_TRGO_RESET;
 8001190:	003b      	movs	r3, r7
 8001192:	2200      	movs	r2, #0
 8001194:	601a      	str	r2, [r3, #0]
  sMasterConfig.MasterSlaveMode = TIM_MASTERSLAVEMODE_DISABLE;
 8001196:	003b      	movs	r3, r7
 8001198:	2200      	movs	r2, #0
 800119a:	609a      	str	r2, [r3, #8]
  if (HAL_TIMEx_MasterConfigSynchronization(&htim3, &sMasterConfig) != HAL_OK)
 800119c:	003a      	movs	r2, r7
 800119e:	4b06      	ldr	r3, [pc, #24]	@ (80011b8 <MX_TIM3_Init+0x114>)
 80011a0:	0011      	movs	r1, r2
 80011a2:	0018      	movs	r0, r3
 80011a4:	f005 fb28 	bl	80067f8 <HAL_TIMEx_MasterConfigSynchronization>
 80011a8:	1e03      	subs	r3, r0, #0
 80011aa:	d001      	beq.n	80011b0 <MX_TIM3_Init+0x10c>
  {
    Error_Handler();
 80011ac:	f000 f9a2 	bl	80014f4 <Error_Handler>
  }
  /* USER CODE BEGIN TIM3_Init 2 */

  /* USER CODE END TIM3_Init 2 */

}
 80011b0:	46c0      	nop			@ (mov r8, r8)
 80011b2:	46bd      	mov	sp, r7
 80011b4:	b00c      	add	sp, #48	@ 0x30
 80011b6:	bd80      	pop	{r7, pc}
 80011b8:	20000218 	.word	0x20000218
 80011bc:	40000400 	.word	0x40000400
 80011c0:	0000ffff 	.word	0x0000ffff

080011c4 <MX_TIM6_Init>:
  * @brief TIM6 Initialization Function
  * @param None
  * @retval None
  */
static void MX_TIM6_Init(void)
{
 80011c4:	b580      	push	{r7, lr}
 80011c6:	b084      	sub	sp, #16
 80011c8:	af00      	add	r7, sp, #0

  /* USER CODE BEGIN TIM6_Init 0 */

  /* USER CODE END TIM6_Init 0 */

  TIM_MasterConfigTypeDef sMasterConfig = {0};
 80011ca:	1d3b      	adds	r3, r7, #4
 80011cc:	0018      	movs	r0, r3
 80011ce:	230c      	movs	r3, #12
 80011d0:	001a      	movs	r2, r3
 80011d2:	2100      	movs	r1, #0
 80011d4:	f006 fa94 	bl	8007700 <memset>

  /* USER CODE BEGIN TIM6_Init 1 */

  /* USER CODE END TIM6_Init 1 */
  htim6.Instance = TIM6;
 80011d8:	4b15      	ldr	r3, [pc, #84]	@ (8001230 <MX_TIM6_Init+0x6c>)
 80011da:	4a16      	ldr	r2, [pc, #88]	@ (8001234 <MX_TIM6_Init+0x70>)
 80011dc:	601a      	str	r2, [r3, #0]
  htim6.Init.Prescaler = 16;
 80011de:	4b14      	ldr	r3, [pc, #80]	@ (8001230 <MX_TIM6_Init+0x6c>)
 80011e0:	2210      	movs	r2, #16
 80011e2:	605a      	str	r2, [r3, #4]
  htim6.Init.CounterMode = TIM_COUNTERMODE_UP;
 80011e4:	4b12      	ldr	r3, [pc, #72]	@ (8001230 <MX_TIM6_Init+0x6c>)
 80011e6:	2200      	movs	r2, #0
 80011e8:	609a      	str	r2, [r3, #8]
  htim6.Init.Period = 1000;
 80011ea:	4b11      	ldr	r3, [pc, #68]	@ (8001230 <MX_TIM6_Init+0x6c>)
 80011ec:	22fa      	movs	r2, #250	@ 0xfa
 80011ee:	0092      	lsls	r2, r2, #2
 80011f0:	60da      	str	r2, [r3, #12]
  htim6.Init.AutoReloadPreload = TIM_AUTORELOAD_PRELOAD_DISABLE;
 80011f2:	4b0f      	ldr	r3, [pc, #60]	@ (8001230 <MX_TIM6_Init+0x6c>)
 80011f4:	2200      	movs	r2, #0
 80011f6:	619a      	str	r2, [r3, #24]
  if (HAL_TIM_Base_Init(&htim6) != HAL_OK)
 80011f8:	4b0d      	ldr	r3, [pc, #52]	@ (8001230 <MX_TIM6_Init+0x6c>)
 80011fa:	0018      	movs	r0, r3
 80011fc:	f003 feba 	bl	8004f74 <HAL_TIM_Base_Init>
 8001200:	1e03      	subs	r3, r0, #0
 8001202:	d001      	beq.n	8001208 <MX_TIM6_Init+0x44>
  {
    Error_Handler();
 8001204:	f000 f976 	bl	80014f4 <Error_Handler>
  }
  sMasterConfig.MasterOutputTrigger = TIM_TRGO_UPDATE;
 8001208:	1d3b      	adds	r3, r7, #4
 800120a:	2220      	movs	r2, #32
 800120c:	601a      	str	r2, [r3, #0]
  sMasterConfig.MasterSlaveMode = TIM_MASTERSLAVEMODE_DISABLE;
 800120e:	1d3b      	adds	r3, r7, #4
 8001210:	2200      	movs	r2, #0
 8001212:	609a      	str	r2, [r3, #8]
  if (HAL_TIMEx_MasterConfigSynchronization(&htim6, &sMasterConfig) != HAL_OK)
 8001214:	1d3a      	adds	r2, r7, #4
 8001216:	4b06      	ldr	r3, [pc, #24]	@ (8001230 <MX_TIM6_Init+0x6c>)
 8001218:	0011      	movs	r1, r2
 800121a:	0018      	movs	r0, r3
 800121c:	f005 faec 	bl	80067f8 <HAL_TIMEx_MasterConfigSynchronization>
 8001220:	1e03      	subs	r3, r0, #0
 8001222:	d001      	beq.n	8001228 <MX_TIM6_Init+0x64>
  {
    Error_Handler();
 8001224:	f000 f966 	bl	80014f4 <Error_Handler>
  }
  /* USER CODE BEGIN TIM6_Init 2 */

  /* USER CODE END TIM6_Init 2 */

}
 8001228:	46c0      	nop			@ (mov r8, r8)
 800122a:	46bd      	mov	sp, r7
 800122c:	b004      	add	sp, #16
 800122e:	bd80      	pop	{r7, pc}
 8001230:	20000264 	.word	0x20000264
 8001234:	40001000 	.word	0x40001000

08001238 <MX_TIM16_Init>:
  * @brief TIM16 Initialization Function
  * @param None
  * @retval None
  */
static void MX_TIM16_Init(void)
{
 8001238:	b580      	push	{r7, lr}
 800123a:	b084      	sub	sp, #16
 800123c:	af00      	add	r7, sp, #0

  /* USER CODE BEGIN TIM16_Init 0 */

  /* USER CODE END TIM16_Init 0 */

  TIM_IC_InitTypeDef sConfigIC = {0};
 800123e:	003b      	movs	r3, r7
 8001240:	0018      	movs	r0, r3
 8001242:	2310      	movs	r3, #16
 8001244:	001a      	movs	r2, r3
 8001246:	2100      	movs	r1, #0
 8001248:	f006 fa5a 	bl	8007700 <memset>

  /* USER CODE BEGIN TIM16_Init 1 */

  /* USER CODE END TIM16_Init 1 */
  htim16.Instance = TIM16;
 800124c:	4b1f      	ldr	r3, [pc, #124]	@ (80012cc <MX_TIM16_Init+0x94>)
 800124e:	4a20      	ldr	r2, [pc, #128]	@ (80012d0 <MX_TIM16_Init+0x98>)
 8001250:	601a      	str	r2, [r3, #0]
  htim16.Init.Prescaler = 0;
 8001252:	4b1e      	ldr	r3, [pc, #120]	@ (80012cc <MX_TIM16_Init+0x94>)
 8001254:	2200      	movs	r2, #0
 8001256:	605a      	str	r2, [r3, #4]
  htim16.Init.CounterMode = TIM_COUNTERMODE_UP;
 8001258:	4b1c      	ldr	r3, [pc, #112]	@ (80012cc <MX_TIM16_Init+0x94>)
 800125a:	2200      	movs	r2, #0
 800125c:	609a      	str	r2, [r3, #8]
  htim16.Init.Period = 65535;
 800125e:	4b1b      	ldr	r3, [pc, #108]	@ (80012cc <MX_TIM16_Init+0x94>)
 8001260:	4a1c      	ldr	r2, [pc, #112]	@ (80012d4 <MX_TIM16_Init+0x9c>)
 8001262:	60da      	str	r2, [r3, #12]
  htim16.Init.ClockDivision = TIM_CLOCKDIVISION_DIV1;
 8001264:	4b19      	ldr	r3, [pc, #100]	@ (80012cc <MX_TIM16_Init+0x94>)
 8001266:	2200      	movs	r2, #0
 8001268:	611a      	str	r2, [r3, #16]
  htim16.Init.RepetitionCounter = 0;
 800126a:	4b18      	ldr	r3, [pc, #96]	@ (80012cc <MX_TIM16_Init+0x94>)
 800126c:	2200      	movs	r2, #0
 800126e:	615a      	str	r2, [r3, #20]
  htim16.Init.AutoReloadPreload = TIM_AUTORELOAD_PRELOAD_DISABLE;
 8001270:	4b16      	ldr	r3, [pc, #88]	@ (80012cc <MX_TIM16_Init+0x94>)
 8001272:	2200      	movs	r2, #0
 8001274:	619a      	str	r2, [r3, #24]
  if (HAL_TIM_Base_Init(&htim16) != HAL_OK)
 8001276:	4b15      	ldr	r3, [pc, #84]	@ (80012cc <MX_TIM16_Init+0x94>)
 8001278:	0018      	movs	r0, r3
 800127a:	f003 fe7b 	bl	8004f74 <HAL_TIM_Base_Init>
 800127e:	1e03      	subs	r3, r0, #0
 8001280:	d001      	beq.n	8001286 <MX_TIM16_Init+0x4e>
  {
    Error_Handler();
 8001282:	f000 f937 	bl	80014f4 <Error_Handler>
  }
  if (HAL_TIM_IC_Init(&htim16) != HAL_OK)
 8001286:	4b11      	ldr	r3, [pc, #68]	@ (80012cc <MX_TIM16_Init+0x94>)
 8001288:	0018      	movs	r0, r3
 800128a:	f004 f869 	bl	8005360 <HAL_TIM_IC_Init>
 800128e:	1e03      	subs	r3, r0, #0
 8001290:	d001      	beq.n	8001296 <MX_TIM16_Init+0x5e>
  {
    Error_Handler();
 8001292:	f000 f92f 	bl	80014f4 <Error_Handler>
  }
  sConfigIC.ICPolarity = TIM_INPUTCHANNELPOLARITY_BOTHEDGE;
 8001296:	003b      	movs	r3, r7
 8001298:	220a      	movs	r2, #10
 800129a:	601a      	str	r2, [r3, #0]
  sConfigIC.ICSelection = TIM_ICSELECTION_DIRECTTI;
 800129c:	003b      	movs	r3, r7
 800129e:	2201      	movs	r2, #1
 80012a0:	605a      	str	r2, [r3, #4]
  sConfigIC.ICPrescaler = TIM_ICPSC_DIV1;
 80012a2:	003b      	movs	r3, r7
 80012a4:	2200      	movs	r2, #0
 80012a6:	609a      	str	r2, [r3, #8]
  sConfigIC.ICFilter = 0;
 80012a8:	003b      	movs	r3, r7
 80012aa:	2200      	movs	r2, #0
 80012ac:	60da      	str	r2, [r3, #12]
  if (HAL_TIM_IC_ConfigChannel(&htim16, &sConfigIC, TIM_CHANNEL_1) != HAL_OK)
 80012ae:	0039      	movs	r1, r7
 80012b0:	4b06      	ldr	r3, [pc, #24]	@ (80012cc <MX_TIM16_Init+0x94>)
 80012b2:	2200      	movs	r2, #0
 80012b4:	0018      	movs	r0, r3
 80012b6:	f004 f9b3 	bl	8005620 <HAL_TIM_IC_ConfigChannel>
 80012ba:	1e03      	subs	r3, r0, #0
 80012bc:	d001      	beq.n	80012c2 <MX_TIM16_Init+0x8a>
  {
    Error_Handler();
 80012be:	f000 f919 	bl	80014f4 <Error_Handler>
  }
  /* USER CODE BEGIN TIM16_Init 2 */

  /* USER CODE END TIM16_Init 2 */

}
 80012c2:	46c0      	nop			@ (mov r8, r8)
 80012c4:	46bd      	mov	sp, r7
 80012c6:	b004      	add	sp, #16
 80012c8:	bd80      	pop	{r7, pc}
 80012ca:	46c0      	nop			@ (mov r8, r8)
 80012cc:	200002b0 	.word	0x200002b0
 80012d0:	40014400 	.word	0x40014400
 80012d4:	0000ffff 	.word	0x0000ffff

080012d8 <MX_USART2_UART_Init>:
  * @brief USART2 Initialization Function
  * @param None
  * @retval None
  */
static void MX_USART2_UART_Init(void)
{
 80012d8:	b580      	push	{r7, lr}
 80012da:	af00      	add	r7, sp, #0
  /* USER CODE END USART2_Init 0 */

  /* USER CODE BEGIN USART2_Init 1 */

  /* USER CODE END USART2_Init 1 */
  huart2.Instance = USART2;
 80012dc:	4b23      	ldr	r3, [pc, #140]	@ (800136c <MX_USART2_UART_Init+0x94>)
 80012de:	4a24      	ldr	r2, [pc, #144]	@ (8001370 <MX_USART2_UART_Init+0x98>)
 80012e0:	601a      	str	r2, [r3, #0]
  huart2.Init.BaudRate = 115200;
 80012e2:	4b22      	ldr	r3, [pc, #136]	@ (800136c <MX_USART2_UART_Init+0x94>)
 80012e4:	22e1      	movs	r2, #225	@ 0xe1
 80012e6:	0252      	lsls	r2, r2, #9
 80012e8:	605a      	str	r2, [r3, #4]
  huart2.Init.WordLength = UART_WORDLENGTH_8B;
 80012ea:	4b20      	ldr	r3, [pc, #128]	@ (800136c <MX_USART2_UART_Init+0x94>)
 80012ec:	2200      	movs	r2, #0
 80012ee:	609a      	str	r2, [r3, #8]
  huart2.Init.StopBits = UART_STOPBITS_1;
 80012f0:	4b1e      	ldr	r3, [pc, #120]	@ (800136c <MX_USART2_UART_Init+0x94>)
 80012f2:	2200      	movs	r2, #0
 80012f4:	60da      	str	r2, [r3, #12]
  huart2.Init.Parity = UART_PARITY_NONE;
 80012f6:	4b1d      	ldr	r3, [pc, #116]	@ (800136c <MX_USART2_UART_Init+0x94>)
 80012f8:	2200      	movs	r2, #0
 80012fa:	611a      	str	r2, [r3, #16]
  huart2.Init.Mode = UART_MODE_TX_RX;
 80012fc:	4b1b      	ldr	r3, [pc, #108]	@ (800136c <MX_USART2_UART_Init+0x94>)
 80012fe:	220c      	movs	r2, #12
 8001300:	615a      	str	r2, [r3, #20]
  huart2.Init.HwFlowCtl = UART_HWCONTROL_NONE;
 8001302:	4b1a      	ldr	r3, [pc, #104]	@ (800136c <MX_USART2_UART_Init+0x94>)
 8001304:	2200      	movs	r2, #0
 8001306:	619a      	str	r2, [r3, #24]
  huart2.Init.OverSampling = UART_OVERSAMPLING_16;
 8001308:	4b18      	ldr	r3, [pc, #96]	@ (800136c <MX_USART2_UART_Init+0x94>)
 800130a:	2200      	movs	r2, #0
 800130c:	61da      	str	r2, [r3, #28]
  huart2.Init.OneBitSampling = UART_ONE_BIT_SAMPLE_DISABLE;
 800130e:	4b17      	ldr	r3, [pc, #92]	@ (800136c <MX_USART2_UART_Init+0x94>)
 8001310:	2200      	movs	r2, #0
 8001312:	621a      	str	r2, [r3, #32]
  huart2.Init.ClockPrescaler = UART_PRESCALER_DIV1;
 8001314:	4b15      	ldr	r3, [pc, #84]	@ (800136c <MX_USART2_UART_Init+0x94>)
 8001316:	2200      	movs	r2, #0
 8001318:	625a      	str	r2, [r3, #36]	@ 0x24
  huart2.AdvancedInit.AdvFeatureInit = UART_ADVFEATURE_NO_INIT;
 800131a:	4b14      	ldr	r3, [pc, #80]	@ (800136c <MX_USART2_UART_Init+0x94>)
 800131c:	2200      	movs	r2, #0
 800131e:	629a      	str	r2, [r3, #40]	@ 0x28
  if (HAL_UART_Init(&huart2) != HAL_OK)
 8001320:	4b12      	ldr	r3, [pc, #72]	@ (800136c <MX_USART2_UART_Init+0x94>)
 8001322:	0018      	movs	r0, r3
 8001324:	f005 fb8a 	bl	8006a3c <HAL_UART_Init>
 8001328:	1e03      	subs	r3, r0, #0
 800132a:	d001      	beq.n	8001330 <MX_USART2_UART_Init+0x58>
  {
    Error_Handler();
 800132c:	f000 f8e2 	bl	80014f4 <Error_Handler>
  }
  if (HAL_UARTEx_SetTxFifoThreshold(&huart2, UART_TXFIFO_THRESHOLD_1_8) != HAL_OK)
 8001330:	4b0e      	ldr	r3, [pc, #56]	@ (800136c <MX_USART2_UART_Init+0x94>)
 8001332:	2100      	movs	r1, #0
 8001334:	0018      	movs	r0, r3
 8001336:	f006 f903 	bl	8007540 <HAL_UARTEx_SetTxFifoThreshold>
 800133a:	1e03      	subs	r3, r0, #0
 800133c:	d001      	beq.n	8001342 <MX_USART2_UART_Init+0x6a>
  {
    Error_Handler();
 800133e:	f000 f8d9 	bl	80014f4 <Error_Handler>
  }
  if (HAL_UARTEx_SetRxFifoThreshold(&huart2, UART_RXFIFO_THRESHOLD_1_8) != HAL_OK)
 8001342:	4b0a      	ldr	r3, [pc, #40]	@ (800136c <MX_USART2_UART_Init+0x94>)
 8001344:	2100      	movs	r1, #0
 8001346:	0018      	movs	r0, r3
 8001348:	f006 f93a 	bl	80075c0 <HAL_UARTEx_SetRxFifoThreshold>
 800134c:	1e03      	subs	r3, r0, #0
 800134e:	d001      	beq.n	8001354 <MX_USART2_UART_Init+0x7c>
  {
    Error_Handler();
 8001350:	f000 f8d0 	bl	80014f4 <Error_Handler>
  }
  if (HAL_UARTEx_DisableFifoMode(&huart2) != HAL_OK)
 8001354:	4b05      	ldr	r3, [pc, #20]	@ (800136c <MX_USART2_UART_Init+0x94>)
 8001356:	0018      	movs	r0, r3
 8001358:	f006 f8b8 	bl	80074cc <HAL_UARTEx_DisableFifoMode>
 800135c:	1e03      	subs	r3, r0, #0
 800135e:	d001      	beq.n	8001364 <MX_USART2_UART_Init+0x8c>
  {
    Error_Handler();
 8001360:	f000 f8c8 	bl	80014f4 <Error_Handler>
  }
  /* USER CODE BEGIN USART2_Init 2 */

  /* USER CODE END USART2_Init 2 */

}
 8001364:	46c0      	nop			@ (mov r8, r8)
 8001366:	46bd      	mov	sp, r7
 8001368:	bd80      	pop	{r7, pc}
 800136a:	46c0      	nop			@ (mov r8, r8)
 800136c:	200002fc 	.word	0x200002fc
 8001370:	40004400 	.word	0x40004400

08001374 <MX_DMA_Init>:

/**
  * Enable DMA controller clock
  */
static void MX_DMA_Init(void)
{
 8001374:	b580      	push	{r7, lr}
 8001376:	b082      	sub	sp, #8
 8001378:	af00      	add	r7, sp, #0

  /* DMA controller clock enable */
  __HAL_RCC_DMA1_CLK_ENABLE();
 800137a:	4b08      	ldr	r3, [pc, #32]	@ (800139c <MX_DMA_Init+0x28>)
 800137c:	6b9a      	ldr	r2, [r3, #56]	@ 0x38
 800137e:	4b07      	ldr	r3, [pc, #28]	@ (800139c <MX_DMA_Init+0x28>)
 8001380:	2101      	movs	r1, #1
 8001382:	430a      	orrs	r2, r1
 8001384:	639a      	str	r2, [r3, #56]	@ 0x38
 8001386:	4b05      	ldr	r3, [pc, #20]	@ (800139c <MX_DMA_Init+0x28>)
 8001388:	6b9b      	ldr	r3, [r3, #56]	@ 0x38
 800138a:	2201      	movs	r2, #1
 800138c:	4013      	ands	r3, r2
 800138e:	607b      	str	r3, [r7, #4]
 8001390:	687b      	ldr	r3, [r7, #4]

}
 8001392:	46c0      	nop			@ (mov r8, r8)
 8001394:	46bd      	mov	sp, r7
 8001396:	b002      	add	sp, #8
 8001398:	bd80      	pop	{r7, pc}
 800139a:	46c0      	nop			@ (mov r8, r8)
 800139c:	40021000 	.word	0x40021000

080013a0 <MX_GPIO_Init>:
  * @brief GPIO Initialization Function
  * @param None
  * @retval None
  */
static void MX_GPIO_Init(void)
{
 80013a0:	b590      	push	{r4, r7, lr}
 80013a2:	b089      	sub	sp, #36	@ 0x24
 80013a4:	af00      	add	r7, sp, #0
  GPIO_InitTypeDef GPIO_InitStruct = {0};
 80013a6:	240c      	movs	r4, #12
 80013a8:	193b      	adds	r3, r7, r4
 80013aa:	0018      	movs	r0, r3
 80013ac:	2314      	movs	r3, #20
 80013ae:	001a      	movs	r2, r3
 80013b0:	2100      	movs	r1, #0
 80013b2:	f006 f9a5 	bl	8007700 <memset>
  /* USER CODE BEGIN MX_GPIO_Init_1 */

  /* USER CODE END MX_GPIO_Init_1 */

  /* GPIO Ports Clock Enable */
  __HAL_RCC_GPIOB_CLK_ENABLE();
 80013b6:	4b4c      	ldr	r3, [pc, #304]	@ (80014e8 <MX_GPIO_Init+0x148>)
 80013b8:	6b5a      	ldr	r2, [r3, #52]	@ 0x34
 80013ba:	4b4b      	ldr	r3, [pc, #300]	@ (80014e8 <MX_GPIO_Init+0x148>)
 80013bc:	2102      	movs	r1, #2
 80013be:	430a      	orrs	r2, r1
 80013c0:	635a      	str	r2, [r3, #52]	@ 0x34
 80013c2:	4b49      	ldr	r3, [pc, #292]	@ (80014e8 <MX_GPIO_Init+0x148>)
 80013c4:	6b5b      	ldr	r3, [r3, #52]	@ 0x34
 80013c6:	2202      	movs	r2, #2
 80013c8:	4013      	ands	r3, r2
 80013ca:	60bb      	str	r3, [r7, #8]
 80013cc:	68bb      	ldr	r3, [r7, #8]
  __HAL_RCC_GPIOC_CLK_ENABLE();
 80013ce:	4b46      	ldr	r3, [pc, #280]	@ (80014e8 <MX_GPIO_Init+0x148>)
 80013d0:	6b5a      	ldr	r2, [r3, #52]	@ 0x34
 80013d2:	4b45      	ldr	r3, [pc, #276]	@ (80014e8 <MX_GPIO_Init+0x148>)
 80013d4:	2104      	movs	r1, #4
 80013d6:	430a      	orrs	r2, r1
 80013d8:	635a      	str	r2, [r3, #52]	@ 0x34
 80013da:	4b43      	ldr	r3, [pc, #268]	@ (80014e8 <MX_GPIO_Init+0x148>)
 80013dc:	6b5b      	ldr	r3, [r3, #52]	@ 0x34
 80013de:	2204      	movs	r2, #4
 80013e0:	4013      	ands	r3, r2
 80013e2:	607b      	str	r3, [r7, #4]
 80013e4:	687b      	ldr	r3, [r7, #4]
  __HAL_RCC_GPIOA_CLK_ENABLE();
 80013e6:	4b40      	ldr	r3, [pc, #256]	@ (80014e8 <MX_GPIO_Init+0x148>)
 80013e8:	6b5a      	ldr	r2, [r3, #52]	@ 0x34
 80013ea:	4b3f      	ldr	r3, [pc, #252]	@ (80014e8 <MX_GPIO_Init+0x148>)
 80013ec:	2101      	movs	r1, #1
 80013ee:	430a      	orrs	r2, r1
 80013f0:	635a      	str	r2, [r3, #52]	@ 0x34
 80013f2:	4b3d      	ldr	r3, [pc, #244]	@ (80014e8 <MX_GPIO_Init+0x148>)
 80013f4:	6b5b      	ldr	r3, [r3, #52]	@ 0x34
 80013f6:	2201      	movs	r2, #1
 80013f8:	4013      	ands	r3, r2
 80013fa:	603b      	str	r3, [r7, #0]
 80013fc:	683b      	ldr	r3, [r7, #0]

  /*Configure GPIO pin Output Level */
  HAL_GPIO_WritePin(LED_GPIO_Port, LED_Pin, GPIO_PIN_RESET);
 80013fe:	2380      	movs	r3, #128	@ 0x80
 8001400:	021b      	lsls	r3, r3, #8
 8001402:	483a      	ldr	r0, [pc, #232]	@ (80014ec <MX_GPIO_Init+0x14c>)
 8001404:	2200      	movs	r2, #0
 8001406:	0019      	movs	r1, r3
 8001408:	f002 feb3 	bl	8004172 <HAL_GPIO_WritePin>

  /*Configure GPIO pin Output Level */
  HAL_GPIO_WritePin(Status_GPIO_Port, Status_Pin, GPIO_PIN_RESET);
 800140c:	23a0      	movs	r3, #160	@ 0xa0
 800140e:	05db      	lsls	r3, r3, #23
 8001410:	2200      	movs	r2, #0
 8001412:	2180      	movs	r1, #128	@ 0x80
 8001414:	0018      	movs	r0, r3
 8001416:	f002 feac 	bl	8004172 <HAL_GPIO_WritePin>

  /*Configure GPIO pin Output Level */
  HAL_GPIO_WritePin(UV_LED_GPIO_Port, UV_LED_Pin, GPIO_PIN_RESET);
 800141a:	4b35      	ldr	r3, [pc, #212]	@ (80014f0 <MX_GPIO_Init+0x150>)
 800141c:	2200      	movs	r2, #0
 800141e:	2140      	movs	r1, #64	@ 0x40
 8001420:	0018      	movs	r0, r3
 8001422:	f002 fea6 	bl	8004172 <HAL_GPIO_WritePin>

  /*Configure GPIO pin : MCU_Remote_Pin */
  GPIO_InitStruct.Pin = MCU_Remote_Pin;
 8001426:	193b      	adds	r3, r7, r4
 8001428:	2280      	movs	r2, #128	@ 0x80
 800142a:	0092      	lsls	r2, r2, #2
 800142c:	601a      	str	r2, [r3, #0]
  GPIO_InitStruct.Mode = GPIO_MODE_INPUT;
 800142e:	193b      	adds	r3, r7, r4
 8001430:	2200      	movs	r2, #0
 8001432:	605a      	str	r2, [r3, #4]
  GPIO_InitStruct.Pull = GPIO_PULLUP;
 8001434:	193b      	adds	r3, r7, r4
 8001436:	2201      	movs	r2, #1
 8001438:	609a      	str	r2, [r3, #8]
  HAL_GPIO_Init(MCU_Remote_GPIO_Port, &GPIO_InitStruct);
 800143a:	193b      	adds	r3, r7, r4
 800143c:	4a2c      	ldr	r2, [pc, #176]	@ (80014f0 <MX_GPIO_Init+0x150>)
 800143e:	0019      	movs	r1, r3
 8001440:	0010      	movs	r0, r2
 8001442:	f002 fd15 	bl	8003e70 <HAL_GPIO_Init>

  /*Configure GPIO pin : LED_Pin */
  GPIO_InitStruct.Pin = LED_Pin;
 8001446:	0021      	movs	r1, r4
 8001448:	187b      	adds	r3, r7, r1
 800144a:	2280      	movs	r2, #128	@ 0x80
 800144c:	0212      	lsls	r2, r2, #8
 800144e:	601a      	str	r2, [r3, #0]
  GPIO_InitStruct.Mode = GPIO_MODE_OUTPUT_PP;
 8001450:	000c      	movs	r4, r1
 8001452:	193b      	adds	r3, r7, r4
 8001454:	2201      	movs	r2, #1
 8001456:	605a      	str	r2, [r3, #4]
  GPIO_InitStruct.Pull = GPIO_NOPULL;
 8001458:	193b      	adds	r3, r7, r4
 800145a:	2200      	movs	r2, #0
 800145c:	609a      	str	r2, [r3, #8]
  GPIO_InitStruct.Speed = GPIO_SPEED_FREQ_LOW;
 800145e:	193b      	adds	r3, r7, r4
 8001460:	2200      	movs	r2, #0
 8001462:	60da      	str	r2, [r3, #12]
  HAL_GPIO_Init(LED_GPIO_Port, &GPIO_InitStruct);
 8001464:	193b      	adds	r3, r7, r4
 8001466:	4a21      	ldr	r2, [pc, #132]	@ (80014ec <MX_GPIO_Init+0x14c>)
 8001468:	0019      	movs	r1, r3
 800146a:	0010      	movs	r0, r2
 800146c:	f002 fd00 	bl	8003e70 <HAL_GPIO_Init>

  /*Configure GPIO pin : Status_Pin */
  GPIO_InitStruct.Pin = Status_Pin;
 8001470:	193b      	adds	r3, r7, r4
 8001472:	2280      	movs	r2, #128	@ 0x80
 8001474:	601a      	str	r2, [r3, #0]
  GPIO_InitStruct.Mode = GPIO_MODE_OUTPUT_PP;
 8001476:	193b      	adds	r3, r7, r4
 8001478:	2201      	movs	r2, #1
 800147a:	605a      	str	r2, [r3, #4]
  GPIO_InitStruct.Pull = GPIO_NOPULL;
 800147c:	193b      	adds	r3, r7, r4
 800147e:	2200      	movs	r2, #0
 8001480:	609a      	str	r2, [r3, #8]
  GPIO_InitStruct.Speed = GPIO_SPEED_FREQ_LOW;
 8001482:	193b      	adds	r3, r7, r4
 8001484:	2200      	movs	r2, #0
 8001486:	60da      	str	r2, [r3, #12]
  HAL_GPIO_Init(Status_GPIO_Port, &GPIO_InitStruct);
 8001488:	193a      	adds	r2, r7, r4
 800148a:	23a0      	movs	r3, #160	@ 0xa0
 800148c:	05db      	lsls	r3, r3, #23
 800148e:	0011      	movs	r1, r2
 8001490:	0018      	movs	r0, r3
 8001492:	f002 fced 	bl	8003e70 <HAL_GPIO_Init>

  /*Configure GPIO pin : GPIO_IN_ALIVE_Pin */
  GPIO_InitStruct.Pin = GPIO_IN_ALIVE_Pin;
 8001496:	193b      	adds	r3, r7, r4
 8001498:	2280      	movs	r2, #128	@ 0x80
 800149a:	0092      	lsls	r2, r2, #2
 800149c:	601a      	str	r2, [r3, #0]
  GPIO_InitStruct.Mode = GPIO_MODE_INPUT;
 800149e:	193b      	adds	r3, r7, r4
 80014a0:	2200      	movs	r2, #0
 80014a2:	605a      	str	r2, [r3, #4]
  GPIO_InitStruct.Pull = GPIO_NOPULL;
 80014a4:	193b      	adds	r3, r7, r4
 80014a6:	2200      	movs	r2, #0
 80014a8:	609a      	str	r2, [r3, #8]
  HAL_GPIO_Init(GPIO_IN_ALIVE_GPIO_Port, &GPIO_InitStruct);
 80014aa:	193a      	adds	r2, r7, r4
 80014ac:	23a0      	movs	r3, #160	@ 0xa0
 80014ae:	05db      	lsls	r3, r3, #23
 80014b0:	0011      	movs	r1, r2
 80014b2:	0018      	movs	r0, r3
 80014b4:	f002 fcdc 	bl	8003e70 <HAL_GPIO_Init>

  /*Configure GPIO pin : UV_LED_Pin */
  GPIO_InitStruct.Pin = UV_LED_Pin;
 80014b8:	0021      	movs	r1, r4
 80014ba:	187b      	adds	r3, r7, r1
 80014bc:	2240      	movs	r2, #64	@ 0x40
 80014be:	601a      	str	r2, [r3, #0]
  GPIO_InitStruct.Mode = GPIO_MODE_OUTPUT_PP;
 80014c0:	187b      	adds	r3, r7, r1
 80014c2:	2201      	movs	r2, #1
 80014c4:	605a      	str	r2, [r3, #4]
  GPIO_InitStruct.Pull = GPIO_NOPULL;
 80014c6:	187b      	adds	r3, r7, r1
 80014c8:	2200      	movs	r2, #0
 80014ca:	609a      	str	r2, [r3, #8]
  GPIO_InitStruct.Speed = GPIO_SPEED_FREQ_LOW;
 80014cc:	187b      	adds	r3, r7, r1
 80014ce:	2200      	movs	r2, #0
 80014d0:	60da      	str	r2, [r3, #12]
  HAL_GPIO_Init(UV_LED_GPIO_Port, &GPIO_InitStruct);
 80014d2:	187b      	adds	r3, r7, r1
 80014d4:	4a06      	ldr	r2, [pc, #24]	@ (80014f0 <MX_GPIO_Init+0x150>)
 80014d6:	0019      	movs	r1, r3
 80014d8:	0010      	movs	r0, r2
 80014da:	f002 fcc9 	bl	8003e70 <HAL_GPIO_Init>

  /* USER CODE BEGIN MX_GPIO_Init_2 */

  /* USER CODE END MX_GPIO_Init_2 */
}
 80014de:	46c0      	nop			@ (mov r8, r8)
 80014e0:	46bd      	mov	sp, r7
 80014e2:	b009      	add	sp, #36	@ 0x24
 80014e4:	bd90      	pop	{r4, r7, pc}
 80014e6:	46c0      	nop			@ (mov r8, r8)
 80014e8:	40021000 	.word	0x40021000
 80014ec:	50000800 	.word	0x50000800
 80014f0:	50000400 	.word	0x50000400

080014f4 <Error_Handler>:
/**
  * @brief  This function is executed in case of error occurrence.
  * @retval None
  */
void Error_Handler(void)
{
 80014f4:	b580      	push	{r7, lr}
 80014f6:	af00      	add	r7, sp, #0
  \details Disables IRQ interrupts by setting the I-bit in the CPSR.
           Can only be executed in Privileged modes.
 */
__STATIC_FORCEINLINE void __disable_irq(void)
{
  __ASM volatile ("cpsid i" : : : "memory");
 80014f8:	b672      	cpsid	i
}
 80014fa:	46c0      	nop			@ (mov r8, r8)
  /* USER CODE BEGIN Error_Handler_Debug */
	/* User can add his own implementation to report the HAL error return state */
	__disable_irq();
	while (1)
	{
		HAL_GPIO_TogglePin(GPIOC, GPIO_PIN_15);
 80014fc:	2380      	movs	r3, #128	@ 0x80
 80014fe:	021b      	lsls	r3, r3, #8
 8001500:	4a05      	ldr	r2, [pc, #20]	@ (8001518 <Error_Handler+0x24>)
 8001502:	0019      	movs	r1, r3
 8001504:	0010      	movs	r0, r2
 8001506:	f002 fe51 	bl	80041ac <HAL_GPIO_TogglePin>
		HAL_Delay(500);
 800150a:	23fa      	movs	r3, #250	@ 0xfa
 800150c:	005b      	lsls	r3, r3, #1
 800150e:	0018      	movs	r0, r3
 8001510:	f000 fcee 	bl	8001ef0 <HAL_Delay>
		HAL_GPIO_TogglePin(GPIOC, GPIO_PIN_15);
 8001514:	46c0      	nop			@ (mov r8, r8)
 8001516:	e7f1      	b.n	80014fc <Error_Handler+0x8>
 8001518:	50000800 	.word	0x50000800

0800151c <HAL_MspInit>:
void HAL_TIM_MspPostInit(TIM_HandleTypeDef *htim);
                                        /**
  * Initializes the Global MSP.
  */
void HAL_MspInit(void)
{
 800151c:	b580      	push	{r7, lr}
 800151e:	b082      	sub	sp, #8
 8001520:	af00      	add	r7, sp, #0

  /* USER CODE BEGIN MspInit 0 */

  /* USER CODE END MspInit 0 */

  __HAL_RCC_SYSCFG_CLK_ENABLE();
 8001522:	4b0f      	ldr	r3, [pc, #60]	@ (8001560 <HAL_MspInit+0x44>)
 8001524:	6c1a      	ldr	r2, [r3, #64]	@ 0x40
 8001526:	4b0e      	ldr	r3, [pc, #56]	@ (8001560 <HAL_MspInit+0x44>)
 8001528:	2101      	movs	r1, #1
 800152a:	430a      	orrs	r2, r1
 800152c:	641a      	str	r2, [r3, #64]	@ 0x40
 800152e:	4b0c      	ldr	r3, [pc, #48]	@ (8001560 <HAL_MspInit+0x44>)
 8001530:	6c1b      	ldr	r3, [r3, #64]	@ 0x40
 8001532:	2201      	movs	r2, #1
 8001534:	4013      	ands	r3, r2
 8001536:	607b      	str	r3, [r7, #4]
 8001538:	687b      	ldr	r3, [r7, #4]
  __HAL_RCC_PWR_CLK_ENABLE();
 800153a:	4b09      	ldr	r3, [pc, #36]	@ (8001560 <HAL_MspInit+0x44>)
 800153c:	6bda      	ldr	r2, [r3, #60]	@ 0x3c
 800153e:	4b08      	ldr	r3, [pc, #32]	@ (8001560 <HAL_MspInit+0x44>)
 8001540:	2180      	movs	r1, #128	@ 0x80
 8001542:	0549      	lsls	r1, r1, #21
 8001544:	430a      	orrs	r2, r1
 8001546:	63da      	str	r2, [r3, #60]	@ 0x3c
 8001548:	4b05      	ldr	r3, [pc, #20]	@ (8001560 <HAL_MspInit+0x44>)
 800154a:	6bda      	ldr	r2, [r3, #60]	@ 0x3c
 800154c:	2380      	movs	r3, #128	@ 0x80
 800154e:	055b      	lsls	r3, r3, #21
 8001550:	4013      	ands	r3, r2
 8001552:	603b      	str	r3, [r7, #0]
 8001554:	683b      	ldr	r3, [r7, #0]
  /* System interrupt init*/

  /* USER CODE BEGIN MspInit 1 */

  /* USER CODE END MspInit 1 */
}
 8001556:	46c0      	nop			@ (mov r8, r8)
 8001558:	46bd      	mov	sp, r7
 800155a:	b002      	add	sp, #8
 800155c:	bd80      	pop	{r7, pc}
 800155e:	46c0      	nop			@ (mov r8, r8)
 8001560:	40021000 	.word	0x40021000

08001564 <HAL_ADC_MspInit>:
  * This function configures the hardware resources used in this example
  * @param hadc: ADC handle pointer
  * @retval None
  */
void HAL_ADC_MspInit(ADC_HandleTypeDef* hadc)
{
 8001564:	b590      	push	{r4, r7, lr}
 8001566:	b099      	sub	sp, #100	@ 0x64
 8001568:	af00      	add	r7, sp, #0
 800156a:	6078      	str	r0, [r7, #4]
  GPIO_InitTypeDef GPIO_InitStruct = {0};
 800156c:	234c      	movs	r3, #76	@ 0x4c
 800156e:	18fb      	adds	r3, r7, r3
 8001570:	0018      	movs	r0, r3
 8001572:	2314      	movs	r3, #20
 8001574:	001a      	movs	r2, r3
 8001576:	2100      	movs	r1, #0
 8001578:	f006 f8c2 	bl	8007700 <memset>
  RCC_PeriphCLKInitTypeDef PeriphClkInit = {0};
 800157c:	2418      	movs	r4, #24
 800157e:	193b      	adds	r3, r7, r4
 8001580:	0018      	movs	r0, r3
 8001582:	2334      	movs	r3, #52	@ 0x34
 8001584:	001a      	movs	r2, r3
 8001586:	2100      	movs	r1, #0
 8001588:	f006 f8ba 	bl	8007700 <memset>
  if(hadc->Instance==ADC1)
 800158c:	687b      	ldr	r3, [r7, #4]
 800158e:	681b      	ldr	r3, [r3, #0]
 8001590:	4a44      	ldr	r2, [pc, #272]	@ (80016a4 <HAL_ADC_MspInit+0x140>)
 8001592:	4293      	cmp	r3, r2
 8001594:	d000      	beq.n	8001598 <HAL_ADC_MspInit+0x34>
 8001596:	e080      	b.n	800169a <HAL_ADC_MspInit+0x136>

    /* USER CODE END ADC1_MspInit 0 */

  /** Initializes the peripherals clocks
  */
    PeriphClkInit.PeriphClockSelection = RCC_PERIPHCLK_ADC;
 8001598:	193b      	adds	r3, r7, r4
 800159a:	2280      	movs	r2, #128	@ 0x80
 800159c:	01d2      	lsls	r2, r2, #7
 800159e:	601a      	str	r2, [r3, #0]
    PeriphClkInit.AdcClockSelection = RCC_ADCCLKSOURCE_PLLADC;
 80015a0:	193b      	adds	r3, r7, r4
 80015a2:	2280      	movs	r2, #128	@ 0x80
 80015a4:	05d2      	lsls	r2, r2, #23
 80015a6:	621a      	str	r2, [r3, #32]
    if (HAL_RCCEx_PeriphCLKConfig(&PeriphClkInit) != HAL_OK)
 80015a8:	193b      	adds	r3, r7, r4
 80015aa:	0018      	movs	r0, r3
 80015ac:	f003 fb2a 	bl	8004c04 <HAL_RCCEx_PeriphCLKConfig>
 80015b0:	1e03      	subs	r3, r0, #0
 80015b2:	d001      	beq.n	80015b8 <HAL_ADC_MspInit+0x54>
    {
      Error_Handler();
 80015b4:	f7ff ff9e 	bl	80014f4 <Error_Handler>
    }

    /* Peripheral clock enable */
    __HAL_RCC_ADC_CLK_ENABLE();
 80015b8:	4b3b      	ldr	r3, [pc, #236]	@ (80016a8 <HAL_ADC_MspInit+0x144>)
 80015ba:	6c1a      	ldr	r2, [r3, #64]	@ 0x40
 80015bc:	4b3a      	ldr	r3, [pc, #232]	@ (80016a8 <HAL_ADC_MspInit+0x144>)
 80015be:	2180      	movs	r1, #128	@ 0x80
 80015c0:	0349      	lsls	r1, r1, #13
 80015c2:	430a      	orrs	r2, r1
 80015c4:	641a      	str	r2, [r3, #64]	@ 0x40
 80015c6:	4b38      	ldr	r3, [pc, #224]	@ (80016a8 <HAL_ADC_MspInit+0x144>)
 80015c8:	6c1a      	ldr	r2, [r3, #64]	@ 0x40
 80015ca:	2380      	movs	r3, #128	@ 0x80
 80015cc:	035b      	lsls	r3, r3, #13
 80015ce:	4013      	ands	r3, r2
 80015d0:	617b      	str	r3, [r7, #20]
 80015d2:	697b      	ldr	r3, [r7, #20]

    __HAL_RCC_GPIOA_CLK_ENABLE();
 80015d4:	4b34      	ldr	r3, [pc, #208]	@ (80016a8 <HAL_ADC_MspInit+0x144>)
 80015d6:	6b5a      	ldr	r2, [r3, #52]	@ 0x34
 80015d8:	4b33      	ldr	r3, [pc, #204]	@ (80016a8 <HAL_ADC_MspInit+0x144>)
 80015da:	2101      	movs	r1, #1
 80015dc:	430a      	orrs	r2, r1
 80015de:	635a      	str	r2, [r3, #52]	@ 0x34
 80015e0:	4b31      	ldr	r3, [pc, #196]	@ (80016a8 <HAL_ADC_MspInit+0x144>)
 80015e2:	6b5b      	ldr	r3, [r3, #52]	@ 0x34
 80015e4:	2201      	movs	r2, #1
 80015e6:	4013      	ands	r3, r2
 80015e8:	613b      	str	r3, [r7, #16]
 80015ea:	693b      	ldr	r3, [r7, #16]
    __HAL_RCC_GPIOB_CLK_ENABLE();
 80015ec:	4b2e      	ldr	r3, [pc, #184]	@ (80016a8 <HAL_ADC_MspInit+0x144>)
 80015ee:	6b5a      	ldr	r2, [r3, #52]	@ 0x34
 80015f0:	4b2d      	ldr	r3, [pc, #180]	@ (80016a8 <HAL_ADC_MspInit+0x144>)
 80015f2:	2102      	movs	r1, #2
 80015f4:	430a      	orrs	r2, r1
 80015f6:	635a      	str	r2, [r3, #52]	@ 0x34
 80015f8:	4b2b      	ldr	r3, [pc, #172]	@ (80016a8 <HAL_ADC_MspInit+0x144>)
 80015fa:	6b5b      	ldr	r3, [r3, #52]	@ 0x34
 80015fc:	2202      	movs	r2, #2
 80015fe:	4013      	ands	r3, r2
 8001600:	60fb      	str	r3, [r7, #12]
 8001602:	68fb      	ldr	r3, [r7, #12]
    PA3     ------> ADC1_IN3
    PB0     ------> ADC1_IN8
    PB1     ------> ADC1_IN9
    PB2     ------> ADC1_IN10
    */
    GPIO_InitStruct.Pin = _24V_Sense_Pin|temp_MOSFET_Pin|Usense_Lamp_Pin;
 8001604:	244c      	movs	r4, #76	@ 0x4c
 8001606:	193b      	adds	r3, r7, r4
 8001608:	220b      	movs	r2, #11
 800160a:	601a      	str	r2, [r3, #0]
    GPIO_InitStruct.Mode = GPIO_MODE_ANALOG;
 800160c:	193b      	adds	r3, r7, r4
 800160e:	2203      	movs	r2, #3
 8001610:	605a      	str	r2, [r3, #4]
    GPIO_InitStruct.Pull = GPIO_NOPULL;
 8001612:	193b      	adds	r3, r7, r4
 8001614:	2200      	movs	r2, #0
 8001616:	609a      	str	r2, [r3, #8]
    HAL_GPIO_Init(GPIOA, &GPIO_InitStruct);
 8001618:	193a      	adds	r2, r7, r4
 800161a:	23a0      	movs	r3, #160	@ 0xa0
 800161c:	05db      	lsls	r3, r3, #23
 800161e:	0011      	movs	r1, r2
 8001620:	0018      	movs	r0, r3
 8001622:	f002 fc25 	bl	8003e70 <HAL_GPIO_Init>

    GPIO_InitStruct.Pin = IsenseLamp_Pin|LampIntensity_Pin|Isense_In_Pin;
 8001626:	193b      	adds	r3, r7, r4
 8001628:	2207      	movs	r2, #7
 800162a:	601a      	str	r2, [r3, #0]
    GPIO_InitStruct.Mode = GPIO_MODE_ANALOG;
 800162c:	193b      	adds	r3, r7, r4
 800162e:	2203      	movs	r2, #3
 8001630:	605a      	str	r2, [r3, #4]
    GPIO_InitStruct.Pull = GPIO_NOPULL;
 8001632:	193b      	adds	r3, r7, r4
 8001634:	2200      	movs	r2, #0
 8001636:	609a      	str	r2, [r3, #8]
    HAL_GPIO_Init(GPIOB, &GPIO_InitStruct);
 8001638:	193b      	adds	r3, r7, r4
 800163a:	4a1c      	ldr	r2, [pc, #112]	@ (80016ac <HAL_ADC_MspInit+0x148>)
 800163c:	0019      	movs	r1, r3
 800163e:	0010      	movs	r0, r2
 8001640:	f002 fc16 	bl	8003e70 <HAL_GPIO_Init>

    /* ADC1 DMA Init */
    /* ADC1 Init */
    hdma_adc1.Instance = DMA1_Channel1;
 8001644:	4b1a      	ldr	r3, [pc, #104]	@ (80016b0 <HAL_ADC_MspInit+0x14c>)
 8001646:	4a1b      	ldr	r2, [pc, #108]	@ (80016b4 <HAL_ADC_MspInit+0x150>)
 8001648:	601a      	str	r2, [r3, #0]
    hdma_adc1.Init.Request = DMA_REQUEST_ADC1;
 800164a:	4b19      	ldr	r3, [pc, #100]	@ (80016b0 <HAL_ADC_MspInit+0x14c>)
 800164c:	2205      	movs	r2, #5
 800164e:	605a      	str	r2, [r3, #4]
    hdma_adc1.Init.Direction = DMA_PERIPH_TO_MEMORY;
 8001650:	4b17      	ldr	r3, [pc, #92]	@ (80016b0 <HAL_ADC_MspInit+0x14c>)
 8001652:	2200      	movs	r2, #0
 8001654:	609a      	str	r2, [r3, #8]
    hdma_adc1.Init.PeriphInc = DMA_PINC_DISABLE;
 8001656:	4b16      	ldr	r3, [pc, #88]	@ (80016b0 <HAL_ADC_MspInit+0x14c>)
 8001658:	2200      	movs	r2, #0
 800165a:	60da      	str	r2, [r3, #12]
    hdma_adc1.Init.MemInc = DMA_MINC_ENABLE;
 800165c:	4b14      	ldr	r3, [pc, #80]	@ (80016b0 <HAL_ADC_MspInit+0x14c>)
 800165e:	2280      	movs	r2, #128	@ 0x80
 8001660:	611a      	str	r2, [r3, #16]
    hdma_adc1.Init.PeriphDataAlignment = DMA_PDATAALIGN_HALFWORD;
 8001662:	4b13      	ldr	r3, [pc, #76]	@ (80016b0 <HAL_ADC_MspInit+0x14c>)
 8001664:	2280      	movs	r2, #128	@ 0x80
 8001666:	0052      	lsls	r2, r2, #1
 8001668:	615a      	str	r2, [r3, #20]
    hdma_adc1.Init.MemDataAlignment = DMA_MDATAALIGN_HALFWORD;
 800166a:	4b11      	ldr	r3, [pc, #68]	@ (80016b0 <HAL_ADC_MspInit+0x14c>)
 800166c:	2280      	movs	r2, #128	@ 0x80
 800166e:	00d2      	lsls	r2, r2, #3
 8001670:	619a      	str	r2, [r3, #24]
    hdma_adc1.Init.Mode = DMA_CIRCULAR;
 8001672:	4b0f      	ldr	r3, [pc, #60]	@ (80016b0 <HAL_ADC_MspInit+0x14c>)
 8001674:	2220      	movs	r2, #32
 8001676:	61da      	str	r2, [r3, #28]
    hdma_adc1.Init.Priority = DMA_PRIORITY_LOW;
 8001678:	4b0d      	ldr	r3, [pc, #52]	@ (80016b0 <HAL_ADC_MspInit+0x14c>)
 800167a:	2200      	movs	r2, #0
 800167c:	621a      	str	r2, [r3, #32]
    if (HAL_DMA_Init(&hdma_adc1) != HAL_OK)
 800167e:	4b0c      	ldr	r3, [pc, #48]	@ (80016b0 <HAL_ADC_MspInit+0x14c>)
 8001680:	0018      	movs	r0, r3
 8001682:	f002 f9a3 	bl	80039cc <HAL_DMA_Init>
 8001686:	1e03      	subs	r3, r0, #0
 8001688:	d001      	beq.n	800168e <HAL_ADC_MspInit+0x12a>
    {
      Error_Handler();
 800168a:	f7ff ff33 	bl	80014f4 <Error_Handler>
    }

    __HAL_LINKDMA(hadc,DMA_Handle,hdma_adc1);
 800168e:	687b      	ldr	r3, [r7, #4]
 8001690:	4a07      	ldr	r2, [pc, #28]	@ (80016b0 <HAL_ADC_MspInit+0x14c>)
 8001692:	651a      	str	r2, [r3, #80]	@ 0x50
 8001694:	4b06      	ldr	r3, [pc, #24]	@ (80016b0 <HAL_ADC_MspInit+0x14c>)
 8001696:	687a      	ldr	r2, [r7, #4]
 8001698:	629a      	str	r2, [r3, #40]	@ 0x28

    /* USER CODE END ADC1_MspInit 1 */

  }

}
 800169a:	46c0      	nop			@ (mov r8, r8)
 800169c:	46bd      	mov	sp, r7
 800169e:	b019      	add	sp, #100	@ 0x64
 80016a0:	bd90      	pop	{r4, r7, pc}
 80016a2:	46c0      	nop			@ (mov r8, r8)
 80016a4:	40012400 	.word	0x40012400
 80016a8:	40021000 	.word	0x40021000
 80016ac:	50000400 	.word	0x50000400
 80016b0:	200000e0 	.word	0x200000e0
 80016b4:	40020008 	.word	0x40020008

080016b8 <HAL_COMP_MspInit>:
  * This function configures the hardware resources used in this example
  * @param hcomp: COMP handle pointer
  * @retval None
  */
void HAL_COMP_MspInit(COMP_HandleTypeDef* hcomp)
{
 80016b8:	b590      	push	{r4, r7, lr}
 80016ba:	b089      	sub	sp, #36	@ 0x24
 80016bc:	af00      	add	r7, sp, #0
 80016be:	6078      	str	r0, [r7, #4]
  GPIO_InitTypeDef GPIO_InitStruct = {0};
 80016c0:	240c      	movs	r4, #12
 80016c2:	193b      	adds	r3, r7, r4
 80016c4:	0018      	movs	r0, r3
 80016c6:	2314      	movs	r3, #20
 80016c8:	001a      	movs	r2, r3
 80016ca:	2100      	movs	r1, #0
 80016cc:	f006 f818 	bl	8007700 <memset>
  if(hcomp->Instance==COMP2)
 80016d0:	687b      	ldr	r3, [r7, #4]
 80016d2:	681b      	ldr	r3, [r3, #0]
 80016d4:	4a10      	ldr	r2, [pc, #64]	@ (8001718 <HAL_COMP_MspInit+0x60>)
 80016d6:	4293      	cmp	r3, r2
 80016d8:	d11a      	bne.n	8001710 <HAL_COMP_MspInit+0x58>
  {
    /* USER CODE BEGIN COMP2_MspInit 0 */

    /* USER CODE END COMP2_MspInit 0 */

    __HAL_RCC_GPIOB_CLK_ENABLE();
 80016da:	4b10      	ldr	r3, [pc, #64]	@ (800171c <HAL_COMP_MspInit+0x64>)
 80016dc:	6b5a      	ldr	r2, [r3, #52]	@ 0x34
 80016de:	4b0f      	ldr	r3, [pc, #60]	@ (800171c <HAL_COMP_MspInit+0x64>)
 80016e0:	2102      	movs	r1, #2
 80016e2:	430a      	orrs	r2, r1
 80016e4:	635a      	str	r2, [r3, #52]	@ 0x34
 80016e6:	4b0d      	ldr	r3, [pc, #52]	@ (800171c <HAL_COMP_MspInit+0x64>)
 80016e8:	6b5b      	ldr	r3, [r3, #52]	@ 0x34
 80016ea:	2202      	movs	r2, #2
 80016ec:	4013      	ands	r3, r2
 80016ee:	60bb      	str	r3, [r7, #8]
 80016f0:	68bb      	ldr	r3, [r7, #8]
    /**COMP2 GPIO Configuration
    PB4     ------> COMP2_INP
    */
    GPIO_InitStruct.Pin = Isense_MOS_Pin;
 80016f2:	193b      	adds	r3, r7, r4
 80016f4:	2210      	movs	r2, #16
 80016f6:	601a      	str	r2, [r3, #0]
    GPIO_InitStruct.Mode = GPIO_MODE_ANALOG;
 80016f8:	193b      	adds	r3, r7, r4
 80016fa:	2203      	movs	r2, #3
 80016fc:	605a      	str	r2, [r3, #4]
    GPIO_InitStruct.Pull = GPIO_NOPULL;
 80016fe:	193b      	adds	r3, r7, r4
 8001700:	2200      	movs	r2, #0
 8001702:	609a      	str	r2, [r3, #8]
    HAL_GPIO_Init(Isense_MOS_GPIO_Port, &GPIO_InitStruct);
 8001704:	193b      	adds	r3, r7, r4
 8001706:	4a06      	ldr	r2, [pc, #24]	@ (8001720 <HAL_COMP_MspInit+0x68>)
 8001708:	0019      	movs	r1, r3
 800170a:	0010      	movs	r0, r2
 800170c:	f002 fbb0 	bl	8003e70 <HAL_GPIO_Init>

    /* USER CODE END COMP2_MspInit 1 */

  }

}
 8001710:	46c0      	nop			@ (mov r8, r8)
 8001712:	46bd      	mov	sp, r7
 8001714:	b009      	add	sp, #36	@ 0x24
 8001716:	bd90      	pop	{r4, r7, pc}
 8001718:	40010204 	.word	0x40010204
 800171c:	40021000 	.word	0x40021000
 8001720:	50000400 	.word	0x50000400

08001724 <HAL_DAC_MspInit>:
  * This function configures the hardware resources used in this example
  * @param hdac: DAC handle pointer
  * @retval None
  */
void HAL_DAC_MspInit(DAC_HandleTypeDef* hdac)
{
 8001724:	b590      	push	{r4, r7, lr}
 8001726:	b08b      	sub	sp, #44	@ 0x2c
 8001728:	af00      	add	r7, sp, #0
 800172a:	6078      	str	r0, [r7, #4]
  GPIO_InitTypeDef GPIO_InitStruct = {0};
 800172c:	2414      	movs	r4, #20
 800172e:	193b      	adds	r3, r7, r4
 8001730:	0018      	movs	r0, r3
 8001732:	2314      	movs	r3, #20
 8001734:	001a      	movs	r2, r3
 8001736:	2100      	movs	r1, #0
 8001738:	f005 ffe2 	bl	8007700 <memset>
  if(hdac->Instance==DAC1)
 800173c:	687b      	ldr	r3, [r7, #4]
 800173e:	681b      	ldr	r3, [r3, #0]
 8001740:	4a18      	ldr	r2, [pc, #96]	@ (80017a4 <HAL_DAC_MspInit+0x80>)
 8001742:	4293      	cmp	r3, r2
 8001744:	d129      	bne.n	800179a <HAL_DAC_MspInit+0x76>
  {
    /* USER CODE BEGIN DAC1_MspInit 0 */

    /* USER CODE END DAC1_MspInit 0 */
    /* Peripheral clock enable */
    __HAL_RCC_DAC1_CLK_ENABLE();
 8001746:	4b18      	ldr	r3, [pc, #96]	@ (80017a8 <HAL_DAC_MspInit+0x84>)
 8001748:	6bda      	ldr	r2, [r3, #60]	@ 0x3c
 800174a:	4b17      	ldr	r3, [pc, #92]	@ (80017a8 <HAL_DAC_MspInit+0x84>)
 800174c:	2180      	movs	r1, #128	@ 0x80
 800174e:	0589      	lsls	r1, r1, #22
 8001750:	430a      	orrs	r2, r1
 8001752:	63da      	str	r2, [r3, #60]	@ 0x3c
 8001754:	4b14      	ldr	r3, [pc, #80]	@ (80017a8 <HAL_DAC_MspInit+0x84>)
 8001756:	6bda      	ldr	r2, [r3, #60]	@ 0x3c
 8001758:	2380      	movs	r3, #128	@ 0x80
 800175a:	059b      	lsls	r3, r3, #22
 800175c:	4013      	ands	r3, r2
 800175e:	613b      	str	r3, [r7, #16]
 8001760:	693b      	ldr	r3, [r7, #16]

    __HAL_RCC_GPIOA_CLK_ENABLE();
 8001762:	4b11      	ldr	r3, [pc, #68]	@ (80017a8 <HAL_DAC_MspInit+0x84>)
 8001764:	6b5a      	ldr	r2, [r3, #52]	@ 0x34
 8001766:	4b10      	ldr	r3, [pc, #64]	@ (80017a8 <HAL_DAC_MspInit+0x84>)
 8001768:	2101      	movs	r1, #1
 800176a:	430a      	orrs	r2, r1
 800176c:	635a      	str	r2, [r3, #52]	@ 0x34
 800176e:	4b0e      	ldr	r3, [pc, #56]	@ (80017a8 <HAL_DAC_MspInit+0x84>)
 8001770:	6b5b      	ldr	r3, [r3, #52]	@ 0x34
 8001772:	2201      	movs	r2, #1
 8001774:	4013      	ands	r3, r2
 8001776:	60fb      	str	r3, [r7, #12]
 8001778:	68fb      	ldr	r3, [r7, #12]
    /**DAC1 GPIO Configuration
    PA4     ------> DAC1_OUT1
    PA5     ------> DAC1_OUT2
    */
    GPIO_InitStruct.Pin = Ilevel_DAC_Pin|DAC2_Pin;
 800177a:	193b      	adds	r3, r7, r4
 800177c:	2230      	movs	r2, #48	@ 0x30
 800177e:	601a      	str	r2, [r3, #0]
    GPIO_InitStruct.Mode = GPIO_MODE_ANALOG;
 8001780:	193b      	adds	r3, r7, r4
 8001782:	2203      	movs	r2, #3
 8001784:	605a      	str	r2, [r3, #4]
    GPIO_InitStruct.Pull = GPIO_NOPULL;
 8001786:	193b      	adds	r3, r7, r4
 8001788:	2200      	movs	r2, #0
 800178a:	609a      	str	r2, [r3, #8]
    HAL_GPIO_Init(GPIOA, &GPIO_InitStruct);
 800178c:	193a      	adds	r2, r7, r4
 800178e:	23a0      	movs	r3, #160	@ 0xa0
 8001790:	05db      	lsls	r3, r3, #23
 8001792:	0011      	movs	r1, r2
 8001794:	0018      	movs	r0, r3
 8001796:	f002 fb6b 	bl	8003e70 <HAL_GPIO_Init>

    /* USER CODE END DAC1_MspInit 1 */

  }

}
 800179a:	46c0      	nop			@ (mov r8, r8)
 800179c:	46bd      	mov	sp, r7
 800179e:	b00b      	add	sp, #44	@ 0x2c
 80017a0:	bd90      	pop	{r4, r7, pc}
 80017a2:	46c0      	nop			@ (mov r8, r8)
 80017a4:	40007400 	.word	0x40007400
 80017a8:	40021000 	.word	0x40021000

080017ac <HAL_TIM_PWM_MspInit>:
  * This function configures the hardware resources used in this example
  * @param htim_pwm: TIM_PWM handle pointer
  * @retval None
  */
void HAL_TIM_PWM_MspInit(TIM_HandleTypeDef* htim_pwm)
{
 80017ac:	b590      	push	{r4, r7, lr}
 80017ae:	b099      	sub	sp, #100	@ 0x64
 80017b0:	af00      	add	r7, sp, #0
 80017b2:	6078      	str	r0, [r7, #4]
  GPIO_InitTypeDef GPIO_InitStruct = {0};
 80017b4:	234c      	movs	r3, #76	@ 0x4c
 80017b6:	18fb      	adds	r3, r7, r3
 80017b8:	0018      	movs	r0, r3
 80017ba:	2314      	movs	r3, #20
 80017bc:	001a      	movs	r2, r3
 80017be:	2100      	movs	r1, #0
 80017c0:	f005 ff9e 	bl	8007700 <memset>
  RCC_PeriphCLKInitTypeDef PeriphClkInit = {0};
 80017c4:	2418      	movs	r4, #24
 80017c6:	193b      	adds	r3, r7, r4
 80017c8:	0018      	movs	r0, r3
 80017ca:	2334      	movs	r3, #52	@ 0x34
 80017cc:	001a      	movs	r2, r3
 80017ce:	2100      	movs	r1, #0
 80017d0:	f005 ff96 	bl	8007700 <memset>
  if(htim_pwm->Instance==TIM1)
 80017d4:	687b      	ldr	r3, [r7, #4]
 80017d6:	681b      	ldr	r3, [r3, #0]
 80017d8:	4a2c      	ldr	r2, [pc, #176]	@ (800188c <HAL_TIM_PWM_MspInit+0xe0>)
 80017da:	4293      	cmp	r3, r2
 80017dc:	d140      	bne.n	8001860 <HAL_TIM_PWM_MspInit+0xb4>

    /* USER CODE END TIM1_MspInit 0 */

  /** Initializes the peripherals clocks
  */
    PeriphClkInit.PeriphClockSelection = RCC_PERIPHCLK_TIM1;
 80017de:	193b      	adds	r3, r7, r4
 80017e0:	2280      	movs	r2, #128	@ 0x80
 80017e2:	0392      	lsls	r2, r2, #14
 80017e4:	601a      	str	r2, [r3, #0]
    PeriphClkInit.Tim1ClockSelection = RCC_TIM1CLKSOURCE_PCLK1;
 80017e6:	193b      	adds	r3, r7, r4
 80017e8:	2200      	movs	r2, #0
 80017ea:	629a      	str	r2, [r3, #40]	@ 0x28
    if (HAL_RCCEx_PeriphCLKConfig(&PeriphClkInit) != HAL_OK)
 80017ec:	193b      	adds	r3, r7, r4
 80017ee:	0018      	movs	r0, r3
 80017f0:	f003 fa08 	bl	8004c04 <HAL_RCCEx_PeriphCLKConfig>
 80017f4:	1e03      	subs	r3, r0, #0
 80017f6:	d001      	beq.n	80017fc <HAL_TIM_PWM_MspInit+0x50>
    {
      Error_Handler();
 80017f8:	f7ff fe7c 	bl	80014f4 <Error_Handler>
    }

    /* Peripheral clock enable */
    __HAL_RCC_TIM1_CLK_ENABLE();
 80017fc:	4b24      	ldr	r3, [pc, #144]	@ (8001890 <HAL_TIM_PWM_MspInit+0xe4>)
 80017fe:	6c1a      	ldr	r2, [r3, #64]	@ 0x40
 8001800:	4b23      	ldr	r3, [pc, #140]	@ (8001890 <HAL_TIM_PWM_MspInit+0xe4>)
 8001802:	2180      	movs	r1, #128	@ 0x80
 8001804:	0109      	lsls	r1, r1, #4
 8001806:	430a      	orrs	r2, r1
 8001808:	641a      	str	r2, [r3, #64]	@ 0x40
 800180a:	4b21      	ldr	r3, [pc, #132]	@ (8001890 <HAL_TIM_PWM_MspInit+0xe4>)
 800180c:	6c1a      	ldr	r2, [r3, #64]	@ 0x40
 800180e:	2380      	movs	r3, #128	@ 0x80
 8001810:	011b      	lsls	r3, r3, #4
 8001812:	4013      	ands	r3, r2
 8001814:	617b      	str	r3, [r7, #20]
 8001816:	697b      	ldr	r3, [r7, #20]

    __HAL_RCC_GPIOA_CLK_ENABLE();
 8001818:	4b1d      	ldr	r3, [pc, #116]	@ (8001890 <HAL_TIM_PWM_MspInit+0xe4>)
 800181a:	6b5a      	ldr	r2, [r3, #52]	@ 0x34
 800181c:	4b1c      	ldr	r3, [pc, #112]	@ (8001890 <HAL_TIM_PWM_MspInit+0xe4>)
 800181e:	2101      	movs	r1, #1
 8001820:	430a      	orrs	r2, r1
 8001822:	635a      	str	r2, [r3, #52]	@ 0x34
 8001824:	4b1a      	ldr	r3, [pc, #104]	@ (8001890 <HAL_TIM_PWM_MspInit+0xe4>)
 8001826:	6b5b      	ldr	r3, [r3, #52]	@ 0x34
 8001828:	2201      	movs	r2, #1
 800182a:	4013      	ands	r3, r2
 800182c:	613b      	str	r3, [r7, #16]
 800182e:	693b      	ldr	r3, [r7, #16]
    /**TIM1 GPIO Configuration
    PA6     ------> TIM1_BK
    */
    GPIO_InitStruct.Pin = GPIO_PIN_6;
 8001830:	214c      	movs	r1, #76	@ 0x4c
 8001832:	187b      	adds	r3, r7, r1
 8001834:	2240      	movs	r2, #64	@ 0x40
 8001836:	601a      	str	r2, [r3, #0]
    GPIO_InitStruct.Mode = GPIO_MODE_AF_OD;
 8001838:	187b      	adds	r3, r7, r1
 800183a:	2212      	movs	r2, #18
 800183c:	605a      	str	r2, [r3, #4]
    GPIO_InitStruct.Pull = GPIO_PULLUP;
 800183e:	187b      	adds	r3, r7, r1
 8001840:	2201      	movs	r2, #1
 8001842:	609a      	str	r2, [r3, #8]
    GPIO_InitStruct.Speed = GPIO_SPEED_FREQ_LOW;
 8001844:	187b      	adds	r3, r7, r1
 8001846:	2200      	movs	r2, #0
 8001848:	60da      	str	r2, [r3, #12]
    GPIO_InitStruct.Alternate = GPIO_AF2_TIM1;
 800184a:	187b      	adds	r3, r7, r1
 800184c:	2202      	movs	r2, #2
 800184e:	611a      	str	r2, [r3, #16]
    HAL_GPIO_Init(GPIOA, &GPIO_InitStruct);
 8001850:	187a      	adds	r2, r7, r1
 8001852:	23a0      	movs	r3, #160	@ 0xa0
 8001854:	05db      	lsls	r3, r3, #23
 8001856:	0011      	movs	r1, r2
 8001858:	0018      	movs	r0, r3
 800185a:	f002 fb09 	bl	8003e70 <HAL_GPIO_Init>
    /* USER CODE BEGIN TIM2_MspInit 1 */

    /* USER CODE END TIM2_MspInit 1 */
  }

}
 800185e:	e011      	b.n	8001884 <HAL_TIM_PWM_MspInit+0xd8>
  else if(htim_pwm->Instance==TIM2)
 8001860:	687b      	ldr	r3, [r7, #4]
 8001862:	681a      	ldr	r2, [r3, #0]
 8001864:	2380      	movs	r3, #128	@ 0x80
 8001866:	05db      	lsls	r3, r3, #23
 8001868:	429a      	cmp	r2, r3
 800186a:	d10b      	bne.n	8001884 <HAL_TIM_PWM_MspInit+0xd8>
    __HAL_RCC_TIM2_CLK_ENABLE();
 800186c:	4b08      	ldr	r3, [pc, #32]	@ (8001890 <HAL_TIM_PWM_MspInit+0xe4>)
 800186e:	6bda      	ldr	r2, [r3, #60]	@ 0x3c
 8001870:	4b07      	ldr	r3, [pc, #28]	@ (8001890 <HAL_TIM_PWM_MspInit+0xe4>)
 8001872:	2101      	movs	r1, #1
 8001874:	430a      	orrs	r2, r1
 8001876:	63da      	str	r2, [r3, #60]	@ 0x3c
 8001878:	4b05      	ldr	r3, [pc, #20]	@ (8001890 <HAL_TIM_PWM_MspInit+0xe4>)
 800187a:	6bdb      	ldr	r3, [r3, #60]	@ 0x3c
 800187c:	2201      	movs	r2, #1
 800187e:	4013      	ands	r3, r2
 8001880:	60fb      	str	r3, [r7, #12]
 8001882:	68fb      	ldr	r3, [r7, #12]
}
 8001884:	46c0      	nop			@ (mov r8, r8)
 8001886:	46bd      	mov	sp, r7
 8001888:	b019      	add	sp, #100	@ 0x64
 800188a:	bd90      	pop	{r4, r7, pc}
 800188c:	40012c00 	.word	0x40012c00
 8001890:	40021000 	.word	0x40021000

08001894 <HAL_TIM_IC_MspInit>:
  * This function configures the hardware resources used in this example
  * @param htim_ic: TIM_IC handle pointer
  * @retval None
  */
void HAL_TIM_IC_MspInit(TIM_HandleTypeDef* htim_ic)
{
 8001894:	b590      	push	{r4, r7, lr}
 8001896:	b08b      	sub	sp, #44	@ 0x2c
 8001898:	af00      	add	r7, sp, #0
 800189a:	6078      	str	r0, [r7, #4]
  GPIO_InitTypeDef GPIO_InitStruct = {0};
 800189c:	2414      	movs	r4, #20
 800189e:	193b      	adds	r3, r7, r4
 80018a0:	0018      	movs	r0, r3
 80018a2:	2314      	movs	r3, #20
 80018a4:	001a      	movs	r2, r3
 80018a6:	2100      	movs	r1, #0
 80018a8:	f005 ff2a 	bl	8007700 <memset>
  if(htim_ic->Instance==TIM3)
 80018ac:	687b      	ldr	r3, [r7, #4]
 80018ae:	681b      	ldr	r3, [r3, #0]
 80018b0:	4a1a      	ldr	r2, [pc, #104]	@ (800191c <HAL_TIM_IC_MspInit+0x88>)
 80018b2:	4293      	cmp	r3, r2
 80018b4:	d12d      	bne.n	8001912 <HAL_TIM_IC_MspInit+0x7e>
    /* USER CODE BEGIN TIM3_MspInit 0 */

    /* USER CODE END TIM3_MspInit 0 */

    /* Peripheral clock enable */
    __HAL_RCC_TIM3_CLK_ENABLE();
 80018b6:	4b1a      	ldr	r3, [pc, #104]	@ (8001920 <HAL_TIM_IC_MspInit+0x8c>)
 80018b8:	6bda      	ldr	r2, [r3, #60]	@ 0x3c
 80018ba:	4b19      	ldr	r3, [pc, #100]	@ (8001920 <HAL_TIM_IC_MspInit+0x8c>)
 80018bc:	2102      	movs	r1, #2
 80018be:	430a      	orrs	r2, r1
 80018c0:	63da      	str	r2, [r3, #60]	@ 0x3c
 80018c2:	4b17      	ldr	r3, [pc, #92]	@ (8001920 <HAL_TIM_IC_MspInit+0x8c>)
 80018c4:	6bdb      	ldr	r3, [r3, #60]	@ 0x3c
 80018c6:	2202      	movs	r2, #2
 80018c8:	4013      	ands	r3, r2
 80018ca:	613b      	str	r3, [r7, #16]
 80018cc:	693b      	ldr	r3, [r7, #16]

    __HAL_RCC_GPIOB_CLK_ENABLE();
 80018ce:	4b14      	ldr	r3, [pc, #80]	@ (8001920 <HAL_TIM_IC_MspInit+0x8c>)
 80018d0:	6b5a      	ldr	r2, [r3, #52]	@ 0x34
 80018d2:	4b13      	ldr	r3, [pc, #76]	@ (8001920 <HAL_TIM_IC_MspInit+0x8c>)
 80018d4:	2102      	movs	r1, #2
 80018d6:	430a      	orrs	r2, r1
 80018d8:	635a      	str	r2, [r3, #52]	@ 0x34
 80018da:	4b11      	ldr	r3, [pc, #68]	@ (8001920 <HAL_TIM_IC_MspInit+0x8c>)
 80018dc:	6b5b      	ldr	r3, [r3, #52]	@ 0x34
 80018de:	2202      	movs	r2, #2
 80018e0:	4013      	ands	r3, r2
 80018e2:	60fb      	str	r3, [r7, #12]
 80018e4:	68fb      	ldr	r3, [r7, #12]
    /**TIM3 GPIO Configuration
    PB5     ------> TIM3_CH2
    */
    GPIO_InitStruct.Pin = DRV_Mask_Pin;
 80018e6:	0021      	movs	r1, r4
 80018e8:	187b      	adds	r3, r7, r1
 80018ea:	2220      	movs	r2, #32
 80018ec:	601a      	str	r2, [r3, #0]
    GPIO_InitStruct.Mode = GPIO_MODE_AF_PP;
 80018ee:	187b      	adds	r3, r7, r1
 80018f0:	2202      	movs	r2, #2
 80018f2:	605a      	str	r2, [r3, #4]
    GPIO_InitStruct.Pull = GPIO_NOPULL;
 80018f4:	187b      	adds	r3, r7, r1
 80018f6:	2200      	movs	r2, #0
 80018f8:	609a      	str	r2, [r3, #8]
    GPIO_InitStruct.Speed = GPIO_SPEED_FREQ_LOW;
 80018fa:	187b      	adds	r3, r7, r1
 80018fc:	2200      	movs	r2, #0
 80018fe:	60da      	str	r2, [r3, #12]
    GPIO_InitStruct.Alternate = GPIO_AF1_TIM3;
 8001900:	187b      	adds	r3, r7, r1
 8001902:	2201      	movs	r2, #1
 8001904:	611a      	str	r2, [r3, #16]
    HAL_GPIO_Init(DRV_Mask_GPIO_Port, &GPIO_InitStruct);
 8001906:	187b      	adds	r3, r7, r1
 8001908:	4a06      	ldr	r2, [pc, #24]	@ (8001924 <HAL_TIM_IC_MspInit+0x90>)
 800190a:	0019      	movs	r1, r3
 800190c:	0010      	movs	r0, r2
 800190e:	f002 faaf 	bl	8003e70 <HAL_GPIO_Init>

    /* USER CODE END TIM3_MspInit 1 */

  }

}
 8001912:	46c0      	nop			@ (mov r8, r8)
 8001914:	46bd      	mov	sp, r7
 8001916:	b00b      	add	sp, #44	@ 0x2c
 8001918:	bd90      	pop	{r4, r7, pc}
 800191a:	46c0      	nop			@ (mov r8, r8)
 800191c:	40000400 	.word	0x40000400
 8001920:	40021000 	.word	0x40021000
 8001924:	50000400 	.word	0x50000400

08001928 <HAL_TIM_Base_MspInit>:
  * This function configures the hardware resources used in this example
  * @param htim_base: TIM_Base handle pointer
  * @retval None
  */
void HAL_TIM_Base_MspInit(TIM_HandleTypeDef* htim_base)
{
 8001928:	b580      	push	{r7, lr}
 800192a:	b08a      	sub	sp, #40	@ 0x28
 800192c:	af00      	add	r7, sp, #0
 800192e:	6078      	str	r0, [r7, #4]
  GPIO_InitTypeDef GPIO_InitStruct = {0};
 8001930:	2314      	movs	r3, #20
 8001932:	18fb      	adds	r3, r7, r3
 8001934:	0018      	movs	r0, r3
 8001936:	2314      	movs	r3, #20
 8001938:	001a      	movs	r2, r3
 800193a:	2100      	movs	r1, #0
 800193c:	f005 fee0 	bl	8007700 <memset>
  if(htim_base->Instance==TIM6)
 8001940:	687b      	ldr	r3, [r7, #4]
 8001942:	681b      	ldr	r3, [r3, #0]
 8001944:	4a28      	ldr	r2, [pc, #160]	@ (80019e8 <HAL_TIM_Base_MspInit+0xc0>)
 8001946:	4293      	cmp	r3, r2
 8001948:	d10c      	bne.n	8001964 <HAL_TIM_Base_MspInit+0x3c>
    /* USER CODE BEGIN TIM6_MspInit 0 */

    /* USER CODE END TIM6_MspInit 0 */

    /* Peripheral clock enable */
    __HAL_RCC_TIM6_CLK_ENABLE();
 800194a:	4b28      	ldr	r3, [pc, #160]	@ (80019ec <HAL_TIM_Base_MspInit+0xc4>)
 800194c:	6bda      	ldr	r2, [r3, #60]	@ 0x3c
 800194e:	4b27      	ldr	r3, [pc, #156]	@ (80019ec <HAL_TIM_Base_MspInit+0xc4>)
 8001950:	2110      	movs	r1, #16
 8001952:	430a      	orrs	r2, r1
 8001954:	63da      	str	r2, [r3, #60]	@ 0x3c
 8001956:	4b25      	ldr	r3, [pc, #148]	@ (80019ec <HAL_TIM_Base_MspInit+0xc4>)
 8001958:	6bdb      	ldr	r3, [r3, #60]	@ 0x3c
 800195a:	2210      	movs	r2, #16
 800195c:	4013      	ands	r3, r2
 800195e:	613b      	str	r3, [r7, #16]
 8001960:	693b      	ldr	r3, [r7, #16]
    /* USER CODE BEGIN TIM16_MspInit 1 */

    /* USER CODE END TIM16_MspInit 1 */
  }

}
 8001962:	e03d      	b.n	80019e0 <HAL_TIM_Base_MspInit+0xb8>
  else if(htim_base->Instance==TIM16)
 8001964:	687b      	ldr	r3, [r7, #4]
 8001966:	681b      	ldr	r3, [r3, #0]
 8001968:	4a21      	ldr	r2, [pc, #132]	@ (80019f0 <HAL_TIM_Base_MspInit+0xc8>)
 800196a:	4293      	cmp	r3, r2
 800196c:	d138      	bne.n	80019e0 <HAL_TIM_Base_MspInit+0xb8>
    __HAL_RCC_TIM16_CLK_ENABLE();
 800196e:	4b1f      	ldr	r3, [pc, #124]	@ (80019ec <HAL_TIM_Base_MspInit+0xc4>)
 8001970:	6c1a      	ldr	r2, [r3, #64]	@ 0x40
 8001972:	4b1e      	ldr	r3, [pc, #120]	@ (80019ec <HAL_TIM_Base_MspInit+0xc4>)
 8001974:	2180      	movs	r1, #128	@ 0x80
 8001976:	0289      	lsls	r1, r1, #10
 8001978:	430a      	orrs	r2, r1
 800197a:	641a      	str	r2, [r3, #64]	@ 0x40
 800197c:	4b1b      	ldr	r3, [pc, #108]	@ (80019ec <HAL_TIM_Base_MspInit+0xc4>)
 800197e:	6c1a      	ldr	r2, [r3, #64]	@ 0x40
 8001980:	2380      	movs	r3, #128	@ 0x80
 8001982:	029b      	lsls	r3, r3, #10
 8001984:	4013      	ands	r3, r2
 8001986:	60fb      	str	r3, [r7, #12]
 8001988:	68fb      	ldr	r3, [r7, #12]
    __HAL_RCC_GPIOB_CLK_ENABLE();
 800198a:	4b18      	ldr	r3, [pc, #96]	@ (80019ec <HAL_TIM_Base_MspInit+0xc4>)
 800198c:	6b5a      	ldr	r2, [r3, #52]	@ 0x34
 800198e:	4b17      	ldr	r3, [pc, #92]	@ (80019ec <HAL_TIM_Base_MspInit+0xc4>)
 8001990:	2102      	movs	r1, #2
 8001992:	430a      	orrs	r2, r1
 8001994:	635a      	str	r2, [r3, #52]	@ 0x34
 8001996:	4b15      	ldr	r3, [pc, #84]	@ (80019ec <HAL_TIM_Base_MspInit+0xc4>)
 8001998:	6b5b      	ldr	r3, [r3, #52]	@ 0x34
 800199a:	2202      	movs	r2, #2
 800199c:	4013      	ands	r3, r2
 800199e:	60bb      	str	r3, [r7, #8]
 80019a0:	68bb      	ldr	r3, [r7, #8]
    GPIO_InitStruct.Pin = GPIO_PIN_8;
 80019a2:	2114      	movs	r1, #20
 80019a4:	187b      	adds	r3, r7, r1
 80019a6:	2280      	movs	r2, #128	@ 0x80
 80019a8:	0052      	lsls	r2, r2, #1
 80019aa:	601a      	str	r2, [r3, #0]
    GPIO_InitStruct.Mode = GPIO_MODE_AF_PP;
 80019ac:	187b      	adds	r3, r7, r1
 80019ae:	2202      	movs	r2, #2
 80019b0:	605a      	str	r2, [r3, #4]
    GPIO_InitStruct.Pull = GPIO_NOPULL;
 80019b2:	187b      	adds	r3, r7, r1
 80019b4:	2200      	movs	r2, #0
 80019b6:	609a      	str	r2, [r3, #8]
    GPIO_InitStruct.Speed = GPIO_SPEED_FREQ_LOW;
 80019b8:	187b      	adds	r3, r7, r1
 80019ba:	2200      	movs	r2, #0
 80019bc:	60da      	str	r2, [r3, #12]
    GPIO_InitStruct.Alternate = GPIO_AF2_TIM16;
 80019be:	187b      	adds	r3, r7, r1
 80019c0:	2202      	movs	r2, #2
 80019c2:	611a      	str	r2, [r3, #16]
    HAL_GPIO_Init(GPIOB, &GPIO_InitStruct);
 80019c4:	187b      	adds	r3, r7, r1
 80019c6:	4a0b      	ldr	r2, [pc, #44]	@ (80019f4 <HAL_TIM_Base_MspInit+0xcc>)
 80019c8:	0019      	movs	r1, r3
 80019ca:	0010      	movs	r0, r2
 80019cc:	f002 fa50 	bl	8003e70 <HAL_GPIO_Init>
    HAL_NVIC_SetPriority(TIM16_IRQn, 0, 0);
 80019d0:	2200      	movs	r2, #0
 80019d2:	2100      	movs	r1, #0
 80019d4:	2015      	movs	r0, #21
 80019d6:	f001 fd89 	bl	80034ec <HAL_NVIC_SetPriority>
    HAL_NVIC_EnableIRQ(TIM16_IRQn);
 80019da:	2015      	movs	r0, #21
 80019dc:	f001 fd9b 	bl	8003516 <HAL_NVIC_EnableIRQ>
}
 80019e0:	46c0      	nop			@ (mov r8, r8)
 80019e2:	46bd      	mov	sp, r7
 80019e4:	b00a      	add	sp, #40	@ 0x28
 80019e6:	bd80      	pop	{r7, pc}
 80019e8:	40001000 	.word	0x40001000
 80019ec:	40021000 	.word	0x40021000
 80019f0:	40014400 	.word	0x40014400
 80019f4:	50000400 	.word	0x50000400

080019f8 <HAL_TIM_MspPostInit>:

void HAL_TIM_MspPostInit(TIM_HandleTypeDef* htim)
{
 80019f8:	b590      	push	{r4, r7, lr}
 80019fa:	b08b      	sub	sp, #44	@ 0x2c
 80019fc:	af00      	add	r7, sp, #0
 80019fe:	6078      	str	r0, [r7, #4]
  GPIO_InitTypeDef GPIO_InitStruct = {0};
 8001a00:	2414      	movs	r4, #20
 8001a02:	193b      	adds	r3, r7, r4
 8001a04:	0018      	movs	r0, r3
 8001a06:	2314      	movs	r3, #20
 8001a08:	001a      	movs	r2, r3
 8001a0a:	2100      	movs	r1, #0
 8001a0c:	f005 fe78 	bl	8007700 <memset>
  if(htim->Instance==TIM1)
 8001a10:	687b      	ldr	r3, [r7, #4]
 8001a12:	681b      	ldr	r3, [r3, #0]
 8001a14:	4a29      	ldr	r2, [pc, #164]	@ (8001abc <HAL_TIM_MspPostInit+0xc4>)
 8001a16:	4293      	cmp	r3, r2
 8001a18:	d124      	bne.n	8001a64 <HAL_TIM_MspPostInit+0x6c>
  {
    /* USER CODE BEGIN TIM1_MspPostInit 0 */

    /* USER CODE END TIM1_MspPostInit 0 */
    __HAL_RCC_GPIOA_CLK_ENABLE();
 8001a1a:	4b29      	ldr	r3, [pc, #164]	@ (8001ac0 <HAL_TIM_MspPostInit+0xc8>)
 8001a1c:	6b5a      	ldr	r2, [r3, #52]	@ 0x34
 8001a1e:	4b28      	ldr	r3, [pc, #160]	@ (8001ac0 <HAL_TIM_MspPostInit+0xc8>)
 8001a20:	2101      	movs	r1, #1
 8001a22:	430a      	orrs	r2, r1
 8001a24:	635a      	str	r2, [r3, #52]	@ 0x34
 8001a26:	4b26      	ldr	r3, [pc, #152]	@ (8001ac0 <HAL_TIM_MspPostInit+0xc8>)
 8001a28:	6b5b      	ldr	r3, [r3, #52]	@ 0x34
 8001a2a:	2201      	movs	r2, #1
 8001a2c:	4013      	ands	r3, r2
 8001a2e:	613b      	str	r3, [r7, #16]
 8001a30:	693b      	ldr	r3, [r7, #16]
    /**TIM1 GPIO Configuration
    PA8     ------> TIM1_CH1
    */
    GPIO_InitStruct.Pin = DRV_Pin;
 8001a32:	193b      	adds	r3, r7, r4
 8001a34:	2280      	movs	r2, #128	@ 0x80
 8001a36:	0052      	lsls	r2, r2, #1
 8001a38:	601a      	str	r2, [r3, #0]
    GPIO_InitStruct.Mode = GPIO_MODE_AF_PP;
 8001a3a:	0021      	movs	r1, r4
 8001a3c:	187b      	adds	r3, r7, r1
 8001a3e:	2202      	movs	r2, #2
 8001a40:	605a      	str	r2, [r3, #4]
    GPIO_InitStruct.Pull = GPIO_NOPULL;
 8001a42:	187b      	adds	r3, r7, r1
 8001a44:	2200      	movs	r2, #0
 8001a46:	609a      	str	r2, [r3, #8]
    GPIO_InitStruct.Speed = GPIO_SPEED_FREQ_VERY_HIGH;
 8001a48:	187b      	adds	r3, r7, r1
 8001a4a:	2203      	movs	r2, #3
 8001a4c:	60da      	str	r2, [r3, #12]
    GPIO_InitStruct.Alternate = GPIO_AF2_TIM1;
 8001a4e:	187b      	adds	r3, r7, r1
 8001a50:	2202      	movs	r2, #2
 8001a52:	611a      	str	r2, [r3, #16]
    HAL_GPIO_Init(DRV_GPIO_Port, &GPIO_InitStruct);
 8001a54:	187a      	adds	r2, r7, r1
 8001a56:	23a0      	movs	r3, #160	@ 0xa0
 8001a58:	05db      	lsls	r3, r3, #23
 8001a5a:	0011      	movs	r1, r2
 8001a5c:	0018      	movs	r0, r3
 8001a5e:	f002 fa07 	bl	8003e70 <HAL_GPIO_Init>
    /* USER CODE BEGIN TIM2_MspPostInit 1 */

    /* USER CODE END TIM2_MspPostInit 1 */
  }

}
 8001a62:	e027      	b.n	8001ab4 <HAL_TIM_MspPostInit+0xbc>
  else if(htim->Instance==TIM2)
 8001a64:	687b      	ldr	r3, [r7, #4]
 8001a66:	681a      	ldr	r2, [r3, #0]
 8001a68:	2380      	movs	r3, #128	@ 0x80
 8001a6a:	05db      	lsls	r3, r3, #23
 8001a6c:	429a      	cmp	r2, r3
 8001a6e:	d121      	bne.n	8001ab4 <HAL_TIM_MspPostInit+0xbc>
    __HAL_RCC_GPIOC_CLK_ENABLE();
 8001a70:	4b13      	ldr	r3, [pc, #76]	@ (8001ac0 <HAL_TIM_MspPostInit+0xc8>)
 8001a72:	6b5a      	ldr	r2, [r3, #52]	@ 0x34
 8001a74:	4b12      	ldr	r3, [pc, #72]	@ (8001ac0 <HAL_TIM_MspPostInit+0xc8>)
 8001a76:	2104      	movs	r1, #4
 8001a78:	430a      	orrs	r2, r1
 8001a7a:	635a      	str	r2, [r3, #52]	@ 0x34
 8001a7c:	4b10      	ldr	r3, [pc, #64]	@ (8001ac0 <HAL_TIM_MspPostInit+0xc8>)
 8001a7e:	6b5b      	ldr	r3, [r3, #52]	@ 0x34
 8001a80:	2204      	movs	r2, #4
 8001a82:	4013      	ands	r3, r2
 8001a84:	60fb      	str	r3, [r7, #12]
 8001a86:	68fb      	ldr	r3, [r7, #12]
    GPIO_InitStruct.Pin = PWM_out_ALIVE_Pin;
 8001a88:	2114      	movs	r1, #20
 8001a8a:	187b      	adds	r3, r7, r1
 8001a8c:	2240      	movs	r2, #64	@ 0x40
 8001a8e:	601a      	str	r2, [r3, #0]
    GPIO_InitStruct.Mode = GPIO_MODE_AF_PP;
 8001a90:	187b      	adds	r3, r7, r1
 8001a92:	2202      	movs	r2, #2
 8001a94:	605a      	str	r2, [r3, #4]
    GPIO_InitStruct.Pull = GPIO_NOPULL;
 8001a96:	187b      	adds	r3, r7, r1
 8001a98:	2200      	movs	r2, #0
 8001a9a:	609a      	str	r2, [r3, #8]
    GPIO_InitStruct.Speed = GPIO_SPEED_FREQ_LOW;
 8001a9c:	187b      	adds	r3, r7, r1
 8001a9e:	2200      	movs	r2, #0
 8001aa0:	60da      	str	r2, [r3, #12]
    GPIO_InitStruct.Alternate = GPIO_AF2_TIM2;
 8001aa2:	187b      	adds	r3, r7, r1
 8001aa4:	2202      	movs	r2, #2
 8001aa6:	611a      	str	r2, [r3, #16]
    HAL_GPIO_Init(PWM_out_ALIVE_GPIO_Port, &GPIO_InitStruct);
 8001aa8:	187b      	adds	r3, r7, r1
 8001aaa:	4a06      	ldr	r2, [pc, #24]	@ (8001ac4 <HAL_TIM_MspPostInit+0xcc>)
 8001aac:	0019      	movs	r1, r3
 8001aae:	0010      	movs	r0, r2
 8001ab0:	f002 f9de 	bl	8003e70 <HAL_GPIO_Init>
}
 8001ab4:	46c0      	nop			@ (mov r8, r8)
 8001ab6:	46bd      	mov	sp, r7
 8001ab8:	b00b      	add	sp, #44	@ 0x2c
 8001aba:	bd90      	pop	{r4, r7, pc}
 8001abc:	40012c00 	.word	0x40012c00
 8001ac0:	40021000 	.word	0x40021000
 8001ac4:	50000800 	.word	0x50000800

08001ac8 <HAL_UART_MspInit>:
  * This function configures the hardware resources used in this example
  * @param huart: UART handle pointer
  * @retval None
  */
void HAL_UART_MspInit(UART_HandleTypeDef* huart)
{
 8001ac8:	b590      	push	{r4, r7, lr}
 8001aca:	b097      	sub	sp, #92	@ 0x5c
 8001acc:	af00      	add	r7, sp, #0
 8001ace:	6078      	str	r0, [r7, #4]
  GPIO_InitTypeDef GPIO_InitStruct = {0};
 8001ad0:	2344      	movs	r3, #68	@ 0x44
 8001ad2:	18fb      	adds	r3, r7, r3
 8001ad4:	0018      	movs	r0, r3
 8001ad6:	2314      	movs	r3, #20
 8001ad8:	001a      	movs	r2, r3
 8001ada:	2100      	movs	r1, #0
 8001adc:	f005 fe10 	bl	8007700 <memset>
  RCC_PeriphCLKInitTypeDef PeriphClkInit = {0};
 8001ae0:	2410      	movs	r4, #16
 8001ae2:	193b      	adds	r3, r7, r4
 8001ae4:	0018      	movs	r0, r3
 8001ae6:	2334      	movs	r3, #52	@ 0x34
 8001ae8:	001a      	movs	r2, r3
 8001aea:	2100      	movs	r1, #0
 8001aec:	f005 fe08 	bl	8007700 <memset>
  if(huart->Instance==USART2)
 8001af0:	687b      	ldr	r3, [r7, #4]
 8001af2:	681b      	ldr	r3, [r3, #0]
 8001af4:	4a22      	ldr	r2, [pc, #136]	@ (8001b80 <HAL_UART_MspInit+0xb8>)
 8001af6:	4293      	cmp	r3, r2
 8001af8:	d13e      	bne.n	8001b78 <HAL_UART_MspInit+0xb0>

    /* USER CODE END USART2_MspInit 0 */

  /** Initializes the peripherals clocks
  */
    PeriphClkInit.PeriphClockSelection = RCC_PERIPHCLK_USART2;
 8001afa:	193b      	adds	r3, r7, r4
 8001afc:	2202      	movs	r2, #2
 8001afe:	601a      	str	r2, [r3, #0]
    PeriphClkInit.Usart2ClockSelection = RCC_USART2CLKSOURCE_PCLK1;
 8001b00:	193b      	adds	r3, r7, r4
 8001b02:	2200      	movs	r2, #0
 8001b04:	609a      	str	r2, [r3, #8]
    if (HAL_RCCEx_PeriphCLKConfig(&PeriphClkInit) != HAL_OK)
 8001b06:	193b      	adds	r3, r7, r4
 8001b08:	0018      	movs	r0, r3
 8001b0a:	f003 f87b 	bl	8004c04 <HAL_RCCEx_PeriphCLKConfig>
 8001b0e:	1e03      	subs	r3, r0, #0
 8001b10:	d001      	beq.n	8001b16 <HAL_UART_MspInit+0x4e>
    {
      Error_Handler();
 8001b12:	f7ff fcef 	bl	80014f4 <Error_Handler>
    }

    /* Peripheral clock enable */
    __HAL_RCC_USART2_CLK_ENABLE();
 8001b16:	4b1b      	ldr	r3, [pc, #108]	@ (8001b84 <HAL_UART_MspInit+0xbc>)
 8001b18:	6bda      	ldr	r2, [r3, #60]	@ 0x3c
 8001b1a:	4b1a      	ldr	r3, [pc, #104]	@ (8001b84 <HAL_UART_MspInit+0xbc>)
 8001b1c:	2180      	movs	r1, #128	@ 0x80
 8001b1e:	0289      	lsls	r1, r1, #10
 8001b20:	430a      	orrs	r2, r1
 8001b22:	63da      	str	r2, [r3, #60]	@ 0x3c
 8001b24:	4b17      	ldr	r3, [pc, #92]	@ (8001b84 <HAL_UART_MspInit+0xbc>)
 8001b26:	6bda      	ldr	r2, [r3, #60]	@ 0x3c
 8001b28:	2380      	movs	r3, #128	@ 0x80
 8001b2a:	029b      	lsls	r3, r3, #10
 8001b2c:	4013      	ands	r3, r2
 8001b2e:	60fb      	str	r3, [r7, #12]
 8001b30:	68fb      	ldr	r3, [r7, #12]

    __HAL_RCC_GPIOA_CLK_ENABLE();
 8001b32:	4b14      	ldr	r3, [pc, #80]	@ (8001b84 <HAL_UART_MspInit+0xbc>)
 8001b34:	6b5a      	ldr	r2, [r3, #52]	@ 0x34
 8001b36:	4b13      	ldr	r3, [pc, #76]	@ (8001b84 <HAL_UART_MspInit+0xbc>)
 8001b38:	2101      	movs	r1, #1
 8001b3a:	430a      	orrs	r2, r1
 8001b3c:	635a      	str	r2, [r3, #52]	@ 0x34
 8001b3e:	4b11      	ldr	r3, [pc, #68]	@ (8001b84 <HAL_UART_MspInit+0xbc>)
 8001b40:	6b5b      	ldr	r3, [r3, #52]	@ 0x34
 8001b42:	2201      	movs	r2, #1
 8001b44:	4013      	ands	r3, r2
 8001b46:	60bb      	str	r3, [r7, #8]
 8001b48:	68bb      	ldr	r3, [r7, #8]
    /**USART2 GPIO Configuration
    PA2     ------> USART2_TX
    PA15     ------> USART2_RX
    */
    GPIO_InitStruct.Pin = GPIO_PIN_2|GPIO_PIN_15;
 8001b4a:	2144      	movs	r1, #68	@ 0x44
 8001b4c:	187b      	adds	r3, r7, r1
 8001b4e:	4a0e      	ldr	r2, [pc, #56]	@ (8001b88 <HAL_UART_MspInit+0xc0>)
 8001b50:	601a      	str	r2, [r3, #0]
    GPIO_InitStruct.Mode = GPIO_MODE_AF_PP;
 8001b52:	187b      	adds	r3, r7, r1
 8001b54:	2202      	movs	r2, #2
 8001b56:	605a      	str	r2, [r3, #4]
    GPIO_InitStruct.Pull = GPIO_NOPULL;
 8001b58:	187b      	adds	r3, r7, r1
 8001b5a:	2200      	movs	r2, #0
 8001b5c:	609a      	str	r2, [r3, #8]
    GPIO_InitStruct.Speed = GPIO_SPEED_FREQ_LOW;
 8001b5e:	187b      	adds	r3, r7, r1
 8001b60:	2200      	movs	r2, #0
 8001b62:	60da      	str	r2, [r3, #12]
    GPIO_InitStruct.Alternate = GPIO_AF1_USART2;
 8001b64:	187b      	adds	r3, r7, r1
 8001b66:	2201      	movs	r2, #1
 8001b68:	611a      	str	r2, [r3, #16]
    HAL_GPIO_Init(GPIOA, &GPIO_InitStruct);
 8001b6a:	187a      	adds	r2, r7, r1
 8001b6c:	23a0      	movs	r3, #160	@ 0xa0
 8001b6e:	05db      	lsls	r3, r3, #23
 8001b70:	0011      	movs	r1, r2
 8001b72:	0018      	movs	r0, r3
 8001b74:	f002 f97c 	bl	8003e70 <HAL_GPIO_Init>

    /* USER CODE END USART2_MspInit 1 */

  }

}
 8001b78:	46c0      	nop			@ (mov r8, r8)
 8001b7a:	46bd      	mov	sp, r7
 8001b7c:	b017      	add	sp, #92	@ 0x5c
 8001b7e:	bd90      	pop	{r4, r7, pc}
 8001b80:	40004400 	.word	0x40004400
 8001b84:	40021000 	.word	0x40021000
 8001b88:	00008004 	.word	0x00008004

08001b8c <NMI_Handler>:
/******************************************************************************/
/**
  * @brief This function handles Non maskable interrupt.
  */
void NMI_Handler(void)
{
 8001b8c:	b580      	push	{r7, lr}
 8001b8e:	af00      	add	r7, sp, #0
  /* USER CODE BEGIN NonMaskableInt_IRQn 0 */

  /* USER CODE END NonMaskableInt_IRQn 0 */
  /* USER CODE BEGIN NonMaskableInt_IRQn 1 */
   while (1)
 8001b90:	46c0      	nop			@ (mov r8, r8)
 8001b92:	e7fd      	b.n	8001b90 <NMI_Handler+0x4>

08001b94 <HardFault_Handler>:

/**
  * @brief This function handles Hard fault interrupt.
  */
void HardFault_Handler(void)
{
 8001b94:	b580      	push	{r7, lr}
 8001b96:	af00      	add	r7, sp, #0
  /* USER CODE BEGIN HardFault_IRQn 0 */

  /* USER CODE END HardFault_IRQn 0 */
  while (1)
 8001b98:	46c0      	nop			@ (mov r8, r8)
 8001b9a:	e7fd      	b.n	8001b98 <HardFault_Handler+0x4>

08001b9c <SVC_Handler>:

/**
  * @brief This function handles System service call via SWI instruction.
  */
void SVC_Handler(void)
{
 8001b9c:	b580      	push	{r7, lr}
 8001b9e:	af00      	add	r7, sp, #0

  /* USER CODE END SVC_IRQn 0 */
  /* USER CODE BEGIN SVC_IRQn 1 */

  /* USER CODE END SVC_IRQn 1 */
}
 8001ba0:	46c0      	nop			@ (mov r8, r8)
 8001ba2:	46bd      	mov	sp, r7
 8001ba4:	bd80      	pop	{r7, pc}

08001ba6 <PendSV_Handler>:

/**
  * @brief This function handles Pendable request for system service.
  */
void PendSV_Handler(void)
{
 8001ba6:	b580      	push	{r7, lr}
 8001ba8:	af00      	add	r7, sp, #0

  /* USER CODE END PendSV_IRQn 0 */
  /* USER CODE BEGIN PendSV_IRQn 1 */

  /* USER CODE END PendSV_IRQn 1 */
}
 8001baa:	46c0      	nop			@ (mov r8, r8)
 8001bac:	46bd      	mov	sp, r7
 8001bae:	bd80      	pop	{r7, pc}

08001bb0 <SysTick_Handler>:

/**
  * @brief This function handles System tick timer.
  */
void SysTick_Handler(void)
{
 8001bb0:	b580      	push	{r7, lr}
 8001bb2:	af00      	add	r7, sp, #0
  /* USER CODE BEGIN SysTick_IRQn 0 */

  /* USER CODE END SysTick_IRQn 0 */
  HAL_IncTick();
 8001bb4:	f000 f980 	bl	8001eb8 <HAL_IncTick>
  /* USER CODE BEGIN SysTick_IRQn 1 */

  /* USER CODE END SysTick_IRQn 1 */
}
 8001bb8:	46c0      	nop			@ (mov r8, r8)
 8001bba:	46bd      	mov	sp, r7
 8001bbc:	bd80      	pop	{r7, pc}
	...

08001bc0 <DMA1_Channel1_IRQHandler>:

/**
  * @brief This function handles DMA1 channel 1 interrupt.
  */
void DMA1_Channel1_IRQHandler(void)
{
 8001bc0:	b580      	push	{r7, lr}
 8001bc2:	af00      	add	r7, sp, #0
  /* USER CODE BEGIN DMA1_Channel1_IRQn 0 */


  /* USER CODE END DMA1_Channel1_IRQn 0 */
  HAL_DMA_IRQHandler(&hdma_adc1);
 8001bc4:	4b36      	ldr	r3, [pc, #216]	@ (8001ca0 <DMA1_Channel1_IRQHandler+0xe0>)
 8001bc6:	0018      	movs	r0, r3
 8001bc8:	f002 f810 	bl	8003bec <HAL_DMA_IRQHandler>
  /* USER CODE BEGIN DMA1_Channel1_IRQn 1 */

	// All ADC channels transferred via DMA
  for (iADCchannels = 0; iADCchannels < numberADCchannels; iADCchannels++) {
 8001bcc:	4b35      	ldr	r3, [pc, #212]	@ (8001ca4 <DMA1_Channel1_IRQHandler+0xe4>)
 8001bce:	2200      	movs	r2, #0
 8001bd0:	701a      	strb	r2, [r3, #0]
 8001bd2:	e03d      	b.n	8001c50 <DMA1_Channel1_IRQHandler+0x90>
	  currentMeasurement = adc_DMA[iADCchannels]>>2; // divide current measurement value by 4
 8001bd4:	4b33      	ldr	r3, [pc, #204]	@ (8001ca4 <DMA1_Channel1_IRQHandler+0xe4>)
 8001bd6:	781b      	ldrb	r3, [r3, #0]
 8001bd8:	001a      	movs	r2, r3
 8001bda:	4b33      	ldr	r3, [pc, #204]	@ (8001ca8 <DMA1_Channel1_IRQHandler+0xe8>)
 8001bdc:	0052      	lsls	r2, r2, #1
 8001bde:	5ad3      	ldrh	r3, [r2, r3]
 8001be0:	b29b      	uxth	r3, r3
 8001be2:	089b      	lsrs	r3, r3, #2
 8001be4:	b29a      	uxth	r2, r3
 8001be6:	4b31      	ldr	r3, [pc, #196]	@ (8001cac <DMA1_Channel1_IRQHandler+0xec>)
 8001be8:	801a      	strh	r2, [r3, #0]
	  weightedOldValue = (adc_buffer[iADCchannels][0]*3)>>2; // multiply with 3/4
 8001bea:	4b2e      	ldr	r3, [pc, #184]	@ (8001ca4 <DMA1_Channel1_IRQHandler+0xe4>)
 8001bec:	781b      	ldrb	r3, [r3, #0]
 8001bee:	001a      	movs	r2, r3
 8001bf0:	4b2f      	ldr	r3, [pc, #188]	@ (8001cb0 <DMA1_Channel1_IRQHandler+0xf0>)
 8001bf2:	0092      	lsls	r2, r2, #2
 8001bf4:	5ad3      	ldrh	r3, [r2, r3]
 8001bf6:	b29b      	uxth	r3, r3
 8001bf8:	001a      	movs	r2, r3
 8001bfa:	0013      	movs	r3, r2
 8001bfc:	005b      	lsls	r3, r3, #1
 8001bfe:	189b      	adds	r3, r3, r2
 8001c00:	109b      	asrs	r3, r3, #2
 8001c02:	b29a      	uxth	r2, r3
 8001c04:	4b2b      	ldr	r3, [pc, #172]	@ (8001cb4 <DMA1_Channel1_IRQHandler+0xf4>)
 8001c06:	801a      	strh	r2, [r3, #0]
	  adc_buffer[iADCchannels][1] = currentMeasurement + weightedOldValue; // new averaged value
 8001c08:	4b28      	ldr	r3, [pc, #160]	@ (8001cac <DMA1_Channel1_IRQHandler+0xec>)
 8001c0a:	881a      	ldrh	r2, [r3, #0]
 8001c0c:	4b29      	ldr	r3, [pc, #164]	@ (8001cb4 <DMA1_Channel1_IRQHandler+0xf4>)
 8001c0e:	881b      	ldrh	r3, [r3, #0]
 8001c10:	4924      	ldr	r1, [pc, #144]	@ (8001ca4 <DMA1_Channel1_IRQHandler+0xe4>)
 8001c12:	7809      	ldrb	r1, [r1, #0]
 8001c14:	0008      	movs	r0, r1
 8001c16:	18d3      	adds	r3, r2, r3
 8001c18:	b299      	uxth	r1, r3
 8001c1a:	4a25      	ldr	r2, [pc, #148]	@ (8001cb0 <DMA1_Channel1_IRQHandler+0xf0>)
 8001c1c:	0083      	lsls	r3, r0, #2
 8001c1e:	18d3      	adds	r3, r2, r3
 8001c20:	3302      	adds	r3, #2
 8001c22:	1c0a      	adds	r2, r1, #0
 8001c24:	801a      	strh	r2, [r3, #0]
	  adc_buffer[iADCchannels][0] = adc_buffer[iADCchannels][1]; // transfer value from current to old
 8001c26:	4b1f      	ldr	r3, [pc, #124]	@ (8001ca4 <DMA1_Channel1_IRQHandler+0xe4>)
 8001c28:	781b      	ldrb	r3, [r3, #0]
 8001c2a:	0019      	movs	r1, r3
 8001c2c:	4b1d      	ldr	r3, [pc, #116]	@ (8001ca4 <DMA1_Channel1_IRQHandler+0xe4>)
 8001c2e:	781b      	ldrb	r3, [r3, #0]
 8001c30:	0018      	movs	r0, r3
 8001c32:	4a1f      	ldr	r2, [pc, #124]	@ (8001cb0 <DMA1_Channel1_IRQHandler+0xf0>)
 8001c34:	008b      	lsls	r3, r1, #2
 8001c36:	18d3      	adds	r3, r2, r3
 8001c38:	3302      	adds	r3, #2
 8001c3a:	881b      	ldrh	r3, [r3, #0]
 8001c3c:	b299      	uxth	r1, r3
 8001c3e:	4b1c      	ldr	r3, [pc, #112]	@ (8001cb0 <DMA1_Channel1_IRQHandler+0xf0>)
 8001c40:	0082      	lsls	r2, r0, #2
 8001c42:	52d1      	strh	r1, [r2, r3]
  for (iADCchannels = 0; iADCchannels < numberADCchannels; iADCchannels++) {
 8001c44:	4b17      	ldr	r3, [pc, #92]	@ (8001ca4 <DMA1_Channel1_IRQHandler+0xe4>)
 8001c46:	781b      	ldrb	r3, [r3, #0]
 8001c48:	3301      	adds	r3, #1
 8001c4a:	b2da      	uxtb	r2, r3
 8001c4c:	4b15      	ldr	r3, [pc, #84]	@ (8001ca4 <DMA1_Channel1_IRQHandler+0xe4>)
 8001c4e:	701a      	strb	r2, [r3, #0]
 8001c50:	4b14      	ldr	r3, [pc, #80]	@ (8001ca4 <DMA1_Channel1_IRQHandler+0xe4>)
 8001c52:	781a      	ldrb	r2, [r3, #0]
 8001c54:	4b18      	ldr	r3, [pc, #96]	@ (8001cb8 <DMA1_Channel1_IRQHandler+0xf8>)
 8001c56:	781b      	ldrb	r3, [r3, #0]
 8001c58:	b2db      	uxtb	r3, r3
 8001c5a:	429a      	cmp	r2, r3
 8001c5c:	d3ba      	bcc.n	8001bd4 <DMA1_Channel1_IRQHandler+0x14>
  }

	adc_24V = adc_buffer[0][1]; // 4095 = 36.3 V
 8001c5e:	4b14      	ldr	r3, [pc, #80]	@ (8001cb0 <DMA1_Channel1_IRQHandler+0xf0>)
 8001c60:	885b      	ldrh	r3, [r3, #2]
 8001c62:	b29a      	uxth	r2, r3
 8001c64:	4b15      	ldr	r3, [pc, #84]	@ (8001cbc <DMA1_Channel1_IRQHandler+0xfc>)
 8001c66:	801a      	strh	r2, [r3, #0]
	adc_tempMOSFET = adc_buffer[1][1]; // 2482 = 2V = 90C
 8001c68:	4b11      	ldr	r3, [pc, #68]	@ (8001cb0 <DMA1_Channel1_IRQHandler+0xf0>)
 8001c6a:	88db      	ldrh	r3, [r3, #6]
 8001c6c:	b29a      	uxth	r2, r3
 8001c6e:	4b14      	ldr	r3, [pc, #80]	@ (8001cc0 <DMA1_Channel1_IRQHandler+0x100>)
 8001c70:	801a      	strh	r2, [r3, #0]
	adc_uSenseLamp = adc_buffer[2][1];
 8001c72:	4b0f      	ldr	r3, [pc, #60]	@ (8001cb0 <DMA1_Channel1_IRQHandler+0xf0>)
 8001c74:	895b      	ldrh	r3, [r3, #10]
 8001c76:	b29a      	uxth	r2, r3
 8001c78:	4b12      	ldr	r3, [pc, #72]	@ (8001cc4 <DMA1_Channel1_IRQHandler+0x104>)
 8001c7a:	801a      	strh	r2, [r3, #0]
	adc_iSenseLamp = adc_buffer[3][1];
 8001c7c:	4b0c      	ldr	r3, [pc, #48]	@ (8001cb0 <DMA1_Channel1_IRQHandler+0xf0>)
 8001c7e:	89db      	ldrh	r3, [r3, #14]
 8001c80:	b29a      	uxth	r2, r3
 8001c82:	4b11      	ldr	r3, [pc, #68]	@ (8001cc8 <DMA1_Channel1_IRQHandler+0x108>)
 8001c84:	801a      	strh	r2, [r3, #0]
	adc_lampIntensity = adc_buffer[4][1];
 8001c86:	4b0a      	ldr	r3, [pc, #40]	@ (8001cb0 <DMA1_Channel1_IRQHandler+0xf0>)
 8001c88:	8a5b      	ldrh	r3, [r3, #18]
 8001c8a:	b29a      	uxth	r2, r3
 8001c8c:	4b0f      	ldr	r3, [pc, #60]	@ (8001ccc <DMA1_Channel1_IRQHandler+0x10c>)
 8001c8e:	801a      	strh	r2, [r3, #0]
	adc_iSenseIn = adc_buffer[5][1]; // 2707 = 24V,  4095 = 0.825 A
 8001c90:	4b07      	ldr	r3, [pc, #28]	@ (8001cb0 <DMA1_Channel1_IRQHandler+0xf0>)
 8001c92:	8adb      	ldrh	r3, [r3, #22]
 8001c94:	b29a      	uxth	r2, r3
 8001c96:	4b0e      	ldr	r3, [pc, #56]	@ (8001cd0 <DMA1_Channel1_IRQHandler+0x110>)
 8001c98:	801a      	strh	r2, [r3, #0]

  /* USER CODE END DMA1_Channel1_IRQn 1 */
}
 8001c9a:	46c0      	nop			@ (mov r8, r8)
 8001c9c:	46bd      	mov	sp, r7
 8001c9e:	bd80      	pop	{r7, pc}
 8001ca0:	200000e0 	.word	0x200000e0
 8001ca4:	20000396 	.word	0x20000396
 8001ca8:	2000004c 	.word	0x2000004c
 8001cac:	20000398 	.word	0x20000398
 8001cb0:	20000058 	.word	0x20000058
 8001cb4:	2000039a 	.word	0x2000039a
 8001cb8:	20000000 	.word	0x20000000
 8001cbc:	20000070 	.word	0x20000070
 8001cc0:	20000072 	.word	0x20000072
 8001cc4:	20000074 	.word	0x20000074
 8001cc8:	20000076 	.word	0x20000076
 8001ccc:	20000078 	.word	0x20000078
 8001cd0:	2000007a 	.word	0x2000007a

08001cd4 <ADC1_COMP_IRQHandler>:

/**
  * @brief This function handles ADC1, COMP1 and COMP2 interrupts (COMP interrupts through EXTI lines 17 and 18).
  */
void ADC1_COMP_IRQHandler(void)
{
 8001cd4:	b580      	push	{r7, lr}
 8001cd6:	af00      	add	r7, sp, #0
  /* USER CODE BEGIN ADC1_COMP_IRQn 0 */

  /* USER CODE END ADC1_COMP_IRQn 0 */
  HAL_ADC_IRQHandler(&hadc1);
 8001cd8:	4b03      	ldr	r3, [pc, #12]	@ (8001ce8 <ADC1_COMP_IRQHandler+0x14>)
 8001cda:	0018      	movs	r0, r3
 8001cdc:	f000 fcb6 	bl	800264c <HAL_ADC_IRQHandler>
  /* USER CODE BEGIN ADC1_COMP_IRQn 1 */

  /* USER CODE END ADC1_COMP_IRQn 1 */
}
 8001ce0:	46c0      	nop			@ (mov r8, r8)
 8001ce2:	46bd      	mov	sp, r7
 8001ce4:	bd80      	pop	{r7, pc}
 8001ce6:	46c0      	nop			@ (mov r8, r8)
 8001ce8:	2000007c 	.word	0x2000007c

08001cec <TIM3_IRQHandler>:

/**
  * @brief This function handles TIM3 global interrupt.
  */
void TIM3_IRQHandler(void)
{
 8001cec:	b580      	push	{r7, lr}
 8001cee:	af00      	add	r7, sp, #0
  /* USER CODE BEGIN TIM3_IRQn 0 */

  /* USER CODE END TIM3_IRQn 0 */
  HAL_TIM_IRQHandler(&htim3);
 8001cf0:	4b03      	ldr	r3, [pc, #12]	@ (8001d00 <TIM3_IRQHandler+0x14>)
 8001cf2:	0018      	movs	r0, r3
 8001cf4:	f003 fb8c 	bl	8005410 <HAL_TIM_IRQHandler>
  //risingEdge = HAL_TIM_ReadCapturedValue(htim, TIM_CHANNEL_2);
  //fallingEdge = HAL_TIM_ReadCapturedValue(htim, TIM_CHANNEL_1);


  /* USER CODE END TIM3_IRQn 1 */
}
 8001cf8:	46c0      	nop			@ (mov r8, r8)
 8001cfa:	46bd      	mov	sp, r7
 8001cfc:	bd80      	pop	{r7, pc}
 8001cfe:	46c0      	nop			@ (mov r8, r8)
 8001d00:	20000218 	.word	0x20000218

08001d04 <TIM6_DAC_LPTIM1_IRQHandler>:

/**
  * @brief This function handles TIM6, DAC1 and LPTIM1 interrupts (LPTIM1 interrupt through EXTI line 29).
  */
void TIM6_DAC_LPTIM1_IRQHandler(void)
{
 8001d04:	b580      	push	{r7, lr}
 8001d06:	af00      	add	r7, sp, #0
  /* USER CODE BEGIN TIM6_DAC_LPTIM1_IRQn 0 */

  /* USER CODE END TIM6_DAC_LPTIM1_IRQn 0 */
  HAL_TIM_IRQHandler(&htim6);
 8001d08:	4b13      	ldr	r3, [pc, #76]	@ (8001d58 <TIM6_DAC_LPTIM1_IRQHandler+0x54>)
 8001d0a:	0018      	movs	r0, r3
 8001d0c:	f003 fb80 	bl	8005410 <HAL_TIM_IRQHandler>
  HAL_DAC_IRQHandler(&hdac1);
 8001d10:	4b12      	ldr	r3, [pc, #72]	@ (8001d5c <TIM6_DAC_LPTIM1_IRQHandler+0x58>)
 8001d12:	0018      	movs	r0, r3
 8001d14:	f001 fc96 	bl	8003644 <HAL_DAC_IRQHandler>
  /* USER CODE BEGIN TIM6_DAC_LPTIM1_IRQn 1 */

  // 1 kHz interrupt
  tim6_irq_request = 1;
 8001d18:	4b11      	ldr	r3, [pc, #68]	@ (8001d60 <TIM6_DAC_LPTIM1_IRQHandler+0x5c>)
 8001d1a:	2201      	movs	r2, #1
 8001d1c:	701a      	strb	r2, [r3, #0]


  // 1 Hz interrupt
  if (k_slowIT <1000) {
 8001d1e:	4b11      	ldr	r3, [pc, #68]	@ (8001d64 <TIM6_DAC_LPTIM1_IRQHandler+0x60>)
 8001d20:	881a      	ldrh	r2, [r3, #0]
 8001d22:	23fa      	movs	r3, #250	@ 0xfa
 8001d24:	009b      	lsls	r3, r3, #2
 8001d26:	429a      	cmp	r2, r3
 8001d28:	d206      	bcs.n	8001d38 <TIM6_DAC_LPTIM1_IRQHandler+0x34>
	  k_slowIT++;
 8001d2a:	4b0e      	ldr	r3, [pc, #56]	@ (8001d64 <TIM6_DAC_LPTIM1_IRQHandler+0x60>)
 8001d2c:	881b      	ldrh	r3, [r3, #0]
 8001d2e:	3301      	adds	r3, #1
 8001d30:	b29a      	uxth	r2, r3
 8001d32:	4b0c      	ldr	r3, [pc, #48]	@ (8001d64 <TIM6_DAC_LPTIM1_IRQHandler+0x60>)
 8001d34:	801a      	strh	r2, [r3, #0]

  }


  /* USER CODE END TIM6_DAC_LPTIM1_IRQn 1 */
}
 8001d36:	e00b      	b.n	8001d50 <TIM6_DAC_LPTIM1_IRQHandler+0x4c>
  else if (k_slowIT >999) {
 8001d38:	4b0a      	ldr	r3, [pc, #40]	@ (8001d64 <TIM6_DAC_LPTIM1_IRQHandler+0x60>)
 8001d3a:	881a      	ldrh	r2, [r3, #0]
 8001d3c:	23fa      	movs	r3, #250	@ 0xfa
 8001d3e:	009b      	lsls	r3, r3, #2
 8001d40:	429a      	cmp	r2, r3
 8001d42:	d305      	bcc.n	8001d50 <TIM6_DAC_LPTIM1_IRQHandler+0x4c>
	  k_slowIT = 0;
 8001d44:	4b07      	ldr	r3, [pc, #28]	@ (8001d64 <TIM6_DAC_LPTIM1_IRQHandler+0x60>)
 8001d46:	2200      	movs	r2, #0
 8001d48:	801a      	strh	r2, [r3, #0]
	  tim6_slowIrq_request = 1;
 8001d4a:	4b07      	ldr	r3, [pc, #28]	@ (8001d68 <TIM6_DAC_LPTIM1_IRQHandler+0x64>)
 8001d4c:	2201      	movs	r2, #1
 8001d4e:	701a      	strb	r2, [r3, #0]
}
 8001d50:	46c0      	nop			@ (mov r8, r8)
 8001d52:	46bd      	mov	sp, r7
 8001d54:	bd80      	pop	{r7, pc}
 8001d56:	46c0      	nop			@ (mov r8, r8)
 8001d58:	20000264 	.word	0x20000264
 8001d5c:	2000016c 	.word	0x2000016c
 8001d60:	20000049 	.word	0x20000049
 8001d64:	20000394 	.word	0x20000394
 8001d68:	2000004a 	.word	0x2000004a

08001d6c <TIM16_IRQHandler>:

/**
  * @brief This function handles TIM16 global interrupt.
  */
void TIM16_IRQHandler(void)
{
 8001d6c:	b580      	push	{r7, lr}
 8001d6e:	af00      	add	r7, sp, #0
  /* USER CODE BEGIN TIM16_IRQn 0 */

  /* USER CODE END TIM16_IRQn 0 */
  HAL_TIM_IRQHandler(&htim16);
 8001d70:	4b03      	ldr	r3, [pc, #12]	@ (8001d80 <TIM16_IRQHandler+0x14>)
 8001d72:	0018      	movs	r0, r3
 8001d74:	f003 fb4c 	bl	8005410 <HAL_TIM_IRQHandler>
  /* USER CODE BEGIN TIM16_IRQn 1 */

  /* USER CODE END TIM16_IRQn 1 */
}
 8001d78:	46c0      	nop			@ (mov r8, r8)
 8001d7a:	46bd      	mov	sp, r7
 8001d7c:	bd80      	pop	{r7, pc}
 8001d7e:	46c0      	nop			@ (mov r8, r8)
 8001d80:	200002b0 	.word	0x200002b0

08001d84 <SystemInit>:
  * @brief  Setup the microcontroller system.
  * @param  None
  * @retval None
  */
void SystemInit(void)
{
 8001d84:	b580      	push	{r7, lr}
 8001d86:	af00      	add	r7, sp, #0
  /* Configure the Vector Table location -------------------------------------*/
#if defined(USER_VECT_TAB_ADDRESS)
  SCB->VTOR = VECT_TAB_BASE_ADDRESS | VECT_TAB_OFFSET; /* Vector Table Relocation */
#endif /* USER_VECT_TAB_ADDRESS */
}
 8001d88:	46c0      	nop			@ (mov r8, r8)
 8001d8a:	46bd      	mov	sp, r7
 8001d8c:	bd80      	pop	{r7, pc}
	...

08001d90 <Reset_Handler>:

  .section .text.Reset_Handler
  .weak Reset_Handler
  .type Reset_Handler, %function
Reset_Handler:
  ldr   r0, =_estack
 8001d90:	480d      	ldr	r0, [pc, #52]	@ (8001dc8 <LoopForever+0x2>)
  mov   sp, r0          /* set stack pointer */
 8001d92:	4685      	mov	sp, r0

/* Call the clock system initialization function.*/
  bl  SystemInit
 8001d94:	f7ff fff6 	bl	8001d84 <SystemInit>

/* Copy the data segment initializers from flash to SRAM */
  ldr r0, =_sdata
 8001d98:	480c      	ldr	r0, [pc, #48]	@ (8001dcc <LoopForever+0x6>)
  ldr r1, =_edata
 8001d9a:	490d      	ldr	r1, [pc, #52]	@ (8001dd0 <LoopForever+0xa>)
  ldr r2, =_sidata
 8001d9c:	4a0d      	ldr	r2, [pc, #52]	@ (8001dd4 <LoopForever+0xe>)
  movs r3, #0
 8001d9e:	2300      	movs	r3, #0
  b LoopCopyDataInit
 8001da0:	e002      	b.n	8001da8 <LoopCopyDataInit>

08001da2 <CopyDataInit>:

CopyDataInit:
  ldr r4, [r2, r3]
 8001da2:	58d4      	ldr	r4, [r2, r3]
  str r4, [r0, r3]
 8001da4:	50c4      	str	r4, [r0, r3]
  adds r3, r3, #4
 8001da6:	3304      	adds	r3, #4

08001da8 <LoopCopyDataInit>:

LoopCopyDataInit:
  adds r4, r0, r3
 8001da8:	18c4      	adds	r4, r0, r3
  cmp r4, r1
 8001daa:	428c      	cmp	r4, r1
  bcc CopyDataInit
 8001dac:	d3f9      	bcc.n	8001da2 <CopyDataInit>

/* Zero fill the bss segment. */
  ldr r2, =_sbss
 8001dae:	4a0a      	ldr	r2, [pc, #40]	@ (8001dd8 <LoopForever+0x12>)
  ldr r4, =_ebss
 8001db0:	4c0a      	ldr	r4, [pc, #40]	@ (8001ddc <LoopForever+0x16>)
  movs r3, #0
 8001db2:	2300      	movs	r3, #0
  b LoopFillZerobss
 8001db4:	e001      	b.n	8001dba <LoopFillZerobss>

08001db6 <FillZerobss>:

FillZerobss:
  str  r3, [r2]
 8001db6:	6013      	str	r3, [r2, #0]
  adds r2, r2, #4
 8001db8:	3204      	adds	r2, #4

08001dba <LoopFillZerobss>:

LoopFillZerobss:
  cmp r2, r4
 8001dba:	42a2      	cmp	r2, r4
  bcc FillZerobss
 8001dbc:	d3fb      	bcc.n	8001db6 <FillZerobss>

/* Call static constructors */
  bl __libc_init_array
 8001dbe:	f005 fca7 	bl	8007710 <__libc_init_array>
/* Call the application s entry point.*/
  bl main
 8001dc2:	f7fe fc2b 	bl	800061c <main>

08001dc6 <LoopForever>:

LoopForever:
  b LoopForever
 8001dc6:	e7fe      	b.n	8001dc6 <LoopForever>
  ldr   r0, =_estack
 8001dc8:	20009000 	.word	0x20009000
  ldr r0, =_sdata
 8001dcc:	20000000 	.word	0x20000000
  ldr r1, =_edata
 8001dd0:	20000028 	.word	0x20000028
  ldr r2, =_sidata
 8001dd4:	080078c4 	.word	0x080078c4
  ldr r2, =_sbss
 8001dd8:	20000028 	.word	0x20000028
  ldr r4, =_ebss
 8001ddc:	200003a0 	.word	0x200003a0

08001de0 <CEC_IRQHandler>:
 * @retval None
*/
  .section .text.Default_Handler,"ax",%progbits
Default_Handler:
Infinite_Loop:
  b Infinite_Loop
 8001de0:	e7fe      	b.n	8001de0 <CEC_IRQHandler>
	...

08001de4 <HAL_Init>:
  *         each 1ms in the SysTick_Handler() interrupt handler.
  *
  * @retval HAL status
  */
HAL_StatusTypeDef HAL_Init(void)
{
 8001de4:	b580      	push	{r7, lr}
 8001de6:	b082      	sub	sp, #8
 8001de8:	af00      	add	r7, sp, #0
  HAL_StatusTypeDef  status = HAL_OK;
 8001dea:	1dfb      	adds	r3, r7, #7
 8001dec:	2200      	movs	r2, #0
 8001dee:	701a      	strb	r2, [r3, #0]
#if (INSTRUCTION_CACHE_ENABLE == 0U)
  __HAL_FLASH_INSTRUCTION_CACHE_DISABLE();
#endif /* INSTRUCTION_CACHE_ENABLE */

#if (PREFETCH_ENABLE != 0U)
  __HAL_FLASH_PREFETCH_BUFFER_ENABLE();
 8001df0:	4b0b      	ldr	r3, [pc, #44]	@ (8001e20 <HAL_Init+0x3c>)
 8001df2:	681a      	ldr	r2, [r3, #0]
 8001df4:	4b0a      	ldr	r3, [pc, #40]	@ (8001e20 <HAL_Init+0x3c>)
 8001df6:	2180      	movs	r1, #128	@ 0x80
 8001df8:	0049      	lsls	r1, r1, #1
 8001dfa:	430a      	orrs	r2, r1
 8001dfc:	601a      	str	r2, [r3, #0]
#endif /* PREFETCH_ENABLE */

  /* Use SysTick as time base source and configure 1ms tick (default clock after Reset is HSI) */
  if (HAL_InitTick(TICK_INT_PRIORITY) != HAL_OK)
 8001dfe:	2003      	movs	r0, #3
 8001e00:	f000 f810 	bl	8001e24 <HAL_InitTick>
 8001e04:	1e03      	subs	r3, r0, #0
 8001e06:	d003      	beq.n	8001e10 <HAL_Init+0x2c>
  {
    status = HAL_ERROR;
 8001e08:	1dfb      	adds	r3, r7, #7
 8001e0a:	2201      	movs	r2, #1
 8001e0c:	701a      	strb	r2, [r3, #0]
 8001e0e:	e001      	b.n	8001e14 <HAL_Init+0x30>
  }
  else
  {
  /* Init the low level hardware */
  HAL_MspInit();
 8001e10:	f7ff fb84 	bl	800151c <HAL_MspInit>
  }

  /* Return function status */
  return status;
 8001e14:	1dfb      	adds	r3, r7, #7
 8001e16:	781b      	ldrb	r3, [r3, #0]
}
 8001e18:	0018      	movs	r0, r3
 8001e1a:	46bd      	mov	sp, r7
 8001e1c:	b002      	add	sp, #8
 8001e1e:	bd80      	pop	{r7, pc}
 8001e20:	40022000 	.word	0x40022000

08001e24 <HAL_InitTick>:
  *       implementation  in user file.
  * @param TickPriority Tick interrupt priority.
  * @retval HAL status
  */
__weak HAL_StatusTypeDef HAL_InitTick(uint32_t TickPriority)
{
 8001e24:	b590      	push	{r4, r7, lr}
 8001e26:	b085      	sub	sp, #20
 8001e28:	af00      	add	r7, sp, #0
 8001e2a:	6078      	str	r0, [r7, #4]
  HAL_StatusTypeDef  status = HAL_OK;
 8001e2c:	230f      	movs	r3, #15
 8001e2e:	18fb      	adds	r3, r7, r3
 8001e30:	2200      	movs	r2, #0
 8001e32:	701a      	strb	r2, [r3, #0]

  /* Check uwTickFreq for MisraC 2012 (even if uwTickFreq is a enum type that doesn't take the value zero)*/ 
  if ((uint32_t)uwTickFreq != 0U)
 8001e34:	4b1d      	ldr	r3, [pc, #116]	@ (8001eac <HAL_InitTick+0x88>)
 8001e36:	781b      	ldrb	r3, [r3, #0]
 8001e38:	2b00      	cmp	r3, #0
 8001e3a:	d02b      	beq.n	8001e94 <HAL_InitTick+0x70>
  {
    /*Configure the SysTick to have interrupt in 1ms time basis*/
    if (HAL_SYSTICK_Config(SystemCoreClock / (1000U /(uint32_t)uwTickFreq)) == 0U)
 8001e3c:	4b1c      	ldr	r3, [pc, #112]	@ (8001eb0 <HAL_InitTick+0x8c>)
 8001e3e:	681c      	ldr	r4, [r3, #0]
 8001e40:	4b1a      	ldr	r3, [pc, #104]	@ (8001eac <HAL_InitTick+0x88>)
 8001e42:	781b      	ldrb	r3, [r3, #0]
 8001e44:	0019      	movs	r1, r3
 8001e46:	23fa      	movs	r3, #250	@ 0xfa
 8001e48:	0098      	lsls	r0, r3, #2
 8001e4a:	f7fe f95b 	bl	8000104 <__udivsi3>
 8001e4e:	0003      	movs	r3, r0
 8001e50:	0019      	movs	r1, r3
 8001e52:	0020      	movs	r0, r4
 8001e54:	f7fe f956 	bl	8000104 <__udivsi3>
 8001e58:	0003      	movs	r3, r0
 8001e5a:	0018      	movs	r0, r3
 8001e5c:	f001 fb6b 	bl	8003536 <HAL_SYSTICK_Config>
 8001e60:	1e03      	subs	r3, r0, #0
 8001e62:	d112      	bne.n	8001e8a <HAL_InitTick+0x66>
    {
      /* Configure the SysTick IRQ priority */
      if (TickPriority < (1UL << __NVIC_PRIO_BITS))
 8001e64:	687b      	ldr	r3, [r7, #4]
 8001e66:	2b03      	cmp	r3, #3
 8001e68:	d80a      	bhi.n	8001e80 <HAL_InitTick+0x5c>
      {
        HAL_NVIC_SetPriority(SysTick_IRQn, TickPriority, 0U);
 8001e6a:	6879      	ldr	r1, [r7, #4]
 8001e6c:	2301      	movs	r3, #1
 8001e6e:	425b      	negs	r3, r3
 8001e70:	2200      	movs	r2, #0
 8001e72:	0018      	movs	r0, r3
 8001e74:	f001 fb3a 	bl	80034ec <HAL_NVIC_SetPriority>
        uwTickPrio = TickPriority;
 8001e78:	4b0e      	ldr	r3, [pc, #56]	@ (8001eb4 <HAL_InitTick+0x90>)
 8001e7a:	687a      	ldr	r2, [r7, #4]
 8001e7c:	601a      	str	r2, [r3, #0]
 8001e7e:	e00d      	b.n	8001e9c <HAL_InitTick+0x78>
      }
      else
      {
        status = HAL_ERROR;
 8001e80:	230f      	movs	r3, #15
 8001e82:	18fb      	adds	r3, r7, r3
 8001e84:	2201      	movs	r2, #1
 8001e86:	701a      	strb	r2, [r3, #0]
 8001e88:	e008      	b.n	8001e9c <HAL_InitTick+0x78>
      }
    }
    else
    {
      status = HAL_ERROR;
 8001e8a:	230f      	movs	r3, #15
 8001e8c:	18fb      	adds	r3, r7, r3
 8001e8e:	2201      	movs	r2, #1
 8001e90:	701a      	strb	r2, [r3, #0]
 8001e92:	e003      	b.n	8001e9c <HAL_InitTick+0x78>
    }
  }
  else
  {
    status = HAL_ERROR;
 8001e94:	230f      	movs	r3, #15
 8001e96:	18fb      	adds	r3, r7, r3
 8001e98:	2201      	movs	r2, #1
 8001e9a:	701a      	strb	r2, [r3, #0]
  }

  /* Return function status */
  return status;
 8001e9c:	230f      	movs	r3, #15
 8001e9e:	18fb      	adds	r3, r7, r3
 8001ea0:	781b      	ldrb	r3, [r3, #0]
}
 8001ea2:	0018      	movs	r0, r3
 8001ea4:	46bd      	mov	sp, r7
 8001ea6:	b005      	add	sp, #20
 8001ea8:	bd90      	pop	{r4, r7, pc}
 8001eaa:	46c0      	nop			@ (mov r8, r8)
 8001eac:	20000024 	.word	0x20000024
 8001eb0:	2000001c 	.word	0x2000001c
 8001eb4:	20000020 	.word	0x20000020

08001eb8 <HAL_IncTick>:
  * @note This function is declared as __weak to be overwritten in case of other
  *      implementations in user file.
  * @retval None
  */
__weak void HAL_IncTick(void)
{
 8001eb8:	b580      	push	{r7, lr}
 8001eba:	af00      	add	r7, sp, #0
  uwTick += (uint32_t)uwTickFreq;
 8001ebc:	4b05      	ldr	r3, [pc, #20]	@ (8001ed4 <HAL_IncTick+0x1c>)
 8001ebe:	781b      	ldrb	r3, [r3, #0]
 8001ec0:	001a      	movs	r2, r3
 8001ec2:	4b05      	ldr	r3, [pc, #20]	@ (8001ed8 <HAL_IncTick+0x20>)
 8001ec4:	681b      	ldr	r3, [r3, #0]
 8001ec6:	18d2      	adds	r2, r2, r3
 8001ec8:	4b03      	ldr	r3, [pc, #12]	@ (8001ed8 <HAL_IncTick+0x20>)
 8001eca:	601a      	str	r2, [r3, #0]
}
 8001ecc:	46c0      	nop			@ (mov r8, r8)
 8001ece:	46bd      	mov	sp, r7
 8001ed0:	bd80      	pop	{r7, pc}
 8001ed2:	46c0      	nop			@ (mov r8, r8)
 8001ed4:	20000024 	.word	0x20000024
 8001ed8:	2000039c 	.word	0x2000039c

08001edc <HAL_GetTick>:
  * @note This function is declared as __weak to be overwritten in case of other
  *       implementations in user file.
  * @retval tick value
  */
__weak uint32_t HAL_GetTick(void)
{
 8001edc:	b580      	push	{r7, lr}
 8001ede:	af00      	add	r7, sp, #0
  return uwTick;
 8001ee0:	4b02      	ldr	r3, [pc, #8]	@ (8001eec <HAL_GetTick+0x10>)
 8001ee2:	681b      	ldr	r3, [r3, #0]
}
 8001ee4:	0018      	movs	r0, r3
 8001ee6:	46bd      	mov	sp, r7
 8001ee8:	bd80      	pop	{r7, pc}
 8001eea:	46c0      	nop			@ (mov r8, r8)
 8001eec:	2000039c 	.word	0x2000039c

08001ef0 <HAL_Delay>:
  *       implementations in user file.
  * @param Delay  specifies the delay time length, in milliseconds.
  * @retval None
  */
__weak void HAL_Delay(uint32_t Delay)
{
 8001ef0:	b580      	push	{r7, lr}
 8001ef2:	b084      	sub	sp, #16
 8001ef4:	af00      	add	r7, sp, #0
 8001ef6:	6078      	str	r0, [r7, #4]
  uint32_t tickstart = HAL_GetTick();
 8001ef8:	f7ff fff0 	bl	8001edc <HAL_GetTick>
 8001efc:	0003      	movs	r3, r0
 8001efe:	60bb      	str	r3, [r7, #8]
  uint32_t wait = Delay;
 8001f00:	687b      	ldr	r3, [r7, #4]
 8001f02:	60fb      	str	r3, [r7, #12]

  /* Add a freq to guarantee minimum wait */
  if (wait < HAL_MAX_DELAY)
 8001f04:	68fb      	ldr	r3, [r7, #12]
 8001f06:	3301      	adds	r3, #1
 8001f08:	d005      	beq.n	8001f16 <HAL_Delay+0x26>
  {
    wait += (uint32_t)(uwTickFreq);
 8001f0a:	4b0a      	ldr	r3, [pc, #40]	@ (8001f34 <HAL_Delay+0x44>)
 8001f0c:	781b      	ldrb	r3, [r3, #0]
 8001f0e:	001a      	movs	r2, r3
 8001f10:	68fb      	ldr	r3, [r7, #12]
 8001f12:	189b      	adds	r3, r3, r2
 8001f14:	60fb      	str	r3, [r7, #12]
  }

  while ((HAL_GetTick() - tickstart) < wait)
 8001f16:	46c0      	nop			@ (mov r8, r8)
 8001f18:	f7ff ffe0 	bl	8001edc <HAL_GetTick>
 8001f1c:	0002      	movs	r2, r0
 8001f1e:	68bb      	ldr	r3, [r7, #8]
 8001f20:	1ad3      	subs	r3, r2, r3
 8001f22:	68fa      	ldr	r2, [r7, #12]
 8001f24:	429a      	cmp	r2, r3
 8001f26:	d8f7      	bhi.n	8001f18 <HAL_Delay+0x28>
  {
  }
}
 8001f28:	46c0      	nop			@ (mov r8, r8)
 8001f2a:	46c0      	nop			@ (mov r8, r8)
 8001f2c:	46bd      	mov	sp, r7
 8001f2e:	b004      	add	sp, #16
 8001f30:	bd80      	pop	{r7, pc}
 8001f32:	46c0      	nop			@ (mov r8, r8)
 8001f34:	20000024 	.word	0x20000024

08001f38 <LL_ADC_SetCommonPathInternalCh>:
  *         @arg @ref LL_ADC_PATH_INTERNAL_TEMPSENSOR
  *         @arg @ref LL_ADC_PATH_INTERNAL_VBAT
  * @retval None
  */
__STATIC_INLINE void LL_ADC_SetCommonPathInternalCh(ADC_Common_TypeDef *ADCxy_COMMON, uint32_t PathInternal)
{
 8001f38:	b580      	push	{r7, lr}
 8001f3a:	b082      	sub	sp, #8
 8001f3c:	af00      	add	r7, sp, #0
 8001f3e:	6078      	str	r0, [r7, #4]
 8001f40:	6039      	str	r1, [r7, #0]
  MODIFY_REG(ADCxy_COMMON->CCR, ADC_CCR_VREFEN | ADC_CCR_TSEN | ADC_CCR_VBATEN, PathInternal);
 8001f42:	687b      	ldr	r3, [r7, #4]
 8001f44:	681b      	ldr	r3, [r3, #0]
 8001f46:	4a05      	ldr	r2, [pc, #20]	@ (8001f5c <LL_ADC_SetCommonPathInternalCh+0x24>)
 8001f48:	401a      	ands	r2, r3
 8001f4a:	683b      	ldr	r3, [r7, #0]
 8001f4c:	431a      	orrs	r2, r3
 8001f4e:	687b      	ldr	r3, [r7, #4]
 8001f50:	601a      	str	r2, [r3, #0]
}
 8001f52:	46c0      	nop			@ (mov r8, r8)
 8001f54:	46bd      	mov	sp, r7
 8001f56:	b002      	add	sp, #8
 8001f58:	bd80      	pop	{r7, pc}
 8001f5a:	46c0      	nop			@ (mov r8, r8)
 8001f5c:	fe3fffff 	.word	0xfe3fffff

08001f60 <LL_ADC_GetCommonPathInternalCh>:
  *         @arg @ref LL_ADC_PATH_INTERNAL_VREFINT
  *         @arg @ref LL_ADC_PATH_INTERNAL_TEMPSENSOR
  *         @arg @ref LL_ADC_PATH_INTERNAL_VBAT
  */
__STATIC_INLINE uint32_t LL_ADC_GetCommonPathInternalCh(const ADC_Common_TypeDef *ADCxy_COMMON)
{
 8001f60:	b580      	push	{r7, lr}
 8001f62:	b082      	sub	sp, #8
 8001f64:	af00      	add	r7, sp, #0
 8001f66:	6078      	str	r0, [r7, #4]
  return (uint32_t)(READ_BIT(ADCxy_COMMON->CCR, ADC_CCR_VREFEN | ADC_CCR_TSEN | ADC_CCR_VBATEN));
 8001f68:	687b      	ldr	r3, [r7, #4]
 8001f6a:	681a      	ldr	r2, [r3, #0]
 8001f6c:	23e0      	movs	r3, #224	@ 0xe0
 8001f6e:	045b      	lsls	r3, r3, #17
 8001f70:	4013      	ands	r3, r2
}
 8001f72:	0018      	movs	r0, r3
 8001f74:	46bd      	mov	sp, r7
 8001f76:	b002      	add	sp, #8
 8001f78:	bd80      	pop	{r7, pc}

08001f7a <LL_ADC_SetSamplingTimeCommonChannels>:
  *         @arg @ref LL_ADC_SAMPLINGTIME_160CYCLES_5
  * @retval None
  */
__STATIC_INLINE void LL_ADC_SetSamplingTimeCommonChannels(ADC_TypeDef *ADCx, uint32_t SamplingTimeY,
                                                          uint32_t SamplingTime)
{
 8001f7a:	b580      	push	{r7, lr}
 8001f7c:	b084      	sub	sp, #16
 8001f7e:	af00      	add	r7, sp, #0
 8001f80:	60f8      	str	r0, [r7, #12]
 8001f82:	60b9      	str	r1, [r7, #8]
 8001f84:	607a      	str	r2, [r7, #4]
  MODIFY_REG(ADCx->SMPR,
 8001f86:	68fb      	ldr	r3, [r7, #12]
 8001f88:	695b      	ldr	r3, [r3, #20]
 8001f8a:	68ba      	ldr	r2, [r7, #8]
 8001f8c:	2104      	movs	r1, #4
 8001f8e:	400a      	ands	r2, r1
 8001f90:	2107      	movs	r1, #7
 8001f92:	4091      	lsls	r1, r2
 8001f94:	000a      	movs	r2, r1
 8001f96:	43d2      	mvns	r2, r2
 8001f98:	401a      	ands	r2, r3
 8001f9a:	68bb      	ldr	r3, [r7, #8]
 8001f9c:	2104      	movs	r1, #4
 8001f9e:	400b      	ands	r3, r1
 8001fa0:	6879      	ldr	r1, [r7, #4]
 8001fa2:	4099      	lsls	r1, r3
 8001fa4:	000b      	movs	r3, r1
 8001fa6:	431a      	orrs	r2, r3
 8001fa8:	68fb      	ldr	r3, [r7, #12]
 8001faa:	615a      	str	r2, [r3, #20]
             ADC_SMPR_SMP1 << (SamplingTimeY & ADC_SAMPLING_TIME_SMP_SHIFT_MASK),
             SamplingTime << (SamplingTimeY & ADC_SAMPLING_TIME_SMP_SHIFT_MASK));
}
 8001fac:	46c0      	nop			@ (mov r8, r8)
 8001fae:	46bd      	mov	sp, r7
 8001fb0:	b004      	add	sp, #16
 8001fb2:	bd80      	pop	{r7, pc}

08001fb4 <LL_ADC_GetSamplingTimeCommonChannels>:
  *         @arg @ref LL_ADC_SAMPLINGTIME_39CYCLES_5
  *         @arg @ref LL_ADC_SAMPLINGTIME_79CYCLES_5
  *         @arg @ref LL_ADC_SAMPLINGTIME_160CYCLES_5
  */
__STATIC_INLINE uint32_t LL_ADC_GetSamplingTimeCommonChannels(const ADC_TypeDef *ADCx, uint32_t SamplingTimeY)
{
 8001fb4:	b580      	push	{r7, lr}
 8001fb6:	b082      	sub	sp, #8
 8001fb8:	af00      	add	r7, sp, #0
 8001fba:	6078      	str	r0, [r7, #4]
 8001fbc:	6039      	str	r1, [r7, #0]
  return (uint32_t)((READ_BIT(ADCx->SMPR, ADC_SMPR_SMP1 << (SamplingTimeY & ADC_SAMPLING_TIME_SMP_SHIFT_MASK)))
 8001fbe:	687b      	ldr	r3, [r7, #4]
 8001fc0:	695b      	ldr	r3, [r3, #20]
 8001fc2:	683a      	ldr	r2, [r7, #0]
 8001fc4:	2104      	movs	r1, #4
 8001fc6:	400a      	ands	r2, r1
 8001fc8:	2107      	movs	r1, #7
 8001fca:	4091      	lsls	r1, r2
 8001fcc:	000a      	movs	r2, r1
 8001fce:	401a      	ands	r2, r3
                    >> (SamplingTimeY & ADC_SAMPLING_TIME_SMP_SHIFT_MASK));
 8001fd0:	683b      	ldr	r3, [r7, #0]
 8001fd2:	2104      	movs	r1, #4
 8001fd4:	400b      	ands	r3, r1
  return (uint32_t)((READ_BIT(ADCx->SMPR, ADC_SMPR_SMP1 << (SamplingTimeY & ADC_SAMPLING_TIME_SMP_SHIFT_MASK)))
 8001fd6:	40da      	lsrs	r2, r3
 8001fd8:	0013      	movs	r3, r2
}
 8001fda:	0018      	movs	r0, r3
 8001fdc:	46bd      	mov	sp, r7
 8001fde:	b002      	add	sp, #8
 8001fe0:	bd80      	pop	{r7, pc}

08001fe2 <LL_ADC_REG_IsTriggerSourceSWStart>:
  * @param  ADCx ADC instance
  * @retval Value "0" if trigger source external trigger
  *         Value "1" if trigger source SW start.
  */
__STATIC_INLINE uint32_t LL_ADC_REG_IsTriggerSourceSWStart(const ADC_TypeDef *ADCx)
{
 8001fe2:	b580      	push	{r7, lr}
 8001fe4:	b082      	sub	sp, #8
 8001fe6:	af00      	add	r7, sp, #0
 8001fe8:	6078      	str	r0, [r7, #4]
  return ((READ_BIT(ADCx->CFGR1, ADC_CFGR1_EXTEN) == (LL_ADC_REG_TRIG_SOFTWARE & ADC_CFGR1_EXTEN)) ? 1UL : 0UL);
 8001fea:	687b      	ldr	r3, [r7, #4]
 8001fec:	68da      	ldr	r2, [r3, #12]
 8001fee:	23c0      	movs	r3, #192	@ 0xc0
 8001ff0:	011b      	lsls	r3, r3, #4
 8001ff2:	4013      	ands	r3, r2
 8001ff4:	d101      	bne.n	8001ffa <LL_ADC_REG_IsTriggerSourceSWStart+0x18>
 8001ff6:	2301      	movs	r3, #1
 8001ff8:	e000      	b.n	8001ffc <LL_ADC_REG_IsTriggerSourceSWStart+0x1a>
 8001ffa:	2300      	movs	r3, #0
}
 8001ffc:	0018      	movs	r0, r3
 8001ffe:	46bd      	mov	sp, r7
 8002000:	b002      	add	sp, #8
 8002002:	bd80      	pop	{r7, pc}

08002004 <LL_ADC_REG_SetSequencerRanks>:
  *             only if sequencer is set in mode "not fully configurable",
  *             refer to function @ref LL_ADC_REG_SetSequencerConfigurable().
  * @retval None
  */
__STATIC_INLINE void LL_ADC_REG_SetSequencerRanks(ADC_TypeDef *ADCx, uint32_t Rank, uint32_t Channel)
{
 8002004:	b580      	push	{r7, lr}
 8002006:	b084      	sub	sp, #16
 8002008:	af00      	add	r7, sp, #0
 800200a:	60f8      	str	r0, [r7, #12]
 800200c:	60b9      	str	r1, [r7, #8]
 800200e:	607a      	str	r2, [r7, #4]
  /* Set bits with content of parameter "Channel" with bits position          */
  /* in register depending on parameter "Rank".                               */
  /* Parameters "Rank" and "Channel" are used with masks because containing   */
  /* other bits reserved for other purpose.                                   */
  MODIFY_REG(ADCx->CHSELR,
 8002010:	68fb      	ldr	r3, [r7, #12]
 8002012:	6a9b      	ldr	r3, [r3, #40]	@ 0x28
 8002014:	68ba      	ldr	r2, [r7, #8]
 8002016:	211f      	movs	r1, #31
 8002018:	400a      	ands	r2, r1
 800201a:	210f      	movs	r1, #15
 800201c:	4091      	lsls	r1, r2
 800201e:	000a      	movs	r2, r1
 8002020:	43d2      	mvns	r2, r2
 8002022:	401a      	ands	r2, r3
 8002024:	687b      	ldr	r3, [r7, #4]
 8002026:	0e9b      	lsrs	r3, r3, #26
 8002028:	210f      	movs	r1, #15
 800202a:	4019      	ands	r1, r3
 800202c:	68bb      	ldr	r3, [r7, #8]
 800202e:	201f      	movs	r0, #31
 8002030:	4003      	ands	r3, r0
 8002032:	4099      	lsls	r1, r3
 8002034:	000b      	movs	r3, r1
 8002036:	431a      	orrs	r2, r3
 8002038:	68fb      	ldr	r3, [r7, #12]
 800203a:	629a      	str	r2, [r3, #40]	@ 0x28
             ADC_CHSELR_SQ1 << (Rank & ADC_REG_RANK_ID_SQRX_MASK),
             ((Channel & ADC_CHANNEL_ID_NUMBER_MASK_SEQ) >> ADC_CHANNEL_ID_NUMBER_BITOFFSET_POS)
             << (Rank & ADC_REG_RANK_ID_SQRX_MASK));
}
 800203c:	46c0      	nop			@ (mov r8, r8)
 800203e:	46bd      	mov	sp, r7
 8002040:	b004      	add	sp, #16
 8002042:	bd80      	pop	{r7, pc}

08002044 <LL_ADC_REG_SetSequencerChAdd>:
  *             only if sequencer is set in mode "not fully configurable",
  *             refer to function @ref LL_ADC_REG_SetSequencerConfigurable().
  * @retval None
  */
__STATIC_INLINE void LL_ADC_REG_SetSequencerChAdd(ADC_TypeDef *ADCx, uint32_t Channel)
{
 8002044:	b580      	push	{r7, lr}
 8002046:	b082      	sub	sp, #8
 8002048:	af00      	add	r7, sp, #0
 800204a:	6078      	str	r0, [r7, #4]
 800204c:	6039      	str	r1, [r7, #0]
  /* Parameter "Channel" is used with masks because containing                */
  /* other bits reserved for other purpose.                                   */
  SET_BIT(ADCx->CHSELR, (Channel & ADC_CHANNEL_ID_BITFIELD_MASK));
 800204e:	687b      	ldr	r3, [r7, #4]
 8002050:	6a9a      	ldr	r2, [r3, #40]	@ 0x28
 8002052:	683b      	ldr	r3, [r7, #0]
 8002054:	035b      	lsls	r3, r3, #13
 8002056:	0b5b      	lsrs	r3, r3, #13
 8002058:	431a      	orrs	r2, r3
 800205a:	687b      	ldr	r3, [r7, #4]
 800205c:	629a      	str	r2, [r3, #40]	@ 0x28
}
 800205e:	46c0      	nop			@ (mov r8, r8)
 8002060:	46bd      	mov	sp, r7
 8002062:	b002      	add	sp, #8
 8002064:	bd80      	pop	{r7, pc}

08002066 <LL_ADC_REG_SetSequencerChRem>:
  *             only if sequencer is set in mode "not fully configurable",
  *             refer to function @ref LL_ADC_REG_SetSequencerConfigurable().
  * @retval None
  */
__STATIC_INLINE void LL_ADC_REG_SetSequencerChRem(ADC_TypeDef *ADCx, uint32_t Channel)
{
 8002066:	b580      	push	{r7, lr}
 8002068:	b082      	sub	sp, #8
 800206a:	af00      	add	r7, sp, #0
 800206c:	6078      	str	r0, [r7, #4]
 800206e:	6039      	str	r1, [r7, #0]
  /* Parameter "Channel" is used with masks because containing                */
  /* other bits reserved for other purpose.                                   */
  CLEAR_BIT(ADCx->CHSELR, (Channel & ADC_CHANNEL_ID_BITFIELD_MASK));
 8002070:	687b      	ldr	r3, [r7, #4]
 8002072:	6a9b      	ldr	r3, [r3, #40]	@ 0x28
 8002074:	683a      	ldr	r2, [r7, #0]
 8002076:	0352      	lsls	r2, r2, #13
 8002078:	0b52      	lsrs	r2, r2, #13
 800207a:	43d2      	mvns	r2, r2
 800207c:	401a      	ands	r2, r3
 800207e:	687b      	ldr	r3, [r7, #4]
 8002080:	629a      	str	r2, [r3, #40]	@ 0x28
}
 8002082:	46c0      	nop			@ (mov r8, r8)
 8002084:	46bd      	mov	sp, r7
 8002086:	b002      	add	sp, #8
 8002088:	bd80      	pop	{r7, pc}

0800208a <LL_ADC_REG_GetDMATransfer>:
  *         @arg @ref LL_ADC_REG_DMA_TRANSFER_NONE
  *         @arg @ref LL_ADC_REG_DMA_TRANSFER_LIMITED
  *         @arg @ref LL_ADC_REG_DMA_TRANSFER_UNLIMITED
  */
__STATIC_INLINE uint32_t LL_ADC_REG_GetDMATransfer(const ADC_TypeDef *ADCx)
{
 800208a:	b580      	push	{r7, lr}
 800208c:	b082      	sub	sp, #8
 800208e:	af00      	add	r7, sp, #0
 8002090:	6078      	str	r0, [r7, #4]
  return (uint32_t)(READ_BIT(ADCx->CFGR1, ADC_CFGR1_DMAEN | ADC_CFGR1_DMACFG));
 8002092:	687b      	ldr	r3, [r7, #4]
 8002094:	68db      	ldr	r3, [r3, #12]
 8002096:	2203      	movs	r2, #3
 8002098:	4013      	ands	r3, r2
}
 800209a:	0018      	movs	r0, r3
 800209c:	46bd      	mov	sp, r7
 800209e:	b002      	add	sp, #8
 80020a0:	bd80      	pop	{r7, pc}
	...

080020a4 <LL_ADC_SetChannelSamplingTime>:
  *         @arg @ref LL_ADC_SAMPLINGTIME_COMMON_1
  *         @arg @ref LL_ADC_SAMPLINGTIME_COMMON_2
  * @retval None
  */
__STATIC_INLINE void LL_ADC_SetChannelSamplingTime(ADC_TypeDef *ADCx, uint32_t Channel, uint32_t SamplingTimeY)
{
 80020a4:	b580      	push	{r7, lr}
 80020a6:	b084      	sub	sp, #16
 80020a8:	af00      	add	r7, sp, #0
 80020aa:	60f8      	str	r0, [r7, #12]
 80020ac:	60b9      	str	r1, [r7, #8]
 80020ae:	607a      	str	r2, [r7, #4]
  /* Parameter "Channel" is used with masks because containing                */
  /* other bits reserved for other purpose.                                   */
  MODIFY_REG(ADCx->SMPR,
 80020b0:	68fb      	ldr	r3, [r7, #12]
 80020b2:	695b      	ldr	r3, [r3, #20]
 80020b4:	68ba      	ldr	r2, [r7, #8]
 80020b6:	0212      	lsls	r2, r2, #8
 80020b8:	43d2      	mvns	r2, r2
 80020ba:	401a      	ands	r2, r3
 80020bc:	68bb      	ldr	r3, [r7, #8]
 80020be:	021b      	lsls	r3, r3, #8
 80020c0:	6879      	ldr	r1, [r7, #4]
 80020c2:	400b      	ands	r3, r1
 80020c4:	4904      	ldr	r1, [pc, #16]	@ (80020d8 <LL_ADC_SetChannelSamplingTime+0x34>)
 80020c6:	400b      	ands	r3, r1
 80020c8:	431a      	orrs	r2, r3
 80020ca:	68fb      	ldr	r3, [r7, #12]
 80020cc:	615a      	str	r2, [r3, #20]
             (Channel << ADC_SMPR_SMPSEL0_BITOFFSET_POS),
             (Channel << ADC_SMPR_SMPSEL0_BITOFFSET_POS) & (SamplingTimeY & ADC_SAMPLING_TIME_CH_MASK)
            );
}
 80020ce:	46c0      	nop			@ (mov r8, r8)
 80020d0:	46bd      	mov	sp, r7
 80020d2:	b004      	add	sp, #16
 80020d4:	bd80      	pop	{r7, pc}
 80020d6:	46c0      	nop			@ (mov r8, r8)
 80020d8:	07ffff00 	.word	0x07ffff00

080020dc <LL_ADC_EnableInternalRegulator>:
  * @rmtoll CR       ADVREGEN       LL_ADC_EnableInternalRegulator
  * @param  ADCx ADC instance
  * @retval None
  */
__STATIC_INLINE void LL_ADC_EnableInternalRegulator(ADC_TypeDef *ADCx)
{
 80020dc:	b580      	push	{r7, lr}
 80020de:	b082      	sub	sp, #8
 80020e0:	af00      	add	r7, sp, #0
 80020e2:	6078      	str	r0, [r7, #4]
  /* Note: Write register with some additional bits forced to state reset     */
  /*       instead of modifying only the selected bit for this function,      */
  /*       to not interfere with bits with HW property "rs".                  */
  MODIFY_REG(ADCx->CR,
 80020e4:	687b      	ldr	r3, [r7, #4]
 80020e6:	689b      	ldr	r3, [r3, #8]
 80020e8:	4a05      	ldr	r2, [pc, #20]	@ (8002100 <LL_ADC_EnableInternalRegulator+0x24>)
 80020ea:	4013      	ands	r3, r2
 80020ec:	2280      	movs	r2, #128	@ 0x80
 80020ee:	0552      	lsls	r2, r2, #21
 80020f0:	431a      	orrs	r2, r3
 80020f2:	687b      	ldr	r3, [r7, #4]
 80020f4:	609a      	str	r2, [r3, #8]
             ADC_CR_BITS_PROPERTY_RS,
             ADC_CR_ADVREGEN);
}
 80020f6:	46c0      	nop			@ (mov r8, r8)
 80020f8:	46bd      	mov	sp, r7
 80020fa:	b002      	add	sp, #8
 80020fc:	bd80      	pop	{r7, pc}
 80020fe:	46c0      	nop			@ (mov r8, r8)
 8002100:	6fffffe8 	.word	0x6fffffe8

08002104 <LL_ADC_IsInternalRegulatorEnabled>:
  * @rmtoll CR       ADVREGEN       LL_ADC_IsInternalRegulatorEnabled
  * @param  ADCx ADC instance
  * @retval 0: internal regulator is disabled, 1: internal regulator is enabled.
  */
__STATIC_INLINE uint32_t LL_ADC_IsInternalRegulatorEnabled(const ADC_TypeDef *ADCx)
{
 8002104:	b580      	push	{r7, lr}
 8002106:	b082      	sub	sp, #8
 8002108:	af00      	add	r7, sp, #0
 800210a:	6078      	str	r0, [r7, #4]
  return ((READ_BIT(ADCx->CR, ADC_CR_ADVREGEN) == (ADC_CR_ADVREGEN)) ? 1UL : 0UL);
 800210c:	687b      	ldr	r3, [r7, #4]
 800210e:	689a      	ldr	r2, [r3, #8]
 8002110:	2380      	movs	r3, #128	@ 0x80
 8002112:	055b      	lsls	r3, r3, #21
 8002114:	401a      	ands	r2, r3
 8002116:	2380      	movs	r3, #128	@ 0x80
 8002118:	055b      	lsls	r3, r3, #21
 800211a:	429a      	cmp	r2, r3
 800211c:	d101      	bne.n	8002122 <LL_ADC_IsInternalRegulatorEnabled+0x1e>
 800211e:	2301      	movs	r3, #1
 8002120:	e000      	b.n	8002124 <LL_ADC_IsInternalRegulatorEnabled+0x20>
 8002122:	2300      	movs	r3, #0
}
 8002124:	0018      	movs	r0, r3
 8002126:	46bd      	mov	sp, r7
 8002128:	b002      	add	sp, #8
 800212a:	bd80      	pop	{r7, pc}

0800212c <LL_ADC_Enable>:
  * @rmtoll CR       ADEN           LL_ADC_Enable
  * @param  ADCx ADC instance
  * @retval None
  */
__STATIC_INLINE void LL_ADC_Enable(ADC_TypeDef *ADCx)
{
 800212c:	b580      	push	{r7, lr}
 800212e:	b082      	sub	sp, #8
 8002130:	af00      	add	r7, sp, #0
 8002132:	6078      	str	r0, [r7, #4]
  /* Note: Write register with some additional bits forced to state reset     */
  /*       instead of modifying only the selected bit for this function,      */
  /*       to not interfere with bits with HW property "rs".                  */
  MODIFY_REG(ADCx->CR,
 8002134:	687b      	ldr	r3, [r7, #4]
 8002136:	689b      	ldr	r3, [r3, #8]
 8002138:	4a04      	ldr	r2, [pc, #16]	@ (800214c <LL_ADC_Enable+0x20>)
 800213a:	4013      	ands	r3, r2
 800213c:	2201      	movs	r2, #1
 800213e:	431a      	orrs	r2, r3
 8002140:	687b      	ldr	r3, [r7, #4]
 8002142:	609a      	str	r2, [r3, #8]
             ADC_CR_BITS_PROPERTY_RS,
             ADC_CR_ADEN);
}
 8002144:	46c0      	nop			@ (mov r8, r8)
 8002146:	46bd      	mov	sp, r7
 8002148:	b002      	add	sp, #8
 800214a:	bd80      	pop	{r7, pc}
 800214c:	7fffffe8 	.word	0x7fffffe8

08002150 <LL_ADC_Disable>:
  * @rmtoll CR       ADDIS          LL_ADC_Disable
  * @param  ADCx ADC instance
  * @retval None
  */
__STATIC_INLINE void LL_ADC_Disable(ADC_TypeDef *ADCx)
{
 8002150:	b580      	push	{r7, lr}
 8002152:	b082      	sub	sp, #8
 8002154:	af00      	add	r7, sp, #0
 8002156:	6078      	str	r0, [r7, #4]
  /* Note: Write register with some additional bits forced to state reset     */
  /*       instead of modifying only the selected bit for this function,      */
  /*       to not interfere with bits with HW property "rs".                  */
  MODIFY_REG(ADCx->CR,
 8002158:	687b      	ldr	r3, [r7, #4]
 800215a:	689b      	ldr	r3, [r3, #8]
 800215c:	4a04      	ldr	r2, [pc, #16]	@ (8002170 <LL_ADC_Disable+0x20>)
 800215e:	4013      	ands	r3, r2
 8002160:	2202      	movs	r2, #2
 8002162:	431a      	orrs	r2, r3
 8002164:	687b      	ldr	r3, [r7, #4]
 8002166:	609a      	str	r2, [r3, #8]
             ADC_CR_BITS_PROPERTY_RS,
             ADC_CR_ADDIS);
}
 8002168:	46c0      	nop			@ (mov r8, r8)
 800216a:	46bd      	mov	sp, r7
 800216c:	b002      	add	sp, #8
 800216e:	bd80      	pop	{r7, pc}
 8002170:	7fffffe8 	.word	0x7fffffe8

08002174 <LL_ADC_IsEnabled>:
  * @rmtoll CR       ADEN           LL_ADC_IsEnabled
  * @param  ADCx ADC instance
  * @retval 0: ADC is disabled, 1: ADC is enabled.
  */
__STATIC_INLINE uint32_t LL_ADC_IsEnabled(const ADC_TypeDef *ADCx)
{
 8002174:	b580      	push	{r7, lr}
 8002176:	b082      	sub	sp, #8
 8002178:	af00      	add	r7, sp, #0
 800217a:	6078      	str	r0, [r7, #4]
  return ((READ_BIT(ADCx->CR, ADC_CR_ADEN) == (ADC_CR_ADEN)) ? 1UL : 0UL);
 800217c:	687b      	ldr	r3, [r7, #4]
 800217e:	689b      	ldr	r3, [r3, #8]
 8002180:	2201      	movs	r2, #1
 8002182:	4013      	ands	r3, r2
 8002184:	2b01      	cmp	r3, #1
 8002186:	d101      	bne.n	800218c <LL_ADC_IsEnabled+0x18>
 8002188:	2301      	movs	r3, #1
 800218a:	e000      	b.n	800218e <LL_ADC_IsEnabled+0x1a>
 800218c:	2300      	movs	r3, #0
}
 800218e:	0018      	movs	r0, r3
 8002190:	46bd      	mov	sp, r7
 8002192:	b002      	add	sp, #8
 8002194:	bd80      	pop	{r7, pc}
	...

08002198 <LL_ADC_REG_StartConversion>:
  * @rmtoll CR       ADSTART        LL_ADC_REG_StartConversion
  * @param  ADCx ADC instance
  * @retval None
  */
__STATIC_INLINE void LL_ADC_REG_StartConversion(ADC_TypeDef *ADCx)
{
 8002198:	b580      	push	{r7, lr}
 800219a:	b082      	sub	sp, #8
 800219c:	af00      	add	r7, sp, #0
 800219e:	6078      	str	r0, [r7, #4]
  /* Note: Write register with some additional bits forced to state reset     */
  /*       instead of modifying only the selected bit for this function,      */
  /*       to not interfere with bits with HW property "rs".                  */
  MODIFY_REG(ADCx->CR,
 80021a0:	687b      	ldr	r3, [r7, #4]
 80021a2:	689b      	ldr	r3, [r3, #8]
 80021a4:	4a04      	ldr	r2, [pc, #16]	@ (80021b8 <LL_ADC_REG_StartConversion+0x20>)
 80021a6:	4013      	ands	r3, r2
 80021a8:	2204      	movs	r2, #4
 80021aa:	431a      	orrs	r2, r3
 80021ac:	687b      	ldr	r3, [r7, #4]
 80021ae:	609a      	str	r2, [r3, #8]
             ADC_CR_BITS_PROPERTY_RS,
             ADC_CR_ADSTART);
}
 80021b0:	46c0      	nop			@ (mov r8, r8)
 80021b2:	46bd      	mov	sp, r7
 80021b4:	b002      	add	sp, #8
 80021b6:	bd80      	pop	{r7, pc}
 80021b8:	7fffffe8 	.word	0x7fffffe8

080021bc <LL_ADC_REG_IsConversionOngoing>:
  * @rmtoll CR       ADSTART        LL_ADC_REG_IsConversionOngoing
  * @param  ADCx ADC instance
  * @retval 0: no conversion is on going on ADC group regular.
  */
__STATIC_INLINE uint32_t LL_ADC_REG_IsConversionOngoing(const ADC_TypeDef *ADCx)
{
 80021bc:	b580      	push	{r7, lr}
 80021be:	b082      	sub	sp, #8
 80021c0:	af00      	add	r7, sp, #0
 80021c2:	6078      	str	r0, [r7, #4]
  return ((READ_BIT(ADCx->CR, ADC_CR_ADSTART) == (ADC_CR_ADSTART)) ? 1UL : 0UL);
 80021c4:	687b      	ldr	r3, [r7, #4]
 80021c6:	689b      	ldr	r3, [r3, #8]
 80021c8:	2204      	movs	r2, #4
 80021ca:	4013      	ands	r3, r2
 80021cc:	2b04      	cmp	r3, #4
 80021ce:	d101      	bne.n	80021d4 <LL_ADC_REG_IsConversionOngoing+0x18>
 80021d0:	2301      	movs	r3, #1
 80021d2:	e000      	b.n	80021d6 <LL_ADC_REG_IsConversionOngoing+0x1a>
 80021d4:	2300      	movs	r3, #0
}
 80021d6:	0018      	movs	r0, r3
 80021d8:	46bd      	mov	sp, r7
 80021da:	b002      	add	sp, #8
 80021dc:	bd80      	pop	{r7, pc}
	...

080021e0 <HAL_ADC_Init>:
  *         of structure "ADC_InitTypeDef".
  * @param hadc ADC handle
  * @retval HAL status
  */
HAL_StatusTypeDef HAL_ADC_Init(ADC_HandleTypeDef *hadc)
{
 80021e0:	b580      	push	{r7, lr}
 80021e2:	b088      	sub	sp, #32
 80021e4:	af00      	add	r7, sp, #0
 80021e6:	6078      	str	r0, [r7, #4]
  HAL_StatusTypeDef tmp_hal_status = HAL_OK;
 80021e8:	231f      	movs	r3, #31
 80021ea:	18fb      	adds	r3, r7, r3
 80021ec:	2200      	movs	r2, #0
 80021ee:	701a      	strb	r2, [r3, #0]
  uint32_t tmp_cfgr1 = 0UL;
 80021f0:	2300      	movs	r3, #0
 80021f2:	61bb      	str	r3, [r7, #24]
  uint32_t tmp_cfgr2 = 0UL;
 80021f4:	2300      	movs	r3, #0
 80021f6:	617b      	str	r3, [r7, #20]
  uint32_t tmp_adc_reg_is_conversion_on_going;
  __IO uint32_t wait_loop_index = 0UL;
 80021f8:	2300      	movs	r3, #0
 80021fa:	60fb      	str	r3, [r7, #12]

  /* Check ADC handle */
  if (hadc == NULL)
 80021fc:	687b      	ldr	r3, [r7, #4]
 80021fe:	2b00      	cmp	r3, #0
 8002200:	d101      	bne.n	8002206 <HAL_ADC_Init+0x26>
  {
    return HAL_ERROR;
 8002202:	2301      	movs	r3, #1
 8002204:	e17f      	b.n	8002506 <HAL_ADC_Init+0x326>
  /* continuous mode is disabled.                                             */
  assert_param(!((hadc->Init.DiscontinuousConvMode == ENABLE) && (hadc->Init.ContinuousConvMode == ENABLE)));

  /* Actions performed only if ADC is coming from state reset:                */
  /* - Initialization of ADC MSP                                              */
  if (hadc->State == HAL_ADC_STATE_RESET)
 8002206:	687b      	ldr	r3, [r7, #4]
 8002208:	6d9b      	ldr	r3, [r3, #88]	@ 0x58
 800220a:	2b00      	cmp	r3, #0
 800220c:	d10a      	bne.n	8002224 <HAL_ADC_Init+0x44>

    /* Init the low level hardware */
    hadc->MspInitCallback(hadc);
#else
    /* Init the low level hardware */
    HAL_ADC_MspInit(hadc);
 800220e:	687b      	ldr	r3, [r7, #4]
 8002210:	0018      	movs	r0, r3
 8002212:	f7ff f9a7 	bl	8001564 <HAL_ADC_MspInit>
#endif /* USE_HAL_ADC_REGISTER_CALLBACKS */

    /* Set ADC error code to none */
    ADC_CLEAR_ERRORCODE(hadc);
 8002216:	687b      	ldr	r3, [r7, #4]
 8002218:	2200      	movs	r2, #0
 800221a:	65da      	str	r2, [r3, #92]	@ 0x5c

    /* Initialize Lock */
    hadc->Lock = HAL_UNLOCKED;
 800221c:	687b      	ldr	r3, [r7, #4]
 800221e:	2254      	movs	r2, #84	@ 0x54
 8002220:	2100      	movs	r1, #0
 8002222:	5499      	strb	r1, [r3, r2]
  }

  if (LL_ADC_IsInternalRegulatorEnabled(hadc->Instance) == 0UL)
 8002224:	687b      	ldr	r3, [r7, #4]
 8002226:	681b      	ldr	r3, [r3, #0]
 8002228:	0018      	movs	r0, r3
 800222a:	f7ff ff6b 	bl	8002104 <LL_ADC_IsInternalRegulatorEnabled>
 800222e:	1e03      	subs	r3, r0, #0
 8002230:	d115      	bne.n	800225e <HAL_ADC_Init+0x7e>
  {
    /* Enable ADC internal voltage regulator */
    LL_ADC_EnableInternalRegulator(hadc->Instance);
 8002232:	687b      	ldr	r3, [r7, #4]
 8002234:	681b      	ldr	r3, [r3, #0]
 8002236:	0018      	movs	r0, r3
 8002238:	f7ff ff50 	bl	80020dc <LL_ADC_EnableInternalRegulator>
    /* Delay for ADC stabilization time */
    /* Wait loop initialization and execution */
    /* Note: Variable divided by 2 to compensate partially              */
    /*       CPU processing cycles, scaling in us split to not          */
    /*       exceed 32 bits register capacity and handle low frequency. */
    wait_loop_index = ((LL_ADC_DELAY_INTERNAL_REGUL_STAB_US / 10UL) * ((SystemCoreClock / (100000UL * 2UL)) + 1UL));
 800223c:	4bb4      	ldr	r3, [pc, #720]	@ (8002510 <HAL_ADC_Init+0x330>)
 800223e:	681b      	ldr	r3, [r3, #0]
 8002240:	49b4      	ldr	r1, [pc, #720]	@ (8002514 <HAL_ADC_Init+0x334>)
 8002242:	0018      	movs	r0, r3
 8002244:	f7fd ff5e 	bl	8000104 <__udivsi3>
 8002248:	0003      	movs	r3, r0
 800224a:	3301      	adds	r3, #1
 800224c:	005b      	lsls	r3, r3, #1
 800224e:	60fb      	str	r3, [r7, #12]
    while (wait_loop_index != 0UL)
 8002250:	e002      	b.n	8002258 <HAL_ADC_Init+0x78>
    {
      wait_loop_index--;
 8002252:	68fb      	ldr	r3, [r7, #12]
 8002254:	3b01      	subs	r3, #1
 8002256:	60fb      	str	r3, [r7, #12]
    while (wait_loop_index != 0UL)
 8002258:	68fb      	ldr	r3, [r7, #12]
 800225a:	2b00      	cmp	r3, #0
 800225c:	d1f9      	bne.n	8002252 <HAL_ADC_Init+0x72>
  }

  /* Verification that ADC voltage regulator is correctly enabled, whether    */
  /* or not ADC is coming from state reset (if any potential problem of       */
  /* clocking, voltage regulator would not be enabled).                       */
  if (LL_ADC_IsInternalRegulatorEnabled(hadc->Instance) == 0UL)
 800225e:	687b      	ldr	r3, [r7, #4]
 8002260:	681b      	ldr	r3, [r3, #0]
 8002262:	0018      	movs	r0, r3
 8002264:	f7ff ff4e 	bl	8002104 <LL_ADC_IsInternalRegulatorEnabled>
 8002268:	1e03      	subs	r3, r0, #0
 800226a:	d10f      	bne.n	800228c <HAL_ADC_Init+0xac>
  {
    /* Update ADC state machine to error */
    SET_BIT(hadc->State, HAL_ADC_STATE_ERROR_INTERNAL);
 800226c:	687b      	ldr	r3, [r7, #4]
 800226e:	6d9b      	ldr	r3, [r3, #88]	@ 0x58
 8002270:	2210      	movs	r2, #16
 8002272:	431a      	orrs	r2, r3
 8002274:	687b      	ldr	r3, [r7, #4]
 8002276:	659a      	str	r2, [r3, #88]	@ 0x58

    /* Set ADC error code to ADC peripheral internal error */
    SET_BIT(hadc->ErrorCode, HAL_ADC_ERROR_INTERNAL);
 8002278:	687b      	ldr	r3, [r7, #4]
 800227a:	6ddb      	ldr	r3, [r3, #92]	@ 0x5c
 800227c:	2201      	movs	r2, #1
 800227e:	431a      	orrs	r2, r3
 8002280:	687b      	ldr	r3, [r7, #4]
 8002282:	65da      	str	r2, [r3, #92]	@ 0x5c

    tmp_hal_status = HAL_ERROR;
 8002284:	231f      	movs	r3, #31
 8002286:	18fb      	adds	r3, r7, r3
 8002288:	2201      	movs	r2, #1
 800228a:	701a      	strb	r2, [r3, #0]

  /* Configuration of ADC parameters if previous preliminary actions are      */
  /* correctly completed and if there is no conversion on going on regular    */
  /* group (ADC may already be enabled at this point if HAL_ADC_Init() is     */
  /* called to update a parameter on the fly).                                */
  tmp_adc_reg_is_conversion_on_going = LL_ADC_REG_IsConversionOngoing(hadc->Instance);
 800228c:	687b      	ldr	r3, [r7, #4]
 800228e:	681b      	ldr	r3, [r3, #0]
 8002290:	0018      	movs	r0, r3
 8002292:	f7ff ff93 	bl	80021bc <LL_ADC_REG_IsConversionOngoing>
 8002296:	0003      	movs	r3, r0
 8002298:	613b      	str	r3, [r7, #16]

  if (((hadc->State & HAL_ADC_STATE_ERROR_INTERNAL) == 0UL)
 800229a:	687b      	ldr	r3, [r7, #4]
 800229c:	6d9b      	ldr	r3, [r3, #88]	@ 0x58
 800229e:	2210      	movs	r2, #16
 80022a0:	4013      	ands	r3, r2
 80022a2:	d000      	beq.n	80022a6 <HAL_ADC_Init+0xc6>
 80022a4:	e122      	b.n	80024ec <HAL_ADC_Init+0x30c>
      && (tmp_adc_reg_is_conversion_on_going == 0UL)
 80022a6:	693b      	ldr	r3, [r7, #16]
 80022a8:	2b00      	cmp	r3, #0
 80022aa:	d000      	beq.n	80022ae <HAL_ADC_Init+0xce>
 80022ac:	e11e      	b.n	80024ec <HAL_ADC_Init+0x30c>
     )
  {
    /* Set ADC state */
    ADC_STATE_CLR_SET(hadc->State,
 80022ae:	687b      	ldr	r3, [r7, #4]
 80022b0:	6d9b      	ldr	r3, [r3, #88]	@ 0x58
 80022b2:	4a99      	ldr	r2, [pc, #612]	@ (8002518 <HAL_ADC_Init+0x338>)
 80022b4:	4013      	ands	r3, r2
 80022b6:	2202      	movs	r2, #2
 80022b8:	431a      	orrs	r2, r3
 80022ba:	687b      	ldr	r3, [r7, #4]
 80022bc:	659a      	str	r2, [r3, #88]	@ 0x58
    /*  - DMA continuous request                                              */
    /*  - Trigger frequency mode                                              */
    /* Note: If low power mode AutoPowerOff is enabled, ADC enable            */
    /*       and disable phases are performed automatically by hardware       */
    /*       (in this case, flag ADC_FLAG_RDY is not set).                    */
    if (LL_ADC_IsEnabled(hadc->Instance) == 0UL)
 80022be:	687b      	ldr	r3, [r7, #4]
 80022c0:	681b      	ldr	r3, [r3, #0]
 80022c2:	0018      	movs	r0, r3
 80022c4:	f7ff ff56 	bl	8002174 <LL_ADC_IsEnabled>
 80022c8:	1e03      	subs	r3, r0, #0
 80022ca:	d000      	beq.n	80022ce <HAL_ADC_Init+0xee>
 80022cc:	e0ad      	b.n	800242a <HAL_ADC_Init+0x24a>
      /* without needing to reconfigure all other ADC groups/channels         */
      /* parameters):                                                         */
      /*   - internal measurement paths (VrefInt, ...)                        */
      /*     (set into HAL_ADC_ConfigChannel() )                              */

      tmp_cfgr1 |= (hadc->Init.Resolution                                          |
 80022ce:	687b      	ldr	r3, [r7, #4]
 80022d0:	689a      	ldr	r2, [r3, #8]
                    ADC_CFGR1_AUTOWAIT((uint32_t)hadc->Init.LowPowerAutoWait)      |
 80022d2:	687b      	ldr	r3, [r7, #4]
 80022d4:	7e1b      	ldrb	r3, [r3, #24]
 80022d6:	039b      	lsls	r3, r3, #14
      tmp_cfgr1 |= (hadc->Init.Resolution                                          |
 80022d8:	431a      	orrs	r2, r3
                    ADC_CFGR1_AUTOOFF((uint32_t)hadc->Init.LowPowerAutoPowerOff)   |
 80022da:	687b      	ldr	r3, [r7, #4]
 80022dc:	7e5b      	ldrb	r3, [r3, #25]
 80022de:	03db      	lsls	r3, r3, #15
                    ADC_CFGR1_AUTOWAIT((uint32_t)hadc->Init.LowPowerAutoWait)      |
 80022e0:	431a      	orrs	r2, r3
                    ADC_CFGR1_CONTINUOUS((uint32_t)hadc->Init.ContinuousConvMode)  |
 80022e2:	687b      	ldr	r3, [r7, #4]
 80022e4:	7e9b      	ldrb	r3, [r3, #26]
 80022e6:	035b      	lsls	r3, r3, #13
                    ADC_CFGR1_AUTOOFF((uint32_t)hadc->Init.LowPowerAutoPowerOff)   |
 80022e8:	431a      	orrs	r2, r3
                    ADC_CFGR1_OVERRUN(hadc->Init.Overrun)                          |
 80022ea:	687b      	ldr	r3, [r7, #4]
 80022ec:	6b1b      	ldr	r3, [r3, #48]	@ 0x30
 80022ee:	2b00      	cmp	r3, #0
 80022f0:	d002      	beq.n	80022f8 <HAL_ADC_Init+0x118>
 80022f2:	2380      	movs	r3, #128	@ 0x80
 80022f4:	015b      	lsls	r3, r3, #5
 80022f6:	e000      	b.n	80022fa <HAL_ADC_Init+0x11a>
 80022f8:	2300      	movs	r3, #0
                    ADC_CFGR1_CONTINUOUS((uint32_t)hadc->Init.ContinuousConvMode)  |
 80022fa:	431a      	orrs	r2, r3
                    hadc->Init.DataAlign                                           |
 80022fc:	687b      	ldr	r3, [r7, #4]
 80022fe:	68db      	ldr	r3, [r3, #12]
                    ADC_CFGR1_OVERRUN(hadc->Init.Overrun)                          |
 8002300:	431a      	orrs	r2, r3
                    ADC_SCAN_SEQ_MODE(hadc->Init.ScanConvMode)                     |
 8002302:	687b      	ldr	r3, [r7, #4]
 8002304:	691b      	ldr	r3, [r3, #16]
 8002306:	2b00      	cmp	r3, #0
 8002308:	da04      	bge.n	8002314 <HAL_ADC_Init+0x134>
 800230a:	687b      	ldr	r3, [r7, #4]
 800230c:	691b      	ldr	r3, [r3, #16]
 800230e:	005b      	lsls	r3, r3, #1
 8002310:	085b      	lsrs	r3, r3, #1
 8002312:	e001      	b.n	8002318 <HAL_ADC_Init+0x138>
 8002314:	2380      	movs	r3, #128	@ 0x80
 8002316:	039b      	lsls	r3, r3, #14
                    hadc->Init.DataAlign                                           |
 8002318:	431a      	orrs	r2, r3
                    ADC_CFGR1_DMACONTREQ((uint32_t)hadc->Init.DMAContinuousRequests));
 800231a:	687b      	ldr	r3, [r7, #4]
 800231c:	212c      	movs	r1, #44	@ 0x2c
 800231e:	5c5b      	ldrb	r3, [r3, r1]
 8002320:	005b      	lsls	r3, r3, #1
                    ADC_SCAN_SEQ_MODE(hadc->Init.ScanConvMode)                     |
 8002322:	4313      	orrs	r3, r2
      tmp_cfgr1 |= (hadc->Init.Resolution                                          |
 8002324:	69ba      	ldr	r2, [r7, #24]
 8002326:	4313      	orrs	r3, r2
 8002328:	61bb      	str	r3, [r7, #24]

      /* Update setting of discontinuous mode only if continuous mode is disabled */
      if (hadc->Init.DiscontinuousConvMode == ENABLE)
 800232a:	687b      	ldr	r3, [r7, #4]
 800232c:	2220      	movs	r2, #32
 800232e:	5c9b      	ldrb	r3, [r3, r2]
 8002330:	2b01      	cmp	r3, #1
 8002332:	d115      	bne.n	8002360 <HAL_ADC_Init+0x180>
      {
        if (hadc->Init.ContinuousConvMode == DISABLE)
 8002334:	687b      	ldr	r3, [r7, #4]
 8002336:	7e9b      	ldrb	r3, [r3, #26]
 8002338:	2b00      	cmp	r3, #0
 800233a:	d105      	bne.n	8002348 <HAL_ADC_Init+0x168>
        {
          /* Enable the selected ADC group regular discontinuous mode */
          tmp_cfgr1 |= ADC_CFGR1_DISCEN;
 800233c:	69bb      	ldr	r3, [r7, #24]
 800233e:	2280      	movs	r2, #128	@ 0x80
 8002340:	0252      	lsls	r2, r2, #9
 8002342:	4313      	orrs	r3, r2
 8002344:	61bb      	str	r3, [r7, #24]
 8002346:	e00b      	b.n	8002360 <HAL_ADC_Init+0x180>
          /* ADC regular group discontinuous was intended to be enabled,        */
          /* but ADC regular group modes continuous and sequencer discontinuous */
          /* cannot be enabled simultaneously.                                  */

          /* Update ADC state machine to error */
          SET_BIT(hadc->State, HAL_ADC_STATE_ERROR_CONFIG);
 8002348:	687b      	ldr	r3, [r7, #4]
 800234a:	6d9b      	ldr	r3, [r3, #88]	@ 0x58
 800234c:	2220      	movs	r2, #32
 800234e:	431a      	orrs	r2, r3
 8002350:	687b      	ldr	r3, [r7, #4]
 8002352:	659a      	str	r2, [r3, #88]	@ 0x58

          /* Set ADC error code to ADC peripheral internal error */
          SET_BIT(hadc->ErrorCode, HAL_ADC_ERROR_INTERNAL);
 8002354:	687b      	ldr	r3, [r7, #4]
 8002356:	6ddb      	ldr	r3, [r3, #92]	@ 0x5c
 8002358:	2201      	movs	r2, #1
 800235a:	431a      	orrs	r2, r3
 800235c:	687b      	ldr	r3, [r7, #4]
 800235e:	65da      	str	r2, [r3, #92]	@ 0x5c
      /* Enable external trigger if trigger selection is different of software  */
      /* start.                                                                 */
      /* Note: This configuration keeps the hardware feature of parameter       */
      /*       ExternalTrigConvEdge "trigger edge none" equivalent to           */
      /*       software start.                                                  */
      if (hadc->Init.ExternalTrigConv != ADC_SOFTWARE_START)
 8002360:	687b      	ldr	r3, [r7, #4]
 8002362:	6a5b      	ldr	r3, [r3, #36]	@ 0x24
 8002364:	2b00      	cmp	r3, #0
 8002366:	d00a      	beq.n	800237e <HAL_ADC_Init+0x19e>
      {
        tmp_cfgr1 |= ((hadc->Init.ExternalTrigConv & ADC_CFGR1_EXTSEL) |
 8002368:	687b      	ldr	r3, [r7, #4]
 800236a:	6a5a      	ldr	r2, [r3, #36]	@ 0x24
 800236c:	23e0      	movs	r3, #224	@ 0xe0
 800236e:	005b      	lsls	r3, r3, #1
 8002370:	401a      	ands	r2, r3
                      hadc->Init.ExternalTrigConvEdge);
 8002372:	687b      	ldr	r3, [r7, #4]
 8002374:	6a9b      	ldr	r3, [r3, #40]	@ 0x28
        tmp_cfgr1 |= ((hadc->Init.ExternalTrigConv & ADC_CFGR1_EXTSEL) |
 8002376:	4313      	orrs	r3, r2
 8002378:	69ba      	ldr	r2, [r7, #24]
 800237a:	4313      	orrs	r3, r2
 800237c:	61bb      	str	r3, [r7, #24]
      }

      /* Update ADC configuration register with previous settings */
      MODIFY_REG(hadc->Instance->CFGR1,
 800237e:	687b      	ldr	r3, [r7, #4]
 8002380:	681b      	ldr	r3, [r3, #0]
 8002382:	68db      	ldr	r3, [r3, #12]
 8002384:	4a65      	ldr	r2, [pc, #404]	@ (800251c <HAL_ADC_Init+0x33c>)
 8002386:	4013      	ands	r3, r2
 8002388:	0019      	movs	r1, r3
 800238a:	687b      	ldr	r3, [r7, #4]
 800238c:	681b      	ldr	r3, [r3, #0]
 800238e:	69ba      	ldr	r2, [r7, #24]
 8002390:	430a      	orrs	r2, r1
 8002392:	60da      	str	r2, [r3, #12]
                 ADC_CFGR1_ALIGN     |
                 ADC_CFGR1_SCANDIR   |
                 ADC_CFGR1_DMACFG,
                 tmp_cfgr1);

      tmp_cfgr2 |= ((hadc->Init.ClockPrescaler & ADC_CFGR2_CKMODE) |
 8002394:	687b      	ldr	r3, [r7, #4]
 8002396:	685b      	ldr	r3, [r3, #4]
 8002398:	0f9b      	lsrs	r3, r3, #30
 800239a:	079a      	lsls	r2, r3, #30
                    hadc->Init.TriggerFrequencyMode
 800239c:	687b      	ldr	r3, [r7, #4]
 800239e:	6cdb      	ldr	r3, [r3, #76]	@ 0x4c
      tmp_cfgr2 |= ((hadc->Init.ClockPrescaler & ADC_CFGR2_CKMODE) |
 80023a0:	4313      	orrs	r3, r2
 80023a2:	697a      	ldr	r2, [r7, #20]
 80023a4:	4313      	orrs	r3, r2
 80023a6:	617b      	str	r3, [r7, #20]
                   );

      if (hadc->Init.OversamplingMode == ENABLE)
 80023a8:	687b      	ldr	r3, [r7, #4]
 80023aa:	223c      	movs	r2, #60	@ 0x3c
 80023ac:	5c9b      	ldrb	r3, [r3, r2]
 80023ae:	2b01      	cmp	r3, #1
 80023b0:	d111      	bne.n	80023d6 <HAL_ADC_Init+0x1f6>
      {
        tmp_cfgr2 |= (ADC_CFGR2_OVSE |
                      (hadc->Init.ClockPrescaler & ADC_CFGR2_CKMODE) |
 80023b2:	687b      	ldr	r3, [r7, #4]
 80023b4:	685b      	ldr	r3, [r3, #4]
 80023b6:	0f9b      	lsrs	r3, r3, #30
 80023b8:	079a      	lsls	r2, r3, #30
                      hadc->Init.Oversampling.Ratio         |
 80023ba:	687b      	ldr	r3, [r7, #4]
 80023bc:	6c1b      	ldr	r3, [r3, #64]	@ 0x40
                      (hadc->Init.ClockPrescaler & ADC_CFGR2_CKMODE) |
 80023be:	431a      	orrs	r2, r3
                      hadc->Init.Oversampling.RightBitShift |
 80023c0:	687b      	ldr	r3, [r7, #4]
 80023c2:	6c5b      	ldr	r3, [r3, #68]	@ 0x44
                      hadc->Init.Oversampling.Ratio         |
 80023c4:	431a      	orrs	r2, r3
                      hadc->Init.Oversampling.TriggeredMode
 80023c6:	687b      	ldr	r3, [r7, #4]
 80023c8:	6c9b      	ldr	r3, [r3, #72]	@ 0x48
                      hadc->Init.Oversampling.RightBitShift |
 80023ca:	431a      	orrs	r2, r3
        tmp_cfgr2 |= (ADC_CFGR2_OVSE |
 80023cc:	697b      	ldr	r3, [r7, #20]
 80023ce:	4313      	orrs	r3, r2
 80023d0:	2201      	movs	r2, #1
 80023d2:	4313      	orrs	r3, r2
 80023d4:	617b      	str	r3, [r7, #20]
                     );
      }

      MODIFY_REG(hadc->Instance->CFGR2,
 80023d6:	687b      	ldr	r3, [r7, #4]
 80023d8:	681b      	ldr	r3, [r3, #0]
 80023da:	691b      	ldr	r3, [r3, #16]
 80023dc:	4a50      	ldr	r2, [pc, #320]	@ (8002520 <HAL_ADC_Init+0x340>)
 80023de:	4013      	ands	r3, r2
 80023e0:	0019      	movs	r1, r3
 80023e2:	687b      	ldr	r3, [r7, #4]
 80023e4:	681b      	ldr	r3, [r3, #0]
 80023e6:	697a      	ldr	r2, [r7, #20]
 80023e8:	430a      	orrs	r2, r1
 80023ea:	611a      	str	r2, [r3, #16]
                 ADC_CFGR2_TOVS,
                 tmp_cfgr2);

      /* Configuration of ADC clock mode: asynchronous clock source           */
      /* with selectable prescaler.                                           */
      if (((hadc->Init.ClockPrescaler) != ADC_CLOCK_SYNC_PCLK_DIV1) &&
 80023ec:	687b      	ldr	r3, [r7, #4]
 80023ee:	685a      	ldr	r2, [r3, #4]
 80023f0:	23c0      	movs	r3, #192	@ 0xc0
 80023f2:	061b      	lsls	r3, r3, #24
 80023f4:	429a      	cmp	r2, r3
 80023f6:	d018      	beq.n	800242a <HAL_ADC_Init+0x24a>
          ((hadc->Init.ClockPrescaler) != ADC_CLOCK_SYNC_PCLK_DIV2) &&
 80023f8:	687b      	ldr	r3, [r7, #4]
 80023fa:	685a      	ldr	r2, [r3, #4]
      if (((hadc->Init.ClockPrescaler) != ADC_CLOCK_SYNC_PCLK_DIV1) &&
 80023fc:	2380      	movs	r3, #128	@ 0x80
 80023fe:	05db      	lsls	r3, r3, #23
 8002400:	429a      	cmp	r2, r3
 8002402:	d012      	beq.n	800242a <HAL_ADC_Init+0x24a>
          ((hadc->Init.ClockPrescaler) != ADC_CLOCK_SYNC_PCLK_DIV4))
 8002404:	687b      	ldr	r3, [r7, #4]
 8002406:	685a      	ldr	r2, [r3, #4]
          ((hadc->Init.ClockPrescaler) != ADC_CLOCK_SYNC_PCLK_DIV2) &&
 8002408:	2380      	movs	r3, #128	@ 0x80
 800240a:	061b      	lsls	r3, r3, #24
 800240c:	429a      	cmp	r2, r3
 800240e:	d00c      	beq.n	800242a <HAL_ADC_Init+0x24a>
      {
        MODIFY_REG(ADC1_COMMON->CCR,
 8002410:	4b44      	ldr	r3, [pc, #272]	@ (8002524 <HAL_ADC_Init+0x344>)
 8002412:	681b      	ldr	r3, [r3, #0]
 8002414:	4a44      	ldr	r2, [pc, #272]	@ (8002528 <HAL_ADC_Init+0x348>)
 8002416:	4013      	ands	r3, r2
 8002418:	0019      	movs	r1, r3
 800241a:	687b      	ldr	r3, [r7, #4]
 800241c:	685a      	ldr	r2, [r3, #4]
 800241e:	23f0      	movs	r3, #240	@ 0xf0
 8002420:	039b      	lsls	r3, r3, #14
 8002422:	401a      	ands	r2, r3
 8002424:	4b3f      	ldr	r3, [pc, #252]	@ (8002524 <HAL_ADC_Init+0x344>)
 8002426:	430a      	orrs	r2, r1
 8002428:	601a      	str	r2, [r3, #0]
                   hadc->Init.ClockPrescaler & ADC_CCR_PRESC);
      }
    }

    /* Channel sampling time configuration */
    LL_ADC_SetSamplingTimeCommonChannels(hadc->Instance, LL_ADC_SAMPLINGTIME_COMMON_1, hadc->Init.SamplingTimeCommon1);
 800242a:	687b      	ldr	r3, [r7, #4]
 800242c:	6818      	ldr	r0, [r3, #0]
 800242e:	687b      	ldr	r3, [r7, #4]
 8002430:	6b5b      	ldr	r3, [r3, #52]	@ 0x34
 8002432:	001a      	movs	r2, r3
 8002434:	2100      	movs	r1, #0
 8002436:	f7ff fda0 	bl	8001f7a <LL_ADC_SetSamplingTimeCommonChannels>
    LL_ADC_SetSamplingTimeCommonChannels(hadc->Instance, LL_ADC_SAMPLINGTIME_COMMON_2, hadc->Init.SamplingTimeCommon2);
 800243a:	687b      	ldr	r3, [r7, #4]
 800243c:	6818      	ldr	r0, [r3, #0]
 800243e:	687b      	ldr	r3, [r7, #4]
 8002440:	6b9b      	ldr	r3, [r3, #56]	@ 0x38
 8002442:	493a      	ldr	r1, [pc, #232]	@ (800252c <HAL_ADC_Init+0x34c>)
 8002444:	001a      	movs	r2, r3
 8002446:	f7ff fd98 	bl	8001f7a <LL_ADC_SetSamplingTimeCommonChannels>
    /*   emulated by software for alignment over all STM32 devices.           */
    /* - if scan mode is enabled, regular channels sequence length is set to  */
    /*   parameter "NbrOfConversion".                                         */
    /*   Channels must be configured into each rank using function            */
    /*   "HAL_ADC_ConfigChannel()".                                           */
    if (hadc->Init.ScanConvMode == ADC_SCAN_DISABLE)
 800244a:	687b      	ldr	r3, [r7, #4]
 800244c:	691b      	ldr	r3, [r3, #16]
 800244e:	2b00      	cmp	r3, #0
 8002450:	d109      	bne.n	8002466 <HAL_ADC_Init+0x286>
    {
      /* Set sequencer scan length by clearing ranks above rank 1             */
      /* and do not modify rank 1 value.                                      */
      SET_BIT(hadc->Instance->CHSELR,
 8002452:	687b      	ldr	r3, [r7, #4]
 8002454:	681b      	ldr	r3, [r3, #0]
 8002456:	6a9a      	ldr	r2, [r3, #40]	@ 0x28
 8002458:	687b      	ldr	r3, [r7, #4]
 800245a:	681b      	ldr	r3, [r3, #0]
 800245c:	2110      	movs	r1, #16
 800245e:	4249      	negs	r1, r1
 8002460:	430a      	orrs	r2, r1
 8002462:	629a      	str	r2, [r3, #40]	@ 0x28
 8002464:	e018      	b.n	8002498 <HAL_ADC_Init+0x2b8>
              ADC_CHSELR_SQ2_TO_SQ8);
    }
    else if (hadc->Init.ScanConvMode == ADC_SCAN_ENABLE)
 8002466:	687b      	ldr	r3, [r7, #4]
 8002468:	691a      	ldr	r2, [r3, #16]
 800246a:	2380      	movs	r3, #128	@ 0x80
 800246c:	039b      	lsls	r3, r3, #14
 800246e:	429a      	cmp	r2, r3
 8002470:	d112      	bne.n	8002498 <HAL_ADC_Init+0x2b8>
      /*          therefore after the first call of "HAL_ADC_Init()",       */
      /*          each rank corresponding to parameter "NbrOfConversion"    */
      /*          must be set using "HAL_ADC_ConfigChannel()".              */
      /*  - Set sequencer scan length by clearing ranks above maximum rank  */
      /*    and do not modify other ranks value.                            */
      MODIFY_REG(hadc->Instance->CHSELR,
 8002472:	687b      	ldr	r3, [r7, #4]
 8002474:	681b      	ldr	r3, [r3, #0]
 8002476:	6a9b      	ldr	r3, [r3, #40]	@ 0x28
 8002478:	687b      	ldr	r3, [r7, #4]
 800247a:	69db      	ldr	r3, [r3, #28]
 800247c:	3b01      	subs	r3, #1
 800247e:	009b      	lsls	r3, r3, #2
 8002480:	221c      	movs	r2, #28
 8002482:	4013      	ands	r3, r2
 8002484:	2210      	movs	r2, #16
 8002486:	4252      	negs	r2, r2
 8002488:	409a      	lsls	r2, r3
 800248a:	0011      	movs	r1, r2
 800248c:	687b      	ldr	r3, [r7, #4]
 800248e:	6e1a      	ldr	r2, [r3, #96]	@ 0x60
 8002490:	687b      	ldr	r3, [r7, #4]
 8002492:	681b      	ldr	r3, [r3, #0]
 8002494:	430a      	orrs	r2, r1
 8002496:	629a      	str	r2, [r3, #40]	@ 0x28
      /* Nothing to do */
    }

    /* Check back that ADC registers have effectively been configured to      */
    /* ensure of no potential problem of ADC core peripheral clocking.        */
    if (LL_ADC_GetSamplingTimeCommonChannels(hadc->Instance, LL_ADC_SAMPLINGTIME_COMMON_1)
 8002498:	687b      	ldr	r3, [r7, #4]
 800249a:	681b      	ldr	r3, [r3, #0]
 800249c:	2100      	movs	r1, #0
 800249e:	0018      	movs	r0, r3
 80024a0:	f7ff fd88 	bl	8001fb4 <LL_ADC_GetSamplingTimeCommonChannels>
 80024a4:	0002      	movs	r2, r0
        == hadc->Init.SamplingTimeCommon1)
 80024a6:	687b      	ldr	r3, [r7, #4]
 80024a8:	6b5b      	ldr	r3, [r3, #52]	@ 0x34
    if (LL_ADC_GetSamplingTimeCommonChannels(hadc->Instance, LL_ADC_SAMPLINGTIME_COMMON_1)
 80024aa:	429a      	cmp	r2, r3
 80024ac:	d10b      	bne.n	80024c6 <HAL_ADC_Init+0x2e6>
    {
      /* Set ADC error code to none */
      ADC_CLEAR_ERRORCODE(hadc);
 80024ae:	687b      	ldr	r3, [r7, #4]
 80024b0:	2200      	movs	r2, #0
 80024b2:	65da      	str	r2, [r3, #92]	@ 0x5c

      /* Set the ADC state */
      ADC_STATE_CLR_SET(hadc->State,
 80024b4:	687b      	ldr	r3, [r7, #4]
 80024b6:	6d9b      	ldr	r3, [r3, #88]	@ 0x58
 80024b8:	2203      	movs	r2, #3
 80024ba:	4393      	bics	r3, r2
 80024bc:	2201      	movs	r2, #1
 80024be:	431a      	orrs	r2, r3
 80024c0:	687b      	ldr	r3, [r7, #4]
 80024c2:	659a      	str	r2, [r3, #88]	@ 0x58
    if (LL_ADC_GetSamplingTimeCommonChannels(hadc->Instance, LL_ADC_SAMPLINGTIME_COMMON_1)
 80024c4:	e01c      	b.n	8002500 <HAL_ADC_Init+0x320>
                        HAL_ADC_STATE_READY);
    }
    else
    {
      /* Update ADC state machine to error */
      ADC_STATE_CLR_SET(hadc->State,
 80024c6:	687b      	ldr	r3, [r7, #4]
 80024c8:	6d9b      	ldr	r3, [r3, #88]	@ 0x58
 80024ca:	2212      	movs	r2, #18
 80024cc:	4393      	bics	r3, r2
 80024ce:	2210      	movs	r2, #16
 80024d0:	431a      	orrs	r2, r3
 80024d2:	687b      	ldr	r3, [r7, #4]
 80024d4:	659a      	str	r2, [r3, #88]	@ 0x58
                        HAL_ADC_STATE_BUSY_INTERNAL,
                        HAL_ADC_STATE_ERROR_INTERNAL);

      /* Set ADC error code to ADC peripheral internal error */
      SET_BIT(hadc->ErrorCode, HAL_ADC_ERROR_INTERNAL);
 80024d6:	687b      	ldr	r3, [r7, #4]
 80024d8:	6ddb      	ldr	r3, [r3, #92]	@ 0x5c
 80024da:	2201      	movs	r2, #1
 80024dc:	431a      	orrs	r2, r3
 80024de:	687b      	ldr	r3, [r7, #4]
 80024e0:	65da      	str	r2, [r3, #92]	@ 0x5c

      tmp_hal_status = HAL_ERROR;
 80024e2:	231f      	movs	r3, #31
 80024e4:	18fb      	adds	r3, r7, r3
 80024e6:	2201      	movs	r2, #1
 80024e8:	701a      	strb	r2, [r3, #0]
    if (LL_ADC_GetSamplingTimeCommonChannels(hadc->Instance, LL_ADC_SAMPLINGTIME_COMMON_1)
 80024ea:	e009      	b.n	8002500 <HAL_ADC_Init+0x320>

  }
  else
  {
    /* Update ADC state machine to error */
    SET_BIT(hadc->State, HAL_ADC_STATE_ERROR_INTERNAL);
 80024ec:	687b      	ldr	r3, [r7, #4]
 80024ee:	6d9b      	ldr	r3, [r3, #88]	@ 0x58
 80024f0:	2210      	movs	r2, #16
 80024f2:	431a      	orrs	r2, r3
 80024f4:	687b      	ldr	r3, [r7, #4]
 80024f6:	659a      	str	r2, [r3, #88]	@ 0x58

    tmp_hal_status = HAL_ERROR;
 80024f8:	231f      	movs	r3, #31
 80024fa:	18fb      	adds	r3, r7, r3
 80024fc:	2201      	movs	r2, #1
 80024fe:	701a      	strb	r2, [r3, #0]
  }

  return tmp_hal_status;
 8002500:	231f      	movs	r3, #31
 8002502:	18fb      	adds	r3, r7, r3
 8002504:	781b      	ldrb	r3, [r3, #0]
}
 8002506:	0018      	movs	r0, r3
 8002508:	46bd      	mov	sp, r7
 800250a:	b008      	add	sp, #32
 800250c:	bd80      	pop	{r7, pc}
 800250e:	46c0      	nop			@ (mov r8, r8)
 8002510:	2000001c 	.word	0x2000001c
 8002514:	00030d40 	.word	0x00030d40
 8002518:	fffffefd 	.word	0xfffffefd
 800251c:	ffde0201 	.word	0xffde0201
 8002520:	1ffffc02 	.word	0x1ffffc02
 8002524:	40012708 	.word	0x40012708
 8002528:	ffc3ffff 	.word	0xffc3ffff
 800252c:	07ffff04 	.word	0x07ffff04

08002530 <HAL_ADC_Start_DMA>:
  * @param pData Destination Buffer address.
  * @param Length Number of data to be transferred from ADC peripheral to memory
  * @retval HAL status.
  */
HAL_StatusTypeDef HAL_ADC_Start_DMA(ADC_HandleTypeDef *hadc, uint32_t *pData, uint32_t Length)
{
 8002530:	b5b0      	push	{r4, r5, r7, lr}
 8002532:	b086      	sub	sp, #24
 8002534:	af00      	add	r7, sp, #0
 8002536:	60f8      	str	r0, [r7, #12]
 8002538:	60b9      	str	r1, [r7, #8]
 800253a:	607a      	str	r2, [r7, #4]

  /* Check the parameters */
  assert_param(IS_ADC_ALL_INSTANCE(hadc->Instance));

  /* Perform ADC enable and conversion start if no conversion is on going */
  if (LL_ADC_REG_IsConversionOngoing(hadc->Instance) == 0UL)
 800253c:	68fb      	ldr	r3, [r7, #12]
 800253e:	681b      	ldr	r3, [r3, #0]
 8002540:	0018      	movs	r0, r3
 8002542:	f7ff fe3b 	bl	80021bc <LL_ADC_REG_IsConversionOngoing>
 8002546:	1e03      	subs	r3, r0, #0
 8002548:	d16c      	bne.n	8002624 <HAL_ADC_Start_DMA+0xf4>
  {
    __HAL_LOCK(hadc);
 800254a:	68fb      	ldr	r3, [r7, #12]
 800254c:	2254      	movs	r2, #84	@ 0x54
 800254e:	5c9b      	ldrb	r3, [r3, r2]
 8002550:	2b01      	cmp	r3, #1
 8002552:	d101      	bne.n	8002558 <HAL_ADC_Start_DMA+0x28>
 8002554:	2302      	movs	r3, #2
 8002556:	e06c      	b.n	8002632 <HAL_ADC_Start_DMA+0x102>
 8002558:	68fb      	ldr	r3, [r7, #12]
 800255a:	2254      	movs	r2, #84	@ 0x54
 800255c:	2101      	movs	r1, #1
 800255e:	5499      	strb	r1, [r3, r2]

    /* Specific case for first call occurrence of this function (DMA transfer */
    /* not activated and ADC disabled), DMA transfer must be activated        */
    /* with ADC disabled.                                                     */
    if ((hadc->Instance->CFGR1 & ADC_CFGR1_DMAEN) == 0UL)
 8002560:	68fb      	ldr	r3, [r7, #12]
 8002562:	681b      	ldr	r3, [r3, #0]
 8002564:	68db      	ldr	r3, [r3, #12]
 8002566:	2201      	movs	r2, #1
 8002568:	4013      	ands	r3, r2
 800256a:	d113      	bne.n	8002594 <HAL_ADC_Start_DMA+0x64>
    {
      if (LL_ADC_IsEnabled(hadc->Instance) != 0UL)
 800256c:	68fb      	ldr	r3, [r7, #12]
 800256e:	681b      	ldr	r3, [r3, #0]
 8002570:	0018      	movs	r0, r3
 8002572:	f7ff fdff 	bl	8002174 <LL_ADC_IsEnabled>
 8002576:	1e03      	subs	r3, r0, #0
 8002578:	d004      	beq.n	8002584 <HAL_ADC_Start_DMA+0x54>
      {
        /* Disable ADC */
        LL_ADC_Disable(hadc->Instance);
 800257a:	68fb      	ldr	r3, [r7, #12]
 800257c:	681b      	ldr	r3, [r3, #0]
 800257e:	0018      	movs	r0, r3
 8002580:	f7ff fde6 	bl	8002150 <LL_ADC_Disable>
      }

      /* Enable ADC DMA mode */
      hadc->Instance->CFGR1 |= ADC_CFGR1_DMAEN;
 8002584:	68fb      	ldr	r3, [r7, #12]
 8002586:	681b      	ldr	r3, [r3, #0]
 8002588:	68da      	ldr	r2, [r3, #12]
 800258a:	68fb      	ldr	r3, [r7, #12]
 800258c:	681b      	ldr	r3, [r3, #0]
 800258e:	2101      	movs	r1, #1
 8002590:	430a      	orrs	r2, r1
 8002592:	60da      	str	r2, [r3, #12]
    }

    /* Enable the ADC peripheral */
    tmp_hal_status = ADC_Enable(hadc);
 8002594:	2517      	movs	r5, #23
 8002596:	197c      	adds	r4, r7, r5
 8002598:	68fb      	ldr	r3, [r7, #12]
 800259a:	0018      	movs	r0, r3
 800259c:	f000 fb66 	bl	8002c6c <ADC_Enable>
 80025a0:	0003      	movs	r3, r0
 80025a2:	7023      	strb	r3, [r4, #0]

    /* Start conversion if ADC is effectively enabled */
    if (tmp_hal_status == HAL_OK)
 80025a4:	002c      	movs	r4, r5
 80025a6:	193b      	adds	r3, r7, r4
 80025a8:	781b      	ldrb	r3, [r3, #0]
 80025aa:	2b00      	cmp	r3, #0
 80025ac:	d13e      	bne.n	800262c <HAL_ADC_Start_DMA+0xfc>
    {
      /* Set ADC state                                                        */
      /* - Clear state bitfield related to regular group conversion results   */
      /* - Set state bitfield related to regular operation                    */
      ADC_STATE_CLR_SET(hadc->State,
 80025ae:	68fb      	ldr	r3, [r7, #12]
 80025b0:	6d9b      	ldr	r3, [r3, #88]	@ 0x58
 80025b2:	4a22      	ldr	r2, [pc, #136]	@ (800263c <HAL_ADC_Start_DMA+0x10c>)
 80025b4:	4013      	ands	r3, r2
 80025b6:	2280      	movs	r2, #128	@ 0x80
 80025b8:	0052      	lsls	r2, r2, #1
 80025ba:	431a      	orrs	r2, r3
 80025bc:	68fb      	ldr	r3, [r7, #12]
 80025be:	659a      	str	r2, [r3, #88]	@ 0x58
                        HAL_ADC_STATE_READY | HAL_ADC_STATE_REG_EOC | HAL_ADC_STATE_REG_OVR | HAL_ADC_STATE_REG_EOSMP,
                        HAL_ADC_STATE_REG_BUSY);

      /* Set ADC error code */
      /* Reset all ADC error code fields */
      ADC_CLEAR_ERRORCODE(hadc);
 80025c0:	68fb      	ldr	r3, [r7, #12]
 80025c2:	2200      	movs	r2, #0
 80025c4:	65da      	str	r2, [r3, #92]	@ 0x5c

      /* Set the DMA transfer complete callback */
      hadc->DMA_Handle->XferCpltCallback = ADC_DMAConvCplt;
 80025c6:	68fb      	ldr	r3, [r7, #12]
 80025c8:	6d1b      	ldr	r3, [r3, #80]	@ 0x50
 80025ca:	4a1d      	ldr	r2, [pc, #116]	@ (8002640 <HAL_ADC_Start_DMA+0x110>)
 80025cc:	62da      	str	r2, [r3, #44]	@ 0x2c

      /* Set the DMA half transfer complete callback */
      hadc->DMA_Handle->XferHalfCpltCallback = ADC_DMAHalfConvCplt;
 80025ce:	68fb      	ldr	r3, [r7, #12]
 80025d0:	6d1b      	ldr	r3, [r3, #80]	@ 0x50
 80025d2:	4a1c      	ldr	r2, [pc, #112]	@ (8002644 <HAL_ADC_Start_DMA+0x114>)
 80025d4:	631a      	str	r2, [r3, #48]	@ 0x30

      /* Set the DMA error callback */
      hadc->DMA_Handle->XferErrorCallback = ADC_DMAError;
 80025d6:	68fb      	ldr	r3, [r7, #12]
 80025d8:	6d1b      	ldr	r3, [r3, #80]	@ 0x50
 80025da:	4a1b      	ldr	r2, [pc, #108]	@ (8002648 <HAL_ADC_Start_DMA+0x118>)
 80025dc:	635a      	str	r2, [r3, #52]	@ 0x34
      /* start (in case of SW start):                                         */

      /* Clear regular group conversion flag and overrun flag */
      /* (To ensure of no unknown state from potential previous ADC           */
      /* operations)                                                          */
      __HAL_ADC_CLEAR_FLAG(hadc, (ADC_FLAG_EOC | ADC_FLAG_EOS | ADC_FLAG_OVR));
 80025de:	68fb      	ldr	r3, [r7, #12]
 80025e0:	681b      	ldr	r3, [r3, #0]
 80025e2:	221c      	movs	r2, #28
 80025e4:	601a      	str	r2, [r3, #0]

      /* Process unlocked */
      /* Unlock before starting ADC conversions: in case of potential         */
      /* interruption, to let the process to ADC IRQ Handler.                 */
      __HAL_UNLOCK(hadc);
 80025e6:	68fb      	ldr	r3, [r7, #12]
 80025e8:	2254      	movs	r2, #84	@ 0x54
 80025ea:	2100      	movs	r1, #0
 80025ec:	5499      	strb	r1, [r3, r2]

      /* Enable ADC overrun interrupt */
      __HAL_ADC_ENABLE_IT(hadc, ADC_IT_OVR);
 80025ee:	68fb      	ldr	r3, [r7, #12]
 80025f0:	681b      	ldr	r3, [r3, #0]
 80025f2:	685a      	ldr	r2, [r3, #4]
 80025f4:	68fb      	ldr	r3, [r7, #12]
 80025f6:	681b      	ldr	r3, [r3, #0]
 80025f8:	2110      	movs	r1, #16
 80025fa:	430a      	orrs	r2, r1
 80025fc:	605a      	str	r2, [r3, #4]

      /* Start the DMA channel */
      tmp_hal_status = HAL_DMA_Start_IT(hadc->DMA_Handle, (uint32_t)&hadc->Instance->DR, (uint32_t)pData, Length);
 80025fe:	68fb      	ldr	r3, [r7, #12]
 8002600:	6d18      	ldr	r0, [r3, #80]	@ 0x50
 8002602:	68fb      	ldr	r3, [r7, #12]
 8002604:	681b      	ldr	r3, [r3, #0]
 8002606:	3340      	adds	r3, #64	@ 0x40
 8002608:	0019      	movs	r1, r3
 800260a:	68ba      	ldr	r2, [r7, #8]
 800260c:	193c      	adds	r4, r7, r4
 800260e:	687b      	ldr	r3, [r7, #4]
 8002610:	f001 fa66 	bl	8003ae0 <HAL_DMA_Start_IT>
 8002614:	0003      	movs	r3, r0
 8002616:	7023      	strb	r3, [r4, #0]
      /* Enable conversion of regular group.                                  */
      /* If software start has been selected, conversion starts immediately.  */
      /* If external trigger has been selected, conversion will start at next */
      /* trigger event.                                                       */
      /* Start ADC group regular conversion */
      LL_ADC_REG_StartConversion(hadc->Instance);
 8002618:	68fb      	ldr	r3, [r7, #12]
 800261a:	681b      	ldr	r3, [r3, #0]
 800261c:	0018      	movs	r0, r3
 800261e:	f7ff fdbb 	bl	8002198 <LL_ADC_REG_StartConversion>
 8002622:	e003      	b.n	800262c <HAL_ADC_Start_DMA+0xfc>
    }
  }
  else
  {
    tmp_hal_status = HAL_BUSY;
 8002624:	2317      	movs	r3, #23
 8002626:	18fb      	adds	r3, r7, r3
 8002628:	2202      	movs	r2, #2
 800262a:	701a      	strb	r2, [r3, #0]
  }

  return tmp_hal_status;
 800262c:	2317      	movs	r3, #23
 800262e:	18fb      	adds	r3, r7, r3
 8002630:	781b      	ldrb	r3, [r3, #0]
}
 8002632:	0018      	movs	r0, r3
 8002634:	46bd      	mov	sp, r7
 8002636:	b006      	add	sp, #24
 8002638:	bdb0      	pop	{r4, r5, r7, pc}
 800263a:	46c0      	nop			@ (mov r8, r8)
 800263c:	fffff0fe 	.word	0xfffff0fe
 8002640:	08002d79 	.word	0x08002d79
 8002644:	08002e41 	.word	0x08002e41
 8002648:	08002e5f 	.word	0x08002e5f

0800264c <HAL_ADC_IRQHandler>:
  * @brief  Handle ADC interrupt request.
  * @param hadc ADC handle
  * @retval None
  */
void HAL_ADC_IRQHandler(ADC_HandleTypeDef *hadc)
{
 800264c:	b580      	push	{r7, lr}
 800264e:	b086      	sub	sp, #24
 8002650:	af00      	add	r7, sp, #0
 8002652:	6078      	str	r0, [r7, #4]
  uint32_t overrun_error = 0UL; /* flag set if overrun occurrence has to be considered as an error */
 8002654:	2300      	movs	r3, #0
 8002656:	617b      	str	r3, [r7, #20]
  uint32_t tmp_isr = hadc->Instance->ISR;
 8002658:	687b      	ldr	r3, [r7, #4]
 800265a:	681b      	ldr	r3, [r3, #0]
 800265c:	681b      	ldr	r3, [r3, #0]
 800265e:	613b      	str	r3, [r7, #16]
  uint32_t tmp_ier = hadc->Instance->IER;
 8002660:	687b      	ldr	r3, [r7, #4]
 8002662:	681b      	ldr	r3, [r3, #0]
 8002664:	685b      	ldr	r3, [r3, #4]
 8002666:	60fb      	str	r3, [r7, #12]
  /* Check the parameters */
  assert_param(IS_ADC_ALL_INSTANCE(hadc->Instance));
  assert_param(IS_ADC_EOC_SELECTION(hadc->Init.EOCSelection));

  /* ========== Check End of Sampling flag for ADC group regular ========== */
  if (((tmp_isr & ADC_FLAG_EOSMP) == ADC_FLAG_EOSMP) && ((tmp_ier & ADC_IT_EOSMP) == ADC_IT_EOSMP))
 8002668:	693b      	ldr	r3, [r7, #16]
 800266a:	2202      	movs	r2, #2
 800266c:	4013      	ands	r3, r2
 800266e:	d017      	beq.n	80026a0 <HAL_ADC_IRQHandler+0x54>
 8002670:	68fb      	ldr	r3, [r7, #12]
 8002672:	2202      	movs	r2, #2
 8002674:	4013      	ands	r3, r2
 8002676:	d013      	beq.n	80026a0 <HAL_ADC_IRQHandler+0x54>
  {
    /* Update state machine on end of sampling status if not in error state */
    if ((hadc->State & HAL_ADC_STATE_ERROR_INTERNAL) == 0UL)
 8002678:	687b      	ldr	r3, [r7, #4]
 800267a:	6d9b      	ldr	r3, [r3, #88]	@ 0x58
 800267c:	2210      	movs	r2, #16
 800267e:	4013      	ands	r3, r2
 8002680:	d106      	bne.n	8002690 <HAL_ADC_IRQHandler+0x44>
    {
      /* Set ADC state */
      SET_BIT(hadc->State, HAL_ADC_STATE_REG_EOSMP);
 8002682:	687b      	ldr	r3, [r7, #4]
 8002684:	6d9b      	ldr	r3, [r3, #88]	@ 0x58
 8002686:	2280      	movs	r2, #128	@ 0x80
 8002688:	0112      	lsls	r2, r2, #4
 800268a:	431a      	orrs	r2, r3
 800268c:	687b      	ldr	r3, [r7, #4]
 800268e:	659a      	str	r2, [r3, #88]	@ 0x58

    /* End Of Sampling callback */
#if (USE_HAL_ADC_REGISTER_CALLBACKS == 1)
    hadc->EndOfSamplingCallback(hadc);
#else
    HAL_ADCEx_EndOfSamplingCallback(hadc);
 8002690:	687b      	ldr	r3, [r7, #4]
 8002692:	0018      	movs	r0, r3
 8002694:	f000 fc0e 	bl	8002eb4 <HAL_ADCEx_EndOfSamplingCallback>
#endif /* USE_HAL_ADC_REGISTER_CALLBACKS */

    /* Clear regular group conversion flag */
    __HAL_ADC_CLEAR_FLAG(hadc, ADC_FLAG_EOSMP);
 8002698:	687b      	ldr	r3, [r7, #4]
 800269a:	681b      	ldr	r3, [r3, #0]
 800269c:	2202      	movs	r2, #2
 800269e:	601a      	str	r2, [r3, #0]
  }

  /* ====== Check ADC group regular end of unitary conversion sequence conversions ===== */
  if ((((tmp_isr & ADC_FLAG_EOC) == ADC_FLAG_EOC) && ((tmp_ier & ADC_IT_EOC) == ADC_IT_EOC)) ||
 80026a0:	693b      	ldr	r3, [r7, #16]
 80026a2:	2204      	movs	r2, #4
 80026a4:	4013      	ands	r3, r2
 80026a6:	d003      	beq.n	80026b0 <HAL_ADC_IRQHandler+0x64>
 80026a8:	68fb      	ldr	r3, [r7, #12]
 80026aa:	2204      	movs	r2, #4
 80026ac:	4013      	ands	r3, r2
 80026ae:	d107      	bne.n	80026c0 <HAL_ADC_IRQHandler+0x74>
      (((tmp_isr & ADC_FLAG_EOS) == ADC_FLAG_EOS) && ((tmp_ier & ADC_IT_EOS) == ADC_IT_EOS)))
 80026b0:	693b      	ldr	r3, [r7, #16]
 80026b2:	2208      	movs	r2, #8
 80026b4:	4013      	ands	r3, r2
  if ((((tmp_isr & ADC_FLAG_EOC) == ADC_FLAG_EOC) && ((tmp_ier & ADC_IT_EOC) == ADC_IT_EOC)) ||
 80026b6:	d04d      	beq.n	8002754 <HAL_ADC_IRQHandler+0x108>
      (((tmp_isr & ADC_FLAG_EOS) == ADC_FLAG_EOS) && ((tmp_ier & ADC_IT_EOS) == ADC_IT_EOS)))
 80026b8:	68fb      	ldr	r3, [r7, #12]
 80026ba:	2208      	movs	r2, #8
 80026bc:	4013      	ands	r3, r2
 80026be:	d049      	beq.n	8002754 <HAL_ADC_IRQHandler+0x108>
  {
    /* Update state machine on conversion status if not in error state */
    if ((hadc->State & HAL_ADC_STATE_ERROR_INTERNAL) == 0UL)
 80026c0:	687b      	ldr	r3, [r7, #4]
 80026c2:	6d9b      	ldr	r3, [r3, #88]	@ 0x58
 80026c4:	2210      	movs	r2, #16
 80026c6:	4013      	ands	r3, r2
 80026c8:	d106      	bne.n	80026d8 <HAL_ADC_IRQHandler+0x8c>
    {
      /* Set ADC state */
      SET_BIT(hadc->State, HAL_ADC_STATE_REG_EOC);
 80026ca:	687b      	ldr	r3, [r7, #4]
 80026cc:	6d9b      	ldr	r3, [r3, #88]	@ 0x58
 80026ce:	2280      	movs	r2, #128	@ 0x80
 80026d0:	0092      	lsls	r2, r2, #2
 80026d2:	431a      	orrs	r2, r3
 80026d4:	687b      	ldr	r3, [r7, #4]
 80026d6:	659a      	str	r2, [r3, #88]	@ 0x58
    }

    /* Determine whether any further conversion upcoming on group regular     */
    /* by external trigger, continuous mode or scan sequence on going         */
    /* to disable interruption.                                               */
    if ((LL_ADC_REG_IsTriggerSourceSWStart(hadc->Instance) != 0UL)
 80026d8:	687b      	ldr	r3, [r7, #4]
 80026da:	681b      	ldr	r3, [r3, #0]
 80026dc:	0018      	movs	r0, r3
 80026de:	f7ff fc80 	bl	8001fe2 <LL_ADC_REG_IsTriggerSourceSWStart>
 80026e2:	1e03      	subs	r3, r0, #0
 80026e4:	d02e      	beq.n	8002744 <HAL_ADC_IRQHandler+0xf8>
        && (hadc->Init.ContinuousConvMode == DISABLE)
 80026e6:	687b      	ldr	r3, [r7, #4]
 80026e8:	7e9b      	ldrb	r3, [r3, #26]
 80026ea:	2b00      	cmp	r3, #0
 80026ec:	d12a      	bne.n	8002744 <HAL_ADC_IRQHandler+0xf8>
       )
    {
      /* If End of Sequence is reached, disable interrupts */
      if (__HAL_ADC_GET_FLAG(hadc, ADC_FLAG_EOS))
 80026ee:	687b      	ldr	r3, [r7, #4]
 80026f0:	681b      	ldr	r3, [r3, #0]
 80026f2:	681b      	ldr	r3, [r3, #0]
 80026f4:	2208      	movs	r2, #8
 80026f6:	4013      	ands	r3, r2
 80026f8:	2b08      	cmp	r3, #8
 80026fa:	d123      	bne.n	8002744 <HAL_ADC_IRQHandler+0xf8>
      {
        /* Allowed to modify bits ADC_IT_EOC/ADC_IT_EOS only if bit           */
        /* ADSTART==0 (no conversion on going)                                */
        if (LL_ADC_REG_IsConversionOngoing(hadc->Instance) == 0UL)
 80026fc:	687b      	ldr	r3, [r7, #4]
 80026fe:	681b      	ldr	r3, [r3, #0]
 8002700:	0018      	movs	r0, r3
 8002702:	f7ff fd5b 	bl	80021bc <LL_ADC_REG_IsConversionOngoing>
 8002706:	1e03      	subs	r3, r0, #0
 8002708:	d110      	bne.n	800272c <HAL_ADC_IRQHandler+0xe0>
        {
          /* Disable ADC end of single conversion interrupt on group regular */
          /* Note: Overrun interrupt was enabled with EOC interrupt in        */
          /* HAL_Start_IT(), but is not disabled here because can be used     */
          /* by overrun IRQ process below.                                    */
          __HAL_ADC_DISABLE_IT(hadc, ADC_IT_EOC | ADC_IT_EOS);
 800270a:	687b      	ldr	r3, [r7, #4]
 800270c:	681b      	ldr	r3, [r3, #0]
 800270e:	685a      	ldr	r2, [r3, #4]
 8002710:	687b      	ldr	r3, [r7, #4]
 8002712:	681b      	ldr	r3, [r3, #0]
 8002714:	210c      	movs	r1, #12
 8002716:	438a      	bics	r2, r1
 8002718:	605a      	str	r2, [r3, #4]

          /* Set ADC state */
          ADC_STATE_CLR_SET(hadc->State,
 800271a:	687b      	ldr	r3, [r7, #4]
 800271c:	6d9b      	ldr	r3, [r3, #88]	@ 0x58
 800271e:	4a56      	ldr	r2, [pc, #344]	@ (8002878 <HAL_ADC_IRQHandler+0x22c>)
 8002720:	4013      	ands	r3, r2
 8002722:	2201      	movs	r2, #1
 8002724:	431a      	orrs	r2, r3
 8002726:	687b      	ldr	r3, [r7, #4]
 8002728:	659a      	str	r2, [r3, #88]	@ 0x58
 800272a:	e00b      	b.n	8002744 <HAL_ADC_IRQHandler+0xf8>
                            HAL_ADC_STATE_READY);
        }
        else
        {
          /* Change ADC state to error state */
          SET_BIT(hadc->State, HAL_ADC_STATE_ERROR_CONFIG);
 800272c:	687b      	ldr	r3, [r7, #4]
 800272e:	6d9b      	ldr	r3, [r3, #88]	@ 0x58
 8002730:	2220      	movs	r2, #32
 8002732:	431a      	orrs	r2, r3
 8002734:	687b      	ldr	r3, [r7, #4]
 8002736:	659a      	str	r2, [r3, #88]	@ 0x58

          /* Set ADC error code to ADC peripheral internal error */
          SET_BIT(hadc->ErrorCode, HAL_ADC_ERROR_INTERNAL);
 8002738:	687b      	ldr	r3, [r7, #4]
 800273a:	6ddb      	ldr	r3, [r3, #92]	@ 0x5c
 800273c:	2201      	movs	r2, #1
 800273e:	431a      	orrs	r2, r3
 8002740:	687b      	ldr	r3, [r7, #4]
 8002742:	65da      	str	r2, [r3, #92]	@ 0x5c
    /*       possibility to use:                                              */
    /*        " if ( __HAL_ADC_GET_FLAG(&hadc, ADC_FLAG_EOS)) "               */
#if (USE_HAL_ADC_REGISTER_CALLBACKS == 1)
    hadc->ConvCpltCallback(hadc);
#else
    HAL_ADC_ConvCpltCallback(hadc);
 8002744:	687b      	ldr	r3, [r7, #4]
 8002746:	0018      	movs	r0, r3
 8002748:	f000 f898 	bl	800287c <HAL_ADC_ConvCpltCallback>
    /* Clear regular group conversion flag */
    /* Note: in case of overrun set to ADC_OVR_DATA_PRESERVED, end of         */
    /*       conversion flags clear induces the release of the preserved data.*/
    /*       Therefore, if the preserved data value is needed, it must be     */
    /*       read preliminarily into HAL_ADC_ConvCpltCallback().              */
    __HAL_ADC_CLEAR_FLAG(hadc, (ADC_FLAG_EOC | ADC_FLAG_EOS));
 800274c:	687b      	ldr	r3, [r7, #4]
 800274e:	681b      	ldr	r3, [r3, #0]
 8002750:	220c      	movs	r2, #12
 8002752:	601a      	str	r2, [r3, #0]
  }

  /* ========== Check Analog watchdog 1 flag ========== */
  if (((tmp_isr & ADC_FLAG_AWD1) == ADC_FLAG_AWD1) && ((tmp_ier & ADC_IT_AWD1) == ADC_IT_AWD1))
 8002754:	693b      	ldr	r3, [r7, #16]
 8002756:	2280      	movs	r2, #128	@ 0x80
 8002758:	4013      	ands	r3, r2
 800275a:	d012      	beq.n	8002782 <HAL_ADC_IRQHandler+0x136>
 800275c:	68fb      	ldr	r3, [r7, #12]
 800275e:	2280      	movs	r2, #128	@ 0x80
 8002760:	4013      	ands	r3, r2
 8002762:	d00e      	beq.n	8002782 <HAL_ADC_IRQHandler+0x136>
  {
    /* Set ADC state */
    SET_BIT(hadc->State, HAL_ADC_STATE_AWD1);
 8002764:	687b      	ldr	r3, [r7, #4]
 8002766:	6d9b      	ldr	r3, [r3, #88]	@ 0x58
 8002768:	2280      	movs	r2, #128	@ 0x80
 800276a:	0252      	lsls	r2, r2, #9
 800276c:	431a      	orrs	r2, r3
 800276e:	687b      	ldr	r3, [r7, #4]
 8002770:	659a      	str	r2, [r3, #88]	@ 0x58

    /* Level out of window 1 callback */
#if (USE_HAL_ADC_REGISTER_CALLBACKS == 1)
    hadc->LevelOutOfWindowCallback(hadc);
#else
    HAL_ADC_LevelOutOfWindowCallback(hadc);
 8002772:	687b      	ldr	r3, [r7, #4]
 8002774:	0018      	movs	r0, r3
 8002776:	f000 f891 	bl	800289c <HAL_ADC_LevelOutOfWindowCallback>
#endif /* USE_HAL_ADC_REGISTER_CALLBACKS */

    /* Clear ADC analog watchdog flag */
    __HAL_ADC_CLEAR_FLAG(hadc, ADC_FLAG_AWD1);
 800277a:	687b      	ldr	r3, [r7, #4]
 800277c:	681b      	ldr	r3, [r3, #0]
 800277e:	2280      	movs	r2, #128	@ 0x80
 8002780:	601a      	str	r2, [r3, #0]
  }

  /* ========== Check analog watchdog 2 flag ========== */
  if (((tmp_isr & ADC_FLAG_AWD2) == ADC_FLAG_AWD2) && ((tmp_ier & ADC_IT_AWD2) == ADC_IT_AWD2))
 8002782:	693a      	ldr	r2, [r7, #16]
 8002784:	2380      	movs	r3, #128	@ 0x80
 8002786:	005b      	lsls	r3, r3, #1
 8002788:	4013      	ands	r3, r2
 800278a:	d014      	beq.n	80027b6 <HAL_ADC_IRQHandler+0x16a>
 800278c:	68fa      	ldr	r2, [r7, #12]
 800278e:	2380      	movs	r3, #128	@ 0x80
 8002790:	005b      	lsls	r3, r3, #1
 8002792:	4013      	ands	r3, r2
 8002794:	d00f      	beq.n	80027b6 <HAL_ADC_IRQHandler+0x16a>
  {
    /* Set ADC state */
    SET_BIT(hadc->State, HAL_ADC_STATE_AWD2);
 8002796:	687b      	ldr	r3, [r7, #4]
 8002798:	6d9b      	ldr	r3, [r3, #88]	@ 0x58
 800279a:	2280      	movs	r2, #128	@ 0x80
 800279c:	0292      	lsls	r2, r2, #10
 800279e:	431a      	orrs	r2, r3
 80027a0:	687b      	ldr	r3, [r7, #4]
 80027a2:	659a      	str	r2, [r3, #88]	@ 0x58

    /* Level out of window 2 callback */
#if (USE_HAL_ADC_REGISTER_CALLBACKS == 1)
    hadc->LevelOutOfWindow2Callback(hadc);
#else
    HAL_ADCEx_LevelOutOfWindow2Callback(hadc);
 80027a4:	687b      	ldr	r3, [r7, #4]
 80027a6:	0018      	movs	r0, r3
 80027a8:	f000 fb74 	bl	8002e94 <HAL_ADCEx_LevelOutOfWindow2Callback>
#endif /* USE_HAL_ADC_REGISTER_CALLBACKS */

    /* Clear ADC analog watchdog flag */
    __HAL_ADC_CLEAR_FLAG(hadc, ADC_FLAG_AWD2);
 80027ac:	687b      	ldr	r3, [r7, #4]
 80027ae:	681b      	ldr	r3, [r3, #0]
 80027b0:	2280      	movs	r2, #128	@ 0x80
 80027b2:	0052      	lsls	r2, r2, #1
 80027b4:	601a      	str	r2, [r3, #0]
  }

  /* ========== Check analog watchdog 3 flag ========== */
  if (((tmp_isr & ADC_FLAG_AWD3) == ADC_FLAG_AWD3) && ((tmp_ier & ADC_IT_AWD3) == ADC_IT_AWD3))
 80027b6:	693a      	ldr	r2, [r7, #16]
 80027b8:	2380      	movs	r3, #128	@ 0x80
 80027ba:	009b      	lsls	r3, r3, #2
 80027bc:	4013      	ands	r3, r2
 80027be:	d014      	beq.n	80027ea <HAL_ADC_IRQHandler+0x19e>
 80027c0:	68fa      	ldr	r2, [r7, #12]
 80027c2:	2380      	movs	r3, #128	@ 0x80
 80027c4:	009b      	lsls	r3, r3, #2
 80027c6:	4013      	ands	r3, r2
 80027c8:	d00f      	beq.n	80027ea <HAL_ADC_IRQHandler+0x19e>
  {
    /* Set ADC state */
    SET_BIT(hadc->State, HAL_ADC_STATE_AWD3);
 80027ca:	687b      	ldr	r3, [r7, #4]
 80027cc:	6d9b      	ldr	r3, [r3, #88]	@ 0x58
 80027ce:	2280      	movs	r2, #128	@ 0x80
 80027d0:	02d2      	lsls	r2, r2, #11
 80027d2:	431a      	orrs	r2, r3
 80027d4:	687b      	ldr	r3, [r7, #4]
 80027d6:	659a      	str	r2, [r3, #88]	@ 0x58

    /* Level out of window 3 callback */
#if (USE_HAL_ADC_REGISTER_CALLBACKS == 1)
    hadc->LevelOutOfWindow3Callback(hadc);
#else
    HAL_ADCEx_LevelOutOfWindow3Callback(hadc);
 80027d8:	687b      	ldr	r3, [r7, #4]
 80027da:	0018      	movs	r0, r3
 80027dc:	f000 fb62 	bl	8002ea4 <HAL_ADCEx_LevelOutOfWindow3Callback>
#endif /* USE_HAL_ADC_REGISTER_CALLBACKS */

    /* Clear ADC analog watchdog flag */
    __HAL_ADC_CLEAR_FLAG(hadc, ADC_FLAG_AWD3);
 80027e0:	687b      	ldr	r3, [r7, #4]
 80027e2:	681b      	ldr	r3, [r3, #0]
 80027e4:	2280      	movs	r2, #128	@ 0x80
 80027e6:	0092      	lsls	r2, r2, #2
 80027e8:	601a      	str	r2, [r3, #0]
  }

  /* ========== Check Overrun flag ========== */
  if (((tmp_isr & ADC_FLAG_OVR) == ADC_FLAG_OVR) && ((tmp_ier & ADC_IT_OVR) == ADC_IT_OVR))
 80027ea:	693b      	ldr	r3, [r7, #16]
 80027ec:	2210      	movs	r2, #16
 80027ee:	4013      	ands	r3, r2
 80027f0:	d02b      	beq.n	800284a <HAL_ADC_IRQHandler+0x1fe>
 80027f2:	68fb      	ldr	r3, [r7, #12]
 80027f4:	2210      	movs	r2, #16
 80027f6:	4013      	ands	r3, r2
 80027f8:	d027      	beq.n	800284a <HAL_ADC_IRQHandler+0x1fe>
    /* overrun event is not considered as an error.                           */
    /* (cf ref manual "Managing conversions without using the DMA and without */
    /* overrun ")                                                             */
    /* Exception for usage with DMA overrun event always considered as an     */
    /* error.                                                                 */
    if (hadc->Init.Overrun == ADC_OVR_DATA_PRESERVED)
 80027fa:	687b      	ldr	r3, [r7, #4]
 80027fc:	6b1b      	ldr	r3, [r3, #48]	@ 0x30
 80027fe:	2b00      	cmp	r3, #0
 8002800:	d102      	bne.n	8002808 <HAL_ADC_IRQHandler+0x1bc>
    {
      overrun_error = 1UL;
 8002802:	2301      	movs	r3, #1
 8002804:	617b      	str	r3, [r7, #20]
 8002806:	e008      	b.n	800281a <HAL_ADC_IRQHandler+0x1ce>
    }
    else
    {
      /* Check DMA configuration */
      if (LL_ADC_REG_GetDMATransfer(hadc->Instance) != LL_ADC_REG_DMA_TRANSFER_NONE)
 8002808:	687b      	ldr	r3, [r7, #4]
 800280a:	681b      	ldr	r3, [r3, #0]
 800280c:	0018      	movs	r0, r3
 800280e:	f7ff fc3c 	bl	800208a <LL_ADC_REG_GetDMATransfer>
 8002812:	1e03      	subs	r3, r0, #0
 8002814:	d001      	beq.n	800281a <HAL_ADC_IRQHandler+0x1ce>
      {
        overrun_error = 1UL;
 8002816:	2301      	movs	r3, #1
 8002818:	617b      	str	r3, [r7, #20]
      }
    }

    if (overrun_error == 1UL)
 800281a:	697b      	ldr	r3, [r7, #20]
 800281c:	2b01      	cmp	r3, #1
 800281e:	d110      	bne.n	8002842 <HAL_ADC_IRQHandler+0x1f6>
    {
      /* Change ADC state to error state */
      SET_BIT(hadc->State, HAL_ADC_STATE_REG_OVR);
 8002820:	687b      	ldr	r3, [r7, #4]
 8002822:	6d9b      	ldr	r3, [r3, #88]	@ 0x58
 8002824:	2280      	movs	r2, #128	@ 0x80
 8002826:	00d2      	lsls	r2, r2, #3
 8002828:	431a      	orrs	r2, r3
 800282a:	687b      	ldr	r3, [r7, #4]
 800282c:	659a      	str	r2, [r3, #88]	@ 0x58

      /* Set ADC error code to overrun */
      SET_BIT(hadc->ErrorCode, HAL_ADC_ERROR_OVR);
 800282e:	687b      	ldr	r3, [r7, #4]
 8002830:	6ddb      	ldr	r3, [r3, #92]	@ 0x5c
 8002832:	2202      	movs	r2, #2
 8002834:	431a      	orrs	r2, r3
 8002836:	687b      	ldr	r3, [r7, #4]
 8002838:	65da      	str	r2, [r3, #92]	@ 0x5c
      /*       Therefore, old ADC conversion data can be retrieved in         */
      /*       function "HAL_ADC_ErrorCallback()".                            */
#if (USE_HAL_ADC_REGISTER_CALLBACKS == 1)
      hadc->ErrorCallback(hadc);
#else
      HAL_ADC_ErrorCallback(hadc);
 800283a:	687b      	ldr	r3, [r7, #4]
 800283c:	0018      	movs	r0, r3
 800283e:	f000 f835 	bl	80028ac <HAL_ADC_ErrorCallback>
#endif /* USE_HAL_ADC_REGISTER_CALLBACKS */
    }

    /* Clear ADC overrun flag */
    __HAL_ADC_CLEAR_FLAG(hadc, ADC_FLAG_OVR);
 8002842:	687b      	ldr	r3, [r7, #4]
 8002844:	681b      	ldr	r3, [r3, #0]
 8002846:	2210      	movs	r2, #16
 8002848:	601a      	str	r2, [r3, #0]
  }

  /* ========== Check channel configuration ready flag ========== */
  if (((tmp_isr & ADC_FLAG_CCRDY) == ADC_FLAG_CCRDY) && ((tmp_ier & ADC_IT_CCRDY) == ADC_IT_CCRDY))
 800284a:	693a      	ldr	r2, [r7, #16]
 800284c:	2380      	movs	r3, #128	@ 0x80
 800284e:	019b      	lsls	r3, r3, #6
 8002850:	4013      	ands	r3, r2
 8002852:	d00d      	beq.n	8002870 <HAL_ADC_IRQHandler+0x224>
 8002854:	68fa      	ldr	r2, [r7, #12]
 8002856:	2380      	movs	r3, #128	@ 0x80
 8002858:	019b      	lsls	r3, r3, #6
 800285a:	4013      	ands	r3, r2
 800285c:	d008      	beq.n	8002870 <HAL_ADC_IRQHandler+0x224>
  {
    /* Channel configuration ready callback */
    HAL_ADCEx_ChannelConfigReadyCallback(hadc);
 800285e:	687b      	ldr	r3, [r7, #4]
 8002860:	0018      	movs	r0, r3
 8002862:	f000 fb2f 	bl	8002ec4 <HAL_ADCEx_ChannelConfigReadyCallback>

    /* Clear ADC analog watchdog flag */
    __HAL_ADC_CLEAR_FLAG(hadc, ADC_FLAG_CCRDY);
 8002866:	687b      	ldr	r3, [r7, #4]
 8002868:	681b      	ldr	r3, [r3, #0]
 800286a:	2280      	movs	r2, #128	@ 0x80
 800286c:	0192      	lsls	r2, r2, #6
 800286e:	601a      	str	r2, [r3, #0]
  }
}
 8002870:	46c0      	nop			@ (mov r8, r8)
 8002872:	46bd      	mov	sp, r7
 8002874:	b006      	add	sp, #24
 8002876:	bd80      	pop	{r7, pc}
 8002878:	fffffefe 	.word	0xfffffefe

0800287c <HAL_ADC_ConvCpltCallback>:
  * @brief  Conversion complete callback in non-blocking mode.
  * @param hadc ADC handle
  * @retval None
  */
__weak void HAL_ADC_ConvCpltCallback(ADC_HandleTypeDef *hadc)
{
 800287c:	b580      	push	{r7, lr}
 800287e:	b082      	sub	sp, #8
 8002880:	af00      	add	r7, sp, #0
 8002882:	6078      	str	r0, [r7, #4]
  UNUSED(hadc);

  /* NOTE : This function should not be modified. When the callback is needed,
            function HAL_ADC_ConvCpltCallback must be implemented in the user file.
   */
}
 8002884:	46c0      	nop			@ (mov r8, r8)
 8002886:	46bd      	mov	sp, r7
 8002888:	b002      	add	sp, #8
 800288a:	bd80      	pop	{r7, pc}

0800288c <HAL_ADC_ConvHalfCpltCallback>:
  * @brief  Conversion DMA half-transfer callback in non-blocking mode.
  * @param hadc ADC handle
  * @retval None
  */
__weak void HAL_ADC_ConvHalfCpltCallback(ADC_HandleTypeDef *hadc)
{
 800288c:	b580      	push	{r7, lr}
 800288e:	b082      	sub	sp, #8
 8002890:	af00      	add	r7, sp, #0
 8002892:	6078      	str	r0, [r7, #4]
  UNUSED(hadc);

  /* NOTE : This function should not be modified. When the callback is needed,
            function HAL_ADC_ConvHalfCpltCallback must be implemented in the user file.
  */
}
 8002894:	46c0      	nop			@ (mov r8, r8)
 8002896:	46bd      	mov	sp, r7
 8002898:	b002      	add	sp, #8
 800289a:	bd80      	pop	{r7, pc}

0800289c <HAL_ADC_LevelOutOfWindowCallback>:
  * @brief  Analog watchdog 1 callback in non-blocking mode.
  * @param hadc ADC handle
  * @retval None
  */
__weak void HAL_ADC_LevelOutOfWindowCallback(ADC_HandleTypeDef *hadc)
{
 800289c:	b580      	push	{r7, lr}
 800289e:	b082      	sub	sp, #8
 80028a0:	af00      	add	r7, sp, #0
 80028a2:	6078      	str	r0, [r7, #4]
  UNUSED(hadc);

  /* NOTE : This function should not be modified. When the callback is needed,
            function HAL_ADC_LevelOutOfWindowCallback must be implemented in the user file.
  */
}
 80028a4:	46c0      	nop			@ (mov r8, r8)
 80028a6:	46bd      	mov	sp, r7
 80028a8:	b002      	add	sp, #8
 80028aa:	bd80      	pop	{r7, pc}

080028ac <HAL_ADC_ErrorCallback>:
  *           (this function is also clearing overrun flag)
  * @param hadc ADC handle
  * @retval None
  */
__weak void HAL_ADC_ErrorCallback(ADC_HandleTypeDef *hadc)
{
 80028ac:	b580      	push	{r7, lr}
 80028ae:	b082      	sub	sp, #8
 80028b0:	af00      	add	r7, sp, #0
 80028b2:	6078      	str	r0, [r7, #4]
  UNUSED(hadc);

  /* NOTE : This function should not be modified. When the callback is needed,
            function HAL_ADC_ErrorCallback must be implemented in the user file.
  */
}
 80028b4:	46c0      	nop			@ (mov r8, r8)
 80028b6:	46bd      	mov	sp, r7
 80028b8:	b002      	add	sp, #8
 80028ba:	bd80      	pop	{r7, pc}

080028bc <HAL_ADC_ConfigChannel>:
  * @param hadc ADC handle
  * @param pConfig Structure of ADC channel assigned to ADC group regular.
  * @retval HAL status
  */
HAL_StatusTypeDef HAL_ADC_ConfigChannel(ADC_HandleTypeDef *hadc, const ADC_ChannelConfTypeDef *pConfig)
{
 80028bc:	b580      	push	{r7, lr}
 80028be:	b086      	sub	sp, #24
 80028c0:	af00      	add	r7, sp, #0
 80028c2:	6078      	str	r0, [r7, #4]
 80028c4:	6039      	str	r1, [r7, #0]
  HAL_StatusTypeDef tmp_hal_status = HAL_OK;
 80028c6:	2317      	movs	r3, #23
 80028c8:	18fb      	adds	r3, r7, r3
 80028ca:	2200      	movs	r2, #0
 80028cc:	701a      	strb	r2, [r3, #0]
  uint32_t tmp_config_internal_channel;
  __IO uint32_t wait_loop_index = 0UL;
 80028ce:	2300      	movs	r3, #0
 80028d0:	60fb      	str	r3, [r7, #12]
    assert_param(IS_ADC_REGULAR_NB_CONV(hadc->Init.NbrOfConversion));

    assert_param(IS_ADC_REGULAR_RANK(pConfig->Rank));
  }

  __HAL_LOCK(hadc);
 80028d2:	687b      	ldr	r3, [r7, #4]
 80028d4:	2254      	movs	r2, #84	@ 0x54
 80028d6:	5c9b      	ldrb	r3, [r3, r2]
 80028d8:	2b01      	cmp	r3, #1
 80028da:	d101      	bne.n	80028e0 <HAL_ADC_ConfigChannel+0x24>
 80028dc:	2302      	movs	r3, #2
 80028de:	e1c0      	b.n	8002c62 <HAL_ADC_ConfigChannel+0x3a6>
 80028e0:	687b      	ldr	r3, [r7, #4]
 80028e2:	2254      	movs	r2, #84	@ 0x54
 80028e4:	2101      	movs	r1, #1
 80028e6:	5499      	strb	r1, [r3, r2]
  /* Parameters that can be updated when ADC is disabled or enabled without   */
  /* conversion on going on regular group:                                    */
  /*  - Channel number                                                        */
  /*  - Channel sampling time                                                 */
  /*  - Management of internal measurement channels: VrefInt/TempSensor/Vbat  */
  if (LL_ADC_REG_IsConversionOngoing(hadc->Instance) == 0UL)
 80028e8:	687b      	ldr	r3, [r7, #4]
 80028ea:	681b      	ldr	r3, [r3, #0]
 80028ec:	0018      	movs	r0, r3
 80028ee:	f7ff fc65 	bl	80021bc <LL_ADC_REG_IsConversionOngoing>
 80028f2:	1e03      	subs	r3, r0, #0
 80028f4:	d000      	beq.n	80028f8 <HAL_ADC_ConfigChannel+0x3c>
 80028f6:	e1a3      	b.n	8002c40 <HAL_ADC_ConfigChannel+0x384>
    /* If sequencer set to not fully configurable with channel rank set to    */
    /* none, remove the channel from the sequencer.                           */
    /* Otherwise (sequencer set to fully configurable or to to not fully      */
    /* configurable with channel rank to be set), configure the selected      */
    /* channel.                                                               */
    if (pConfig->Rank != ADC_RANK_NONE)
 80028f8:	683b      	ldr	r3, [r7, #0]
 80028fa:	685b      	ldr	r3, [r3, #4]
 80028fc:	2b02      	cmp	r3, #2
 80028fe:	d100      	bne.n	8002902 <HAL_ADC_ConfigChannel+0x46>
 8002900:	e143      	b.n	8002b8a <HAL_ADC_ConfigChannel+0x2ce>
      /* Note: ADC channel configuration requires few ADC clock cycles        */
      /*       to be ready. Processing of ADC settings in this function       */
      /*       induce that a specific wait time is not necessary.             */
      /*       For more details on ADC channel configuration ready,           */
      /*       refer to function "LL_ADC_IsActiveFlag_CCRDY()".               */
      if ((hadc->Init.ScanConvMode == ADC_SCAN_SEQ_FIXED)       ||
 8002902:	687b      	ldr	r3, [r7, #4]
 8002904:	691a      	ldr	r2, [r3, #16]
 8002906:	2380      	movs	r3, #128	@ 0x80
 8002908:	061b      	lsls	r3, r3, #24
 800290a:	429a      	cmp	r2, r3
 800290c:	d004      	beq.n	8002918 <HAL_ADC_ConfigChannel+0x5c>
          (hadc->Init.ScanConvMode == ADC_SCAN_SEQ_FIXED_BACKWARD))
 800290e:	687b      	ldr	r3, [r7, #4]
 8002910:	691b      	ldr	r3, [r3, #16]
      if ((hadc->Init.ScanConvMode == ADC_SCAN_SEQ_FIXED)       ||
 8002912:	4ac1      	ldr	r2, [pc, #772]	@ (8002c18 <HAL_ADC_ConfigChannel+0x35c>)
 8002914:	4293      	cmp	r3, r2
 8002916:	d108      	bne.n	800292a <HAL_ADC_ConfigChannel+0x6e>
      {
        /* Sequencer set to not fully configurable:                           */
        /* Set the channel by enabling the corresponding bitfield.            */
        LL_ADC_REG_SetSequencerChAdd(hadc->Instance, pConfig->Channel);
 8002918:	687b      	ldr	r3, [r7, #4]
 800291a:	681a      	ldr	r2, [r3, #0]
 800291c:	683b      	ldr	r3, [r7, #0]
 800291e:	681b      	ldr	r3, [r3, #0]
 8002920:	0019      	movs	r1, r3
 8002922:	0010      	movs	r0, r2
 8002924:	f7ff fb8e 	bl	8002044 <LL_ADC_REG_SetSequencerChAdd>
 8002928:	e0c9      	b.n	8002abe <HAL_ADC_ConfigChannel+0x202>
      {
        /* Sequencer set to fully configurable:                               */
        /* Set the channel by entering it into the selected rank.             */

        /* Memorize the channel set into variable in HAL ADC handle */
        MODIFY_REG(hadc->ADCGroupRegularSequencerRanks,
 800292a:	687b      	ldr	r3, [r7, #4]
 800292c:	6e1a      	ldr	r2, [r3, #96]	@ 0x60
 800292e:	683b      	ldr	r3, [r7, #0]
 8002930:	685b      	ldr	r3, [r3, #4]
 8002932:	211f      	movs	r1, #31
 8002934:	400b      	ands	r3, r1
 8002936:	210f      	movs	r1, #15
 8002938:	4099      	lsls	r1, r3
 800293a:	000b      	movs	r3, r1
 800293c:	43db      	mvns	r3, r3
 800293e:	4013      	ands	r3, r2
 8002940:	0019      	movs	r1, r3
 8002942:	683b      	ldr	r3, [r7, #0]
 8002944:	681b      	ldr	r3, [r3, #0]
 8002946:	035b      	lsls	r3, r3, #13
 8002948:	0b5b      	lsrs	r3, r3, #13
 800294a:	d105      	bne.n	8002958 <HAL_ADC_ConfigChannel+0x9c>
 800294c:	683b      	ldr	r3, [r7, #0]
 800294e:	681b      	ldr	r3, [r3, #0]
 8002950:	0e9b      	lsrs	r3, r3, #26
 8002952:	221f      	movs	r2, #31
 8002954:	4013      	ands	r3, r2
 8002956:	e098      	b.n	8002a8a <HAL_ADC_ConfigChannel+0x1ce>
 8002958:	683b      	ldr	r3, [r7, #0]
 800295a:	681b      	ldr	r3, [r3, #0]
 800295c:	2201      	movs	r2, #1
 800295e:	4013      	ands	r3, r2
 8002960:	d000      	beq.n	8002964 <HAL_ADC_ConfigChannel+0xa8>
 8002962:	e091      	b.n	8002a88 <HAL_ADC_ConfigChannel+0x1cc>
 8002964:	683b      	ldr	r3, [r7, #0]
 8002966:	681b      	ldr	r3, [r3, #0]
 8002968:	2202      	movs	r2, #2
 800296a:	4013      	ands	r3, r2
 800296c:	d000      	beq.n	8002970 <HAL_ADC_ConfigChannel+0xb4>
 800296e:	e089      	b.n	8002a84 <HAL_ADC_ConfigChannel+0x1c8>
 8002970:	683b      	ldr	r3, [r7, #0]
 8002972:	681b      	ldr	r3, [r3, #0]
 8002974:	2204      	movs	r2, #4
 8002976:	4013      	ands	r3, r2
 8002978:	d000      	beq.n	800297c <HAL_ADC_ConfigChannel+0xc0>
 800297a:	e081      	b.n	8002a80 <HAL_ADC_ConfigChannel+0x1c4>
 800297c:	683b      	ldr	r3, [r7, #0]
 800297e:	681b      	ldr	r3, [r3, #0]
 8002980:	2208      	movs	r2, #8
 8002982:	4013      	ands	r3, r2
 8002984:	d000      	beq.n	8002988 <HAL_ADC_ConfigChannel+0xcc>
 8002986:	e079      	b.n	8002a7c <HAL_ADC_ConfigChannel+0x1c0>
 8002988:	683b      	ldr	r3, [r7, #0]
 800298a:	681b      	ldr	r3, [r3, #0]
 800298c:	2210      	movs	r2, #16
 800298e:	4013      	ands	r3, r2
 8002990:	d000      	beq.n	8002994 <HAL_ADC_ConfigChannel+0xd8>
 8002992:	e071      	b.n	8002a78 <HAL_ADC_ConfigChannel+0x1bc>
 8002994:	683b      	ldr	r3, [r7, #0]
 8002996:	681b      	ldr	r3, [r3, #0]
 8002998:	2220      	movs	r2, #32
 800299a:	4013      	ands	r3, r2
 800299c:	d000      	beq.n	80029a0 <HAL_ADC_ConfigChannel+0xe4>
 800299e:	e069      	b.n	8002a74 <HAL_ADC_ConfigChannel+0x1b8>
 80029a0:	683b      	ldr	r3, [r7, #0]
 80029a2:	681b      	ldr	r3, [r3, #0]
 80029a4:	2240      	movs	r2, #64	@ 0x40
 80029a6:	4013      	ands	r3, r2
 80029a8:	d000      	beq.n	80029ac <HAL_ADC_ConfigChannel+0xf0>
 80029aa:	e061      	b.n	8002a70 <HAL_ADC_ConfigChannel+0x1b4>
 80029ac:	683b      	ldr	r3, [r7, #0]
 80029ae:	681b      	ldr	r3, [r3, #0]
 80029b0:	2280      	movs	r2, #128	@ 0x80
 80029b2:	4013      	ands	r3, r2
 80029b4:	d000      	beq.n	80029b8 <HAL_ADC_ConfigChannel+0xfc>
 80029b6:	e059      	b.n	8002a6c <HAL_ADC_ConfigChannel+0x1b0>
 80029b8:	683b      	ldr	r3, [r7, #0]
 80029ba:	681a      	ldr	r2, [r3, #0]
 80029bc:	2380      	movs	r3, #128	@ 0x80
 80029be:	005b      	lsls	r3, r3, #1
 80029c0:	4013      	ands	r3, r2
 80029c2:	d151      	bne.n	8002a68 <HAL_ADC_ConfigChannel+0x1ac>
 80029c4:	683b      	ldr	r3, [r7, #0]
 80029c6:	681a      	ldr	r2, [r3, #0]
 80029c8:	2380      	movs	r3, #128	@ 0x80
 80029ca:	009b      	lsls	r3, r3, #2
 80029cc:	4013      	ands	r3, r2
 80029ce:	d149      	bne.n	8002a64 <HAL_ADC_ConfigChannel+0x1a8>
 80029d0:	683b      	ldr	r3, [r7, #0]
 80029d2:	681a      	ldr	r2, [r3, #0]
 80029d4:	2380      	movs	r3, #128	@ 0x80
 80029d6:	00db      	lsls	r3, r3, #3
 80029d8:	4013      	ands	r3, r2
 80029da:	d141      	bne.n	8002a60 <HAL_ADC_ConfigChannel+0x1a4>
 80029dc:	683b      	ldr	r3, [r7, #0]
 80029de:	681a      	ldr	r2, [r3, #0]
 80029e0:	2380      	movs	r3, #128	@ 0x80
 80029e2:	011b      	lsls	r3, r3, #4
 80029e4:	4013      	ands	r3, r2
 80029e6:	d139      	bne.n	8002a5c <HAL_ADC_ConfigChannel+0x1a0>
 80029e8:	683b      	ldr	r3, [r7, #0]
 80029ea:	681a      	ldr	r2, [r3, #0]
 80029ec:	2380      	movs	r3, #128	@ 0x80
 80029ee:	015b      	lsls	r3, r3, #5
 80029f0:	4013      	ands	r3, r2
 80029f2:	d131      	bne.n	8002a58 <HAL_ADC_ConfigChannel+0x19c>
 80029f4:	683b      	ldr	r3, [r7, #0]
 80029f6:	681a      	ldr	r2, [r3, #0]
 80029f8:	2380      	movs	r3, #128	@ 0x80
 80029fa:	019b      	lsls	r3, r3, #6
 80029fc:	4013      	ands	r3, r2
 80029fe:	d129      	bne.n	8002a54 <HAL_ADC_ConfigChannel+0x198>
 8002a00:	683b      	ldr	r3, [r7, #0]
 8002a02:	681a      	ldr	r2, [r3, #0]
 8002a04:	2380      	movs	r3, #128	@ 0x80
 8002a06:	01db      	lsls	r3, r3, #7
 8002a08:	4013      	ands	r3, r2
 8002a0a:	d121      	bne.n	8002a50 <HAL_ADC_ConfigChannel+0x194>
 8002a0c:	683b      	ldr	r3, [r7, #0]
 8002a0e:	681a      	ldr	r2, [r3, #0]
 8002a10:	2380      	movs	r3, #128	@ 0x80
 8002a12:	021b      	lsls	r3, r3, #8
 8002a14:	4013      	ands	r3, r2
 8002a16:	d119      	bne.n	8002a4c <HAL_ADC_ConfigChannel+0x190>
 8002a18:	683b      	ldr	r3, [r7, #0]
 8002a1a:	681a      	ldr	r2, [r3, #0]
 8002a1c:	2380      	movs	r3, #128	@ 0x80
 8002a1e:	025b      	lsls	r3, r3, #9
 8002a20:	4013      	ands	r3, r2
 8002a22:	d111      	bne.n	8002a48 <HAL_ADC_ConfigChannel+0x18c>
 8002a24:	683b      	ldr	r3, [r7, #0]
 8002a26:	681a      	ldr	r2, [r3, #0]
 8002a28:	2380      	movs	r3, #128	@ 0x80
 8002a2a:	029b      	lsls	r3, r3, #10
 8002a2c:	4013      	ands	r3, r2
 8002a2e:	d109      	bne.n	8002a44 <HAL_ADC_ConfigChannel+0x188>
 8002a30:	683b      	ldr	r3, [r7, #0]
 8002a32:	681a      	ldr	r2, [r3, #0]
 8002a34:	2380      	movs	r3, #128	@ 0x80
 8002a36:	02db      	lsls	r3, r3, #11
 8002a38:	4013      	ands	r3, r2
 8002a3a:	d001      	beq.n	8002a40 <HAL_ADC_ConfigChannel+0x184>
 8002a3c:	2312      	movs	r3, #18
 8002a3e:	e024      	b.n	8002a8a <HAL_ADC_ConfigChannel+0x1ce>
 8002a40:	2300      	movs	r3, #0
 8002a42:	e022      	b.n	8002a8a <HAL_ADC_ConfigChannel+0x1ce>
 8002a44:	2311      	movs	r3, #17
 8002a46:	e020      	b.n	8002a8a <HAL_ADC_ConfigChannel+0x1ce>
 8002a48:	2310      	movs	r3, #16
 8002a4a:	e01e      	b.n	8002a8a <HAL_ADC_ConfigChannel+0x1ce>
 8002a4c:	230f      	movs	r3, #15
 8002a4e:	e01c      	b.n	8002a8a <HAL_ADC_ConfigChannel+0x1ce>
 8002a50:	230e      	movs	r3, #14
 8002a52:	e01a      	b.n	8002a8a <HAL_ADC_ConfigChannel+0x1ce>
 8002a54:	230d      	movs	r3, #13
 8002a56:	e018      	b.n	8002a8a <HAL_ADC_ConfigChannel+0x1ce>
 8002a58:	230c      	movs	r3, #12
 8002a5a:	e016      	b.n	8002a8a <HAL_ADC_ConfigChannel+0x1ce>
 8002a5c:	230b      	movs	r3, #11
 8002a5e:	e014      	b.n	8002a8a <HAL_ADC_ConfigChannel+0x1ce>
 8002a60:	230a      	movs	r3, #10
 8002a62:	e012      	b.n	8002a8a <HAL_ADC_ConfigChannel+0x1ce>
 8002a64:	2309      	movs	r3, #9
 8002a66:	e010      	b.n	8002a8a <HAL_ADC_ConfigChannel+0x1ce>
 8002a68:	2308      	movs	r3, #8
 8002a6a:	e00e      	b.n	8002a8a <HAL_ADC_ConfigChannel+0x1ce>
 8002a6c:	2307      	movs	r3, #7
 8002a6e:	e00c      	b.n	8002a8a <HAL_ADC_ConfigChannel+0x1ce>
 8002a70:	2306      	movs	r3, #6
 8002a72:	e00a      	b.n	8002a8a <HAL_ADC_ConfigChannel+0x1ce>
 8002a74:	2305      	movs	r3, #5
 8002a76:	e008      	b.n	8002a8a <HAL_ADC_ConfigChannel+0x1ce>
 8002a78:	2304      	movs	r3, #4
 8002a7a:	e006      	b.n	8002a8a <HAL_ADC_ConfigChannel+0x1ce>
 8002a7c:	2303      	movs	r3, #3
 8002a7e:	e004      	b.n	8002a8a <HAL_ADC_ConfigChannel+0x1ce>
 8002a80:	2302      	movs	r3, #2
 8002a82:	e002      	b.n	8002a8a <HAL_ADC_ConfigChannel+0x1ce>
 8002a84:	2301      	movs	r3, #1
 8002a86:	e000      	b.n	8002a8a <HAL_ADC_ConfigChannel+0x1ce>
 8002a88:	2300      	movs	r3, #0
 8002a8a:	683a      	ldr	r2, [r7, #0]
 8002a8c:	6852      	ldr	r2, [r2, #4]
 8002a8e:	201f      	movs	r0, #31
 8002a90:	4002      	ands	r2, r0
 8002a92:	4093      	lsls	r3, r2
 8002a94:	000a      	movs	r2, r1
 8002a96:	431a      	orrs	r2, r3
 8002a98:	687b      	ldr	r3, [r7, #4]
 8002a9a:	661a      	str	r2, [r3, #96]	@ 0x60

        /* If the selected rank is below ADC group regular sequencer length,  */
        /* apply the configuration in ADC register.                           */
        /* Note: Otherwise, configuration is not applied.                     */
        /*       To apply it, parameter'NbrOfConversion' must be increased.   */
        if (((pConfig->Rank >> 2UL) + 1UL) <= hadc->Init.NbrOfConversion)
 8002a9c:	683b      	ldr	r3, [r7, #0]
 8002a9e:	685b      	ldr	r3, [r3, #4]
 8002aa0:	089b      	lsrs	r3, r3, #2
 8002aa2:	1c5a      	adds	r2, r3, #1
 8002aa4:	687b      	ldr	r3, [r7, #4]
 8002aa6:	69db      	ldr	r3, [r3, #28]
 8002aa8:	429a      	cmp	r2, r3
 8002aaa:	d808      	bhi.n	8002abe <HAL_ADC_ConfigChannel+0x202>
        {
          LL_ADC_REG_SetSequencerRanks(hadc->Instance, pConfig->Rank, pConfig->Channel);
 8002aac:	687b      	ldr	r3, [r7, #4]
 8002aae:	6818      	ldr	r0, [r3, #0]
 8002ab0:	683b      	ldr	r3, [r7, #0]
 8002ab2:	6859      	ldr	r1, [r3, #4]
 8002ab4:	683b      	ldr	r3, [r7, #0]
 8002ab6:	681b      	ldr	r3, [r3, #0]
 8002ab8:	001a      	movs	r2, r3
 8002aba:	f7ff faa3 	bl	8002004 <LL_ADC_REG_SetSequencerRanks>
        }
      }

      /* Set sampling time of the selected ADC channel */
      LL_ADC_SetChannelSamplingTime(hadc->Instance, pConfig->Channel, pConfig->SamplingTime);
 8002abe:	687b      	ldr	r3, [r7, #4]
 8002ac0:	6818      	ldr	r0, [r3, #0]
 8002ac2:	683b      	ldr	r3, [r7, #0]
 8002ac4:	6819      	ldr	r1, [r3, #0]
 8002ac6:	683b      	ldr	r3, [r7, #0]
 8002ac8:	689b      	ldr	r3, [r3, #8]
 8002aca:	001a      	movs	r2, r3
 8002acc:	f7ff faea 	bl	80020a4 <LL_ADC_SetChannelSamplingTime>
      /* internal measurement paths enable: If internal channel selected,     */
      /* enable dedicated internal buffers and path.                          */
      /* Note: these internal measurement paths can be disabled using         */
      /*       HAL_ADC_DeInit() or removing the channel from sequencer with   */
      /*       channel configuration parameter "Rank".                        */
      if (__LL_ADC_IS_CHANNEL_INTERNAL(pConfig->Channel))
 8002ad0:	683b      	ldr	r3, [r7, #0]
 8002ad2:	681b      	ldr	r3, [r3, #0]
 8002ad4:	2b00      	cmp	r3, #0
 8002ad6:	db00      	blt.n	8002ada <HAL_ADC_ConfigChannel+0x21e>
 8002ad8:	e0bc      	b.n	8002c54 <HAL_ADC_ConfigChannel+0x398>
      {
        tmp_config_internal_channel = LL_ADC_GetCommonPathInternalCh(__LL_ADC_COMMON_INSTANCE(hadc->Instance));
 8002ada:	4b50      	ldr	r3, [pc, #320]	@ (8002c1c <HAL_ADC_ConfigChannel+0x360>)
 8002adc:	0018      	movs	r0, r3
 8002ade:	f7ff fa3f 	bl	8001f60 <LL_ADC_GetCommonPathInternalCh>
 8002ae2:	0003      	movs	r3, r0
 8002ae4:	613b      	str	r3, [r7, #16]

        /* If the requested internal measurement path has already been enabled,   */
        /* bypass the configuration processing.                                   */
        if ((pConfig->Channel == ADC_CHANNEL_TEMPSENSOR) &&
 8002ae6:	683b      	ldr	r3, [r7, #0]
 8002ae8:	681b      	ldr	r3, [r3, #0]
 8002aea:	4a4d      	ldr	r2, [pc, #308]	@ (8002c20 <HAL_ADC_ConfigChannel+0x364>)
 8002aec:	4293      	cmp	r3, r2
 8002aee:	d122      	bne.n	8002b36 <HAL_ADC_ConfigChannel+0x27a>
            ((tmp_config_internal_channel & LL_ADC_PATH_INTERNAL_TEMPSENSOR) == 0UL))
 8002af0:	693a      	ldr	r2, [r7, #16]
 8002af2:	2380      	movs	r3, #128	@ 0x80
 8002af4:	041b      	lsls	r3, r3, #16
 8002af6:	4013      	ands	r3, r2
        if ((pConfig->Channel == ADC_CHANNEL_TEMPSENSOR) &&
 8002af8:	d11d      	bne.n	8002b36 <HAL_ADC_ConfigChannel+0x27a>
        {
          LL_ADC_SetCommonPathInternalCh(__LL_ADC_COMMON_INSTANCE(hadc->Instance),
 8002afa:	693b      	ldr	r3, [r7, #16]
 8002afc:	2280      	movs	r2, #128	@ 0x80
 8002afe:	0412      	lsls	r2, r2, #16
 8002b00:	4313      	orrs	r3, r2
 8002b02:	4a46      	ldr	r2, [pc, #280]	@ (8002c1c <HAL_ADC_ConfigChannel+0x360>)
 8002b04:	0019      	movs	r1, r3
 8002b06:	0010      	movs	r0, r2
 8002b08:	f7ff fa16 	bl	8001f38 <LL_ADC_SetCommonPathInternalCh>
          /* Delay for temperature sensor stabilization time */
          /* Wait loop initialization and execution */
          /* Note: Variable divided by 2 to compensate partially              */
          /*       CPU processing cycles, scaling in us split to not          */
          /*       exceed 32 bits register capacity and handle low frequency. */
          wait_loop_index = ((LL_ADC_DELAY_TEMPSENSOR_STAB_US / 10UL) * ((SystemCoreClock / (100000UL * 2UL)) + 1UL));
 8002b0c:	4b45      	ldr	r3, [pc, #276]	@ (8002c24 <HAL_ADC_ConfigChannel+0x368>)
 8002b0e:	681b      	ldr	r3, [r3, #0]
 8002b10:	4945      	ldr	r1, [pc, #276]	@ (8002c28 <HAL_ADC_ConfigChannel+0x36c>)
 8002b12:	0018      	movs	r0, r3
 8002b14:	f7fd faf6 	bl	8000104 <__udivsi3>
 8002b18:	0003      	movs	r3, r0
 8002b1a:	1c5a      	adds	r2, r3, #1
 8002b1c:	0013      	movs	r3, r2
 8002b1e:	005b      	lsls	r3, r3, #1
 8002b20:	189b      	adds	r3, r3, r2
 8002b22:	009b      	lsls	r3, r3, #2
 8002b24:	60fb      	str	r3, [r7, #12]
          while (wait_loop_index != 0UL)
 8002b26:	e002      	b.n	8002b2e <HAL_ADC_ConfigChannel+0x272>
          {
            wait_loop_index--;
 8002b28:	68fb      	ldr	r3, [r7, #12]
 8002b2a:	3b01      	subs	r3, #1
 8002b2c:	60fb      	str	r3, [r7, #12]
          while (wait_loop_index != 0UL)
 8002b2e:	68fb      	ldr	r3, [r7, #12]
 8002b30:	2b00      	cmp	r3, #0
 8002b32:	d1f9      	bne.n	8002b28 <HAL_ADC_ConfigChannel+0x26c>
        if ((pConfig->Channel == ADC_CHANNEL_TEMPSENSOR) &&
 8002b34:	e08e      	b.n	8002c54 <HAL_ADC_ConfigChannel+0x398>
          }
        }
        else if ((pConfig->Channel == ADC_CHANNEL_VBAT)
 8002b36:	683b      	ldr	r3, [r7, #0]
 8002b38:	681b      	ldr	r3, [r3, #0]
 8002b3a:	4a3c      	ldr	r2, [pc, #240]	@ (8002c2c <HAL_ADC_ConfigChannel+0x370>)
 8002b3c:	4293      	cmp	r3, r2
 8002b3e:	d10e      	bne.n	8002b5e <HAL_ADC_ConfigChannel+0x2a2>
                 && ((tmp_config_internal_channel & LL_ADC_PATH_INTERNAL_VBAT) == 0UL))
 8002b40:	693a      	ldr	r2, [r7, #16]
 8002b42:	2380      	movs	r3, #128	@ 0x80
 8002b44:	045b      	lsls	r3, r3, #17
 8002b46:	4013      	ands	r3, r2
 8002b48:	d109      	bne.n	8002b5e <HAL_ADC_ConfigChannel+0x2a2>
        {
          LL_ADC_SetCommonPathInternalCh(__LL_ADC_COMMON_INSTANCE(hadc->Instance),
 8002b4a:	693b      	ldr	r3, [r7, #16]
 8002b4c:	2280      	movs	r2, #128	@ 0x80
 8002b4e:	0452      	lsls	r2, r2, #17
 8002b50:	4313      	orrs	r3, r2
 8002b52:	4a32      	ldr	r2, [pc, #200]	@ (8002c1c <HAL_ADC_ConfigChannel+0x360>)
 8002b54:	0019      	movs	r1, r3
 8002b56:	0010      	movs	r0, r2
 8002b58:	f7ff f9ee 	bl	8001f38 <LL_ADC_SetCommonPathInternalCh>
 8002b5c:	e07a      	b.n	8002c54 <HAL_ADC_ConfigChannel+0x398>
                                         LL_ADC_PATH_INTERNAL_VBAT | tmp_config_internal_channel);
        }
        else if ((pConfig->Channel == ADC_CHANNEL_VREFINT) &&
 8002b5e:	683b      	ldr	r3, [r7, #0]
 8002b60:	681b      	ldr	r3, [r3, #0]
 8002b62:	4a33      	ldr	r2, [pc, #204]	@ (8002c30 <HAL_ADC_ConfigChannel+0x374>)
 8002b64:	4293      	cmp	r3, r2
 8002b66:	d000      	beq.n	8002b6a <HAL_ADC_ConfigChannel+0x2ae>
 8002b68:	e074      	b.n	8002c54 <HAL_ADC_ConfigChannel+0x398>
                 ((tmp_config_internal_channel & LL_ADC_PATH_INTERNAL_VREFINT) == 0UL))
 8002b6a:	693a      	ldr	r2, [r7, #16]
 8002b6c:	2380      	movs	r3, #128	@ 0x80
 8002b6e:	03db      	lsls	r3, r3, #15
 8002b70:	4013      	ands	r3, r2
        else if ((pConfig->Channel == ADC_CHANNEL_VREFINT) &&
 8002b72:	d000      	beq.n	8002b76 <HAL_ADC_ConfigChannel+0x2ba>
 8002b74:	e06e      	b.n	8002c54 <HAL_ADC_ConfigChannel+0x398>
        {
          LL_ADC_SetCommonPathInternalCh(__LL_ADC_COMMON_INSTANCE(hadc->Instance),
 8002b76:	693b      	ldr	r3, [r7, #16]
 8002b78:	2280      	movs	r2, #128	@ 0x80
 8002b7a:	03d2      	lsls	r2, r2, #15
 8002b7c:	4313      	orrs	r3, r2
 8002b7e:	4a27      	ldr	r2, [pc, #156]	@ (8002c1c <HAL_ADC_ConfigChannel+0x360>)
 8002b80:	0019      	movs	r1, r3
 8002b82:	0010      	movs	r0, r2
 8002b84:	f7ff f9d8 	bl	8001f38 <LL_ADC_SetCommonPathInternalCh>
 8002b88:	e064      	b.n	8002c54 <HAL_ADC_ConfigChannel+0x398>
      /* Regular sequencer configuration */
      /* Note: Case of sequencer set to fully configurable:                   */
      /*       Sequencer rank cannot be disabled, only affected to            */
      /*       another channel.                                               */
      /*       To remove a rank, use parameter 'NbrOfConversion".             */
      if ((hadc->Init.ScanConvMode == ADC_SCAN_SEQ_FIXED)       ||
 8002b8a:	687b      	ldr	r3, [r7, #4]
 8002b8c:	691a      	ldr	r2, [r3, #16]
 8002b8e:	2380      	movs	r3, #128	@ 0x80
 8002b90:	061b      	lsls	r3, r3, #24
 8002b92:	429a      	cmp	r2, r3
 8002b94:	d004      	beq.n	8002ba0 <HAL_ADC_ConfigChannel+0x2e4>
          (hadc->Init.ScanConvMode == ADC_SCAN_SEQ_FIXED_BACKWARD))
 8002b96:	687b      	ldr	r3, [r7, #4]
 8002b98:	691b      	ldr	r3, [r3, #16]
      if ((hadc->Init.ScanConvMode == ADC_SCAN_SEQ_FIXED)       ||
 8002b9a:	4a1f      	ldr	r2, [pc, #124]	@ (8002c18 <HAL_ADC_ConfigChannel+0x35c>)
 8002b9c:	4293      	cmp	r3, r2
 8002b9e:	d107      	bne.n	8002bb0 <HAL_ADC_ConfigChannel+0x2f4>
      {
        /* Sequencer set to not fully configurable:                           */
        /* Reset the channel by disabling the corresponding bitfield.         */
        LL_ADC_REG_SetSequencerChRem(hadc->Instance, pConfig->Channel);
 8002ba0:	687b      	ldr	r3, [r7, #4]
 8002ba2:	681a      	ldr	r2, [r3, #0]
 8002ba4:	683b      	ldr	r3, [r7, #0]
 8002ba6:	681b      	ldr	r3, [r3, #0]
 8002ba8:	0019      	movs	r1, r3
 8002baa:	0010      	movs	r0, r2
 8002bac:	f7ff fa5b 	bl	8002066 <LL_ADC_REG_SetSequencerChRem>
      }

      /* Management of internal measurement channels: Vbat/VrefInt/TempSensor.  */
      /* If internal channel selected, enable dedicated internal buffers and    */
      /* paths.                                                                 */
      if (__LL_ADC_IS_CHANNEL_INTERNAL(pConfig->Channel))
 8002bb0:	683b      	ldr	r3, [r7, #0]
 8002bb2:	681b      	ldr	r3, [r3, #0]
 8002bb4:	2b00      	cmp	r3, #0
 8002bb6:	da4d      	bge.n	8002c54 <HAL_ADC_ConfigChannel+0x398>
      {
        tmp_config_internal_channel = LL_ADC_GetCommonPathInternalCh(__LL_ADC_COMMON_INSTANCE(hadc->Instance));
 8002bb8:	4b18      	ldr	r3, [pc, #96]	@ (8002c1c <HAL_ADC_ConfigChannel+0x360>)
 8002bba:	0018      	movs	r0, r3
 8002bbc:	f7ff f9d0 	bl	8001f60 <LL_ADC_GetCommonPathInternalCh>
 8002bc0:	0003      	movs	r3, r0
 8002bc2:	613b      	str	r3, [r7, #16]

        if (pConfig->Channel == ADC_CHANNEL_TEMPSENSOR)
 8002bc4:	683b      	ldr	r3, [r7, #0]
 8002bc6:	681b      	ldr	r3, [r3, #0]
 8002bc8:	4a15      	ldr	r2, [pc, #84]	@ (8002c20 <HAL_ADC_ConfigChannel+0x364>)
 8002bca:	4293      	cmp	r3, r2
 8002bcc:	d108      	bne.n	8002be0 <HAL_ADC_ConfigChannel+0x324>
        {
          LL_ADC_SetCommonPathInternalCh(__LL_ADC_COMMON_INSTANCE(hadc->Instance),
 8002bce:	693b      	ldr	r3, [r7, #16]
 8002bd0:	4a18      	ldr	r2, [pc, #96]	@ (8002c34 <HAL_ADC_ConfigChannel+0x378>)
 8002bd2:	4013      	ands	r3, r2
 8002bd4:	4a11      	ldr	r2, [pc, #68]	@ (8002c1c <HAL_ADC_ConfigChannel+0x360>)
 8002bd6:	0019      	movs	r1, r3
 8002bd8:	0010      	movs	r0, r2
 8002bda:	f7ff f9ad 	bl	8001f38 <LL_ADC_SetCommonPathInternalCh>
 8002bde:	e039      	b.n	8002c54 <HAL_ADC_ConfigChannel+0x398>
                                         ~LL_ADC_PATH_INTERNAL_TEMPSENSOR & tmp_config_internal_channel);
        }
        else if (pConfig->Channel == ADC_CHANNEL_VBAT)
 8002be0:	683b      	ldr	r3, [r7, #0]
 8002be2:	681b      	ldr	r3, [r3, #0]
 8002be4:	4a11      	ldr	r2, [pc, #68]	@ (8002c2c <HAL_ADC_ConfigChannel+0x370>)
 8002be6:	4293      	cmp	r3, r2
 8002be8:	d108      	bne.n	8002bfc <HAL_ADC_ConfigChannel+0x340>
        {
          LL_ADC_SetCommonPathInternalCh(__LL_ADC_COMMON_INSTANCE(hadc->Instance),
 8002bea:	693b      	ldr	r3, [r7, #16]
 8002bec:	4a12      	ldr	r2, [pc, #72]	@ (8002c38 <HAL_ADC_ConfigChannel+0x37c>)
 8002bee:	4013      	ands	r3, r2
 8002bf0:	4a0a      	ldr	r2, [pc, #40]	@ (8002c1c <HAL_ADC_ConfigChannel+0x360>)
 8002bf2:	0019      	movs	r1, r3
 8002bf4:	0010      	movs	r0, r2
 8002bf6:	f7ff f99f 	bl	8001f38 <LL_ADC_SetCommonPathInternalCh>
 8002bfa:	e02b      	b.n	8002c54 <HAL_ADC_ConfigChannel+0x398>
                                         ~LL_ADC_PATH_INTERNAL_VBAT & tmp_config_internal_channel);
        }
        else if (pConfig->Channel == ADC_CHANNEL_VREFINT)
 8002bfc:	683b      	ldr	r3, [r7, #0]
 8002bfe:	681b      	ldr	r3, [r3, #0]
 8002c00:	4a0b      	ldr	r2, [pc, #44]	@ (8002c30 <HAL_ADC_ConfigChannel+0x374>)
 8002c02:	4293      	cmp	r3, r2
 8002c04:	d126      	bne.n	8002c54 <HAL_ADC_ConfigChannel+0x398>
        {
          LL_ADC_SetCommonPathInternalCh(__LL_ADC_COMMON_INSTANCE(hadc->Instance),
 8002c06:	693b      	ldr	r3, [r7, #16]
 8002c08:	4a0c      	ldr	r2, [pc, #48]	@ (8002c3c <HAL_ADC_ConfigChannel+0x380>)
 8002c0a:	4013      	ands	r3, r2
 8002c0c:	4a03      	ldr	r2, [pc, #12]	@ (8002c1c <HAL_ADC_ConfigChannel+0x360>)
 8002c0e:	0019      	movs	r1, r3
 8002c10:	0010      	movs	r0, r2
 8002c12:	f7ff f991 	bl	8001f38 <LL_ADC_SetCommonPathInternalCh>
 8002c16:	e01d      	b.n	8002c54 <HAL_ADC_ConfigChannel+0x398>
 8002c18:	80000004 	.word	0x80000004
 8002c1c:	40012708 	.word	0x40012708
 8002c20:	b0001000 	.word	0xb0001000
 8002c24:	2000001c 	.word	0x2000001c
 8002c28:	00030d40 	.word	0x00030d40
 8002c2c:	b8004000 	.word	0xb8004000
 8002c30:	b4002000 	.word	0xb4002000
 8002c34:	ff7fffff 	.word	0xff7fffff
 8002c38:	feffffff 	.word	0xfeffffff
 8002c3c:	ffbfffff 	.word	0xffbfffff
  /* channel could be done on neither of the channel configuration structure  */
  /* parameters.                                                              */
  else
  {
    /* Update ADC state machine to error */
    SET_BIT(hadc->State, HAL_ADC_STATE_ERROR_CONFIG);
 8002c40:	687b      	ldr	r3, [r7, #4]
 8002c42:	6d9b      	ldr	r3, [r3, #88]	@ 0x58
 8002c44:	2220      	movs	r2, #32
 8002c46:	431a      	orrs	r2, r3
 8002c48:	687b      	ldr	r3, [r7, #4]
 8002c4a:	659a      	str	r2, [r3, #88]	@ 0x58

    tmp_hal_status = HAL_ERROR;
 8002c4c:	2317      	movs	r3, #23
 8002c4e:	18fb      	adds	r3, r7, r3
 8002c50:	2201      	movs	r2, #1
 8002c52:	701a      	strb	r2, [r3, #0]
  }

  __HAL_UNLOCK(hadc);
 8002c54:	687b      	ldr	r3, [r7, #4]
 8002c56:	2254      	movs	r2, #84	@ 0x54
 8002c58:	2100      	movs	r1, #0
 8002c5a:	5499      	strb	r1, [r3, r2]

  return tmp_hal_status;
 8002c5c:	2317      	movs	r3, #23
 8002c5e:	18fb      	adds	r3, r7, r3
 8002c60:	781b      	ldrb	r3, [r3, #0]
}
 8002c62:	0018      	movs	r0, r3
 8002c64:	46bd      	mov	sp, r7
 8002c66:	b006      	add	sp, #24
 8002c68:	bd80      	pop	{r7, pc}
 8002c6a:	46c0      	nop			@ (mov r8, r8)

08002c6c <ADC_Enable>:
  *         and voltage regulator must be enabled (done into HAL_ADC_Init()).
  * @param hadc ADC handle
  * @retval HAL status.
  */
HAL_StatusTypeDef ADC_Enable(ADC_HandleTypeDef *hadc)
{
 8002c6c:	b580      	push	{r7, lr}
 8002c6e:	b084      	sub	sp, #16
 8002c70:	af00      	add	r7, sp, #0
 8002c72:	6078      	str	r0, [r7, #4]
  uint32_t tickstart;
  __IO uint32_t wait_loop_index = 0UL;
 8002c74:	2300      	movs	r3, #0
 8002c76:	60bb      	str	r3, [r7, #8]

  /* ADC enable and wait for ADC ready (in case of ADC is disabled or         */
  /* enabling phase not yet completed: flag ADC ready not yet set).           */
  /* Timeout implemented to not be stuck if ADC cannot be enabled (possible   */
  /* causes: ADC clock not running, ...).                                     */
  if (LL_ADC_IsEnabled(hadc->Instance) == 0UL)
 8002c78:	687b      	ldr	r3, [r7, #4]
 8002c7a:	681b      	ldr	r3, [r3, #0]
 8002c7c:	0018      	movs	r0, r3
 8002c7e:	f7ff fa79 	bl	8002174 <LL_ADC_IsEnabled>
 8002c82:	1e03      	subs	r3, r0, #0
 8002c84:	d000      	beq.n	8002c88 <ADC_Enable+0x1c>
 8002c86:	e069      	b.n	8002d5c <ADC_Enable+0xf0>
  {
    /* Check if conditions to enable the ADC are fulfilled */
    if ((hadc->Instance->CR & (ADC_CR_ADCAL | ADC_CR_ADSTP | ADC_CR_ADSTART | ADC_CR_ADDIS | ADC_CR_ADEN)) != 0UL)
 8002c88:	687b      	ldr	r3, [r7, #4]
 8002c8a:	681b      	ldr	r3, [r3, #0]
 8002c8c:	689b      	ldr	r3, [r3, #8]
 8002c8e:	4a36      	ldr	r2, [pc, #216]	@ (8002d68 <ADC_Enable+0xfc>)
 8002c90:	4013      	ands	r3, r2
 8002c92:	d00d      	beq.n	8002cb0 <ADC_Enable+0x44>
    {
      /* Update ADC state machine to error */
      SET_BIT(hadc->State, HAL_ADC_STATE_ERROR_INTERNAL);
 8002c94:	687b      	ldr	r3, [r7, #4]
 8002c96:	6d9b      	ldr	r3, [r3, #88]	@ 0x58
 8002c98:	2210      	movs	r2, #16
 8002c9a:	431a      	orrs	r2, r3
 8002c9c:	687b      	ldr	r3, [r7, #4]
 8002c9e:	659a      	str	r2, [r3, #88]	@ 0x58

      /* Set ADC error code to ADC peripheral internal error */
      SET_BIT(hadc->ErrorCode, HAL_ADC_ERROR_INTERNAL);
 8002ca0:	687b      	ldr	r3, [r7, #4]
 8002ca2:	6ddb      	ldr	r3, [r3, #92]	@ 0x5c
 8002ca4:	2201      	movs	r2, #1
 8002ca6:	431a      	orrs	r2, r3
 8002ca8:	687b      	ldr	r3, [r7, #4]
 8002caa:	65da      	str	r2, [r3, #92]	@ 0x5c

      return HAL_ERROR;
 8002cac:	2301      	movs	r3, #1
 8002cae:	e056      	b.n	8002d5e <ADC_Enable+0xf2>
    }

    /* Enable the ADC peripheral */
    LL_ADC_Enable(hadc->Instance);
 8002cb0:	687b      	ldr	r3, [r7, #4]
 8002cb2:	681b      	ldr	r3, [r3, #0]
 8002cb4:	0018      	movs	r0, r3
 8002cb6:	f7ff fa39 	bl	800212c <LL_ADC_Enable>

    if ((LL_ADC_GetCommonPathInternalCh(__LL_ADC_COMMON_INSTANCE(hadc->Instance)) & LL_ADC_PATH_INTERNAL_TEMPSENSOR)
 8002cba:	4b2c      	ldr	r3, [pc, #176]	@ (8002d6c <ADC_Enable+0x100>)
 8002cbc:	0018      	movs	r0, r3
 8002cbe:	f7ff f94f 	bl	8001f60 <LL_ADC_GetCommonPathInternalCh>
 8002cc2:	0002      	movs	r2, r0
 8002cc4:	2380      	movs	r3, #128	@ 0x80
 8002cc6:	041b      	lsls	r3, r3, #16
 8002cc8:	4013      	ands	r3, r2
 8002cca:	d00f      	beq.n	8002cec <ADC_Enable+0x80>
      /* Wait loop initialization and execution */
      /* Note: Variable divided by 2 to compensate partially              */
      /*       CPU processing cycles, scaling in us split to not          */
      /*       exceed 32 bits register capacity and handle low frequency. */
      wait_loop_index = ((LL_ADC_DELAY_TEMPSENSOR_BUFFER_STAB_US / 10UL)
                         * ((SystemCoreClock / (100000UL * 2UL)) + 1UL));
 8002ccc:	4b28      	ldr	r3, [pc, #160]	@ (8002d70 <ADC_Enable+0x104>)
 8002cce:	681b      	ldr	r3, [r3, #0]
 8002cd0:	4928      	ldr	r1, [pc, #160]	@ (8002d74 <ADC_Enable+0x108>)
 8002cd2:	0018      	movs	r0, r3
 8002cd4:	f7fd fa16 	bl	8000104 <__udivsi3>
 8002cd8:	0003      	movs	r3, r0
 8002cda:	3301      	adds	r3, #1
      wait_loop_index = ((LL_ADC_DELAY_TEMPSENSOR_BUFFER_STAB_US / 10UL)
 8002cdc:	60bb      	str	r3, [r7, #8]
      while (wait_loop_index != 0UL)
 8002cde:	e002      	b.n	8002ce6 <ADC_Enable+0x7a>
      {
        wait_loop_index--;
 8002ce0:	68bb      	ldr	r3, [r7, #8]
 8002ce2:	3b01      	subs	r3, #1
 8002ce4:	60bb      	str	r3, [r7, #8]
      while (wait_loop_index != 0UL)
 8002ce6:	68bb      	ldr	r3, [r7, #8]
 8002ce8:	2b00      	cmp	r3, #0
 8002cea:	d1f9      	bne.n	8002ce0 <ADC_Enable+0x74>
      }
    }

    /* If low power mode AutoPowerOff is enabled, power-on/off phases are     */
    /* performed automatically by hardware and flag ADC ready is not set.     */
    if (hadc->Init.LowPowerAutoPowerOff != ENABLE)
 8002cec:	687b      	ldr	r3, [r7, #4]
 8002cee:	7e5b      	ldrb	r3, [r3, #25]
 8002cf0:	2b01      	cmp	r3, #1
 8002cf2:	d033      	beq.n	8002d5c <ADC_Enable+0xf0>
    {
      /* Wait for ADC effectively enabled */
      tickstart = HAL_GetTick();
 8002cf4:	f7ff f8f2 	bl	8001edc <HAL_GetTick>
 8002cf8:	0003      	movs	r3, r0
 8002cfa:	60fb      	str	r3, [r7, #12]

      while (__HAL_ADC_GET_FLAG(hadc, ADC_FLAG_RDY) == 0UL)
 8002cfc:	e027      	b.n	8002d4e <ADC_Enable+0xe2>
            The workaround is to continue setting ADEN until ADRDY is becomes 1.
            Additionally, ADC_ENABLE_TIMEOUT is defined to encompass this
            4 ADC clock cycle duration */
        /* Note: Test of ADC enabled required due to hardware constraint to     */
        /*       not enable ADC if already enabled.                             */
        if (LL_ADC_IsEnabled(hadc->Instance) == 0UL)
 8002cfe:	687b      	ldr	r3, [r7, #4]
 8002d00:	681b      	ldr	r3, [r3, #0]
 8002d02:	0018      	movs	r0, r3
 8002d04:	f7ff fa36 	bl	8002174 <LL_ADC_IsEnabled>
 8002d08:	1e03      	subs	r3, r0, #0
 8002d0a:	d104      	bne.n	8002d16 <ADC_Enable+0xaa>
        {
          LL_ADC_Enable(hadc->Instance);
 8002d0c:	687b      	ldr	r3, [r7, #4]
 8002d0e:	681b      	ldr	r3, [r3, #0]
 8002d10:	0018      	movs	r0, r3
 8002d12:	f7ff fa0b 	bl	800212c <LL_ADC_Enable>
        }

        if ((HAL_GetTick() - tickstart) > ADC_ENABLE_TIMEOUT)
 8002d16:	f7ff f8e1 	bl	8001edc <HAL_GetTick>
 8002d1a:	0002      	movs	r2, r0
 8002d1c:	68fb      	ldr	r3, [r7, #12]
 8002d1e:	1ad3      	subs	r3, r2, r3
 8002d20:	2b02      	cmp	r3, #2
 8002d22:	d914      	bls.n	8002d4e <ADC_Enable+0xe2>
        {
          /* New check to avoid false timeout detection in case of preemption */
          if (__HAL_ADC_GET_FLAG(hadc, ADC_FLAG_RDY) == 0UL)
 8002d24:	687b      	ldr	r3, [r7, #4]
 8002d26:	681b      	ldr	r3, [r3, #0]
 8002d28:	681b      	ldr	r3, [r3, #0]
 8002d2a:	2201      	movs	r2, #1
 8002d2c:	4013      	ands	r3, r2
 8002d2e:	2b01      	cmp	r3, #1
 8002d30:	d00d      	beq.n	8002d4e <ADC_Enable+0xe2>
          {
            /* Update ADC state machine to error */
            SET_BIT(hadc->State, HAL_ADC_STATE_ERROR_INTERNAL);
 8002d32:	687b      	ldr	r3, [r7, #4]
 8002d34:	6d9b      	ldr	r3, [r3, #88]	@ 0x58
 8002d36:	2210      	movs	r2, #16
 8002d38:	431a      	orrs	r2, r3
 8002d3a:	687b      	ldr	r3, [r7, #4]
 8002d3c:	659a      	str	r2, [r3, #88]	@ 0x58

            /* Set ADC error code to ADC peripheral internal error */
            SET_BIT(hadc->ErrorCode, HAL_ADC_ERROR_INTERNAL);
 8002d3e:	687b      	ldr	r3, [r7, #4]
 8002d40:	6ddb      	ldr	r3, [r3, #92]	@ 0x5c
 8002d42:	2201      	movs	r2, #1
 8002d44:	431a      	orrs	r2, r3
 8002d46:	687b      	ldr	r3, [r7, #4]
 8002d48:	65da      	str	r2, [r3, #92]	@ 0x5c

            return HAL_ERROR;
 8002d4a:	2301      	movs	r3, #1
 8002d4c:	e007      	b.n	8002d5e <ADC_Enable+0xf2>
      while (__HAL_ADC_GET_FLAG(hadc, ADC_FLAG_RDY) == 0UL)
 8002d4e:	687b      	ldr	r3, [r7, #4]
 8002d50:	681b      	ldr	r3, [r3, #0]
 8002d52:	681b      	ldr	r3, [r3, #0]
 8002d54:	2201      	movs	r2, #1
 8002d56:	4013      	ands	r3, r2
 8002d58:	2b01      	cmp	r3, #1
 8002d5a:	d1d0      	bne.n	8002cfe <ADC_Enable+0x92>
      }
    }
  }

  /* Return HAL status */
  return HAL_OK;
 8002d5c:	2300      	movs	r3, #0
}
 8002d5e:	0018      	movs	r0, r3
 8002d60:	46bd      	mov	sp, r7
 8002d62:	b004      	add	sp, #16
 8002d64:	bd80      	pop	{r7, pc}
 8002d66:	46c0      	nop			@ (mov r8, r8)
 8002d68:	80000017 	.word	0x80000017
 8002d6c:	40012708 	.word	0x40012708
 8002d70:	2000001c 	.word	0x2000001c
 8002d74:	00030d40 	.word	0x00030d40

08002d78 <ADC_DMAConvCplt>:
  * @brief  DMA transfer complete callback.
  * @param hdma pointer to DMA handle.
  * @retval None
  */
static void ADC_DMAConvCplt(DMA_HandleTypeDef *hdma)
{
 8002d78:	b580      	push	{r7, lr}
 8002d7a:	b084      	sub	sp, #16
 8002d7c:	af00      	add	r7, sp, #0
 8002d7e:	6078      	str	r0, [r7, #4]
  /* Retrieve ADC handle corresponding to current DMA handle */
  ADC_HandleTypeDef *hadc = (ADC_HandleTypeDef *)((DMA_HandleTypeDef *)hdma)->Parent;
 8002d80:	687b      	ldr	r3, [r7, #4]
 8002d82:	6a9b      	ldr	r3, [r3, #40]	@ 0x28
 8002d84:	60fb      	str	r3, [r7, #12]

  /* Update state machine on conversion status if not in error state */
  if ((hadc->State & (HAL_ADC_STATE_ERROR_INTERNAL | HAL_ADC_STATE_ERROR_DMA)) == 0UL)
 8002d86:	68fb      	ldr	r3, [r7, #12]
 8002d88:	6d9b      	ldr	r3, [r3, #88]	@ 0x58
 8002d8a:	2250      	movs	r2, #80	@ 0x50
 8002d8c:	4013      	ands	r3, r2
 8002d8e:	d141      	bne.n	8002e14 <ADC_DMAConvCplt+0x9c>
  {
    /* Set ADC state */
    SET_BIT(hadc->State, HAL_ADC_STATE_REG_EOC);
 8002d90:	68fb      	ldr	r3, [r7, #12]
 8002d92:	6d9b      	ldr	r3, [r3, #88]	@ 0x58
 8002d94:	2280      	movs	r2, #128	@ 0x80
 8002d96:	0092      	lsls	r2, r2, #2
 8002d98:	431a      	orrs	r2, r3
 8002d9a:	68fb      	ldr	r3, [r7, #12]
 8002d9c:	659a      	str	r2, [r3, #88]	@ 0x58

    /* Determine whether any further conversion upcoming on group regular     */
    /* by external trigger, continuous mode or scan sequence on going         */
    /* to disable interruption.                                               */
    if ((LL_ADC_REG_IsTriggerSourceSWStart(hadc->Instance) != 0UL)
 8002d9e:	68fb      	ldr	r3, [r7, #12]
 8002da0:	681b      	ldr	r3, [r3, #0]
 8002da2:	0018      	movs	r0, r3
 8002da4:	f7ff f91d 	bl	8001fe2 <LL_ADC_REG_IsTriggerSourceSWStart>
 8002da8:	1e03      	subs	r3, r0, #0
 8002daa:	d02e      	beq.n	8002e0a <ADC_DMAConvCplt+0x92>
        && (hadc->Init.ContinuousConvMode == DISABLE)
 8002dac:	68fb      	ldr	r3, [r7, #12]
 8002dae:	7e9b      	ldrb	r3, [r3, #26]
 8002db0:	2b00      	cmp	r3, #0
 8002db2:	d12a      	bne.n	8002e0a <ADC_DMAConvCplt+0x92>
       )
    {
      /* If End of Sequence is reached, disable interrupts */
      if (__HAL_ADC_GET_FLAG(hadc, ADC_FLAG_EOS))
 8002db4:	68fb      	ldr	r3, [r7, #12]
 8002db6:	681b      	ldr	r3, [r3, #0]
 8002db8:	681b      	ldr	r3, [r3, #0]
 8002dba:	2208      	movs	r2, #8
 8002dbc:	4013      	ands	r3, r2
 8002dbe:	2b08      	cmp	r3, #8
 8002dc0:	d123      	bne.n	8002e0a <ADC_DMAConvCplt+0x92>
      {
        /* Allowed to modify bits ADC_IT_EOC/ADC_IT_EOS only if bit           */
        /* ADSTART==0 (no conversion on going)                                */
        if (LL_ADC_REG_IsConversionOngoing(hadc->Instance) == 0UL)
 8002dc2:	68fb      	ldr	r3, [r7, #12]
 8002dc4:	681b      	ldr	r3, [r3, #0]
 8002dc6:	0018      	movs	r0, r3
 8002dc8:	f7ff f9f8 	bl	80021bc <LL_ADC_REG_IsConversionOngoing>
 8002dcc:	1e03      	subs	r3, r0, #0
 8002dce:	d110      	bne.n	8002df2 <ADC_DMAConvCplt+0x7a>
        {
          /* Disable ADC end of single conversion interrupt on group regular */
          /* Note: Overrun interrupt was enabled with EOC interrupt in        */
          /* HAL_Start_IT(), but is not disabled here because can be used     */
          /* by overrun IRQ process below.                                    */
          __HAL_ADC_DISABLE_IT(hadc, ADC_IT_EOC | ADC_IT_EOS);
 8002dd0:	68fb      	ldr	r3, [r7, #12]
 8002dd2:	681b      	ldr	r3, [r3, #0]
 8002dd4:	685a      	ldr	r2, [r3, #4]
 8002dd6:	68fb      	ldr	r3, [r7, #12]
 8002dd8:	681b      	ldr	r3, [r3, #0]
 8002dda:	210c      	movs	r1, #12
 8002ddc:	438a      	bics	r2, r1
 8002dde:	605a      	str	r2, [r3, #4]

          /* Set ADC state */
          ADC_STATE_CLR_SET(hadc->State,
 8002de0:	68fb      	ldr	r3, [r7, #12]
 8002de2:	6d9b      	ldr	r3, [r3, #88]	@ 0x58
 8002de4:	4a15      	ldr	r2, [pc, #84]	@ (8002e3c <ADC_DMAConvCplt+0xc4>)
 8002de6:	4013      	ands	r3, r2
 8002de8:	2201      	movs	r2, #1
 8002dea:	431a      	orrs	r2, r3
 8002dec:	68fb      	ldr	r3, [r7, #12]
 8002dee:	659a      	str	r2, [r3, #88]	@ 0x58
 8002df0:	e00b      	b.n	8002e0a <ADC_DMAConvCplt+0x92>
                            HAL_ADC_STATE_READY);
        }
        else
        {
          /* Change ADC state to error state */
          SET_BIT(hadc->State, HAL_ADC_STATE_ERROR_CONFIG);
 8002df2:	68fb      	ldr	r3, [r7, #12]
 8002df4:	6d9b      	ldr	r3, [r3, #88]	@ 0x58
 8002df6:	2220      	movs	r2, #32
 8002df8:	431a      	orrs	r2, r3
 8002dfa:	68fb      	ldr	r3, [r7, #12]
 8002dfc:	659a      	str	r2, [r3, #88]	@ 0x58

          /* Set ADC error code to ADC peripheral internal error */
          SET_BIT(hadc->ErrorCode, HAL_ADC_ERROR_INTERNAL);
 8002dfe:	68fb      	ldr	r3, [r7, #12]
 8002e00:	6ddb      	ldr	r3, [r3, #92]	@ 0x5c
 8002e02:	2201      	movs	r2, #1
 8002e04:	431a      	orrs	r2, r3
 8002e06:	68fb      	ldr	r3, [r7, #12]
 8002e08:	65da      	str	r2, [r3, #92]	@ 0x5c

    /* Conversion complete callback */
#if (USE_HAL_ADC_REGISTER_CALLBACKS == 1)
    hadc->ConvCpltCallback(hadc);
#else
    HAL_ADC_ConvCpltCallback(hadc);
 8002e0a:	68fb      	ldr	r3, [r7, #12]
 8002e0c:	0018      	movs	r0, r3
 8002e0e:	f7ff fd35 	bl	800287c <HAL_ADC_ConvCpltCallback>
    {
      /* Call ADC DMA error callback */
      hadc->DMA_Handle->XferErrorCallback(hdma);
    }
  }
}
 8002e12:	e00f      	b.n	8002e34 <ADC_DMAConvCplt+0xbc>
    if ((hadc->State & HAL_ADC_STATE_ERROR_INTERNAL) != 0UL)
 8002e14:	68fb      	ldr	r3, [r7, #12]
 8002e16:	6d9b      	ldr	r3, [r3, #88]	@ 0x58
 8002e18:	2210      	movs	r2, #16
 8002e1a:	4013      	ands	r3, r2
 8002e1c:	d004      	beq.n	8002e28 <ADC_DMAConvCplt+0xb0>
      HAL_ADC_ErrorCallback(hadc);
 8002e1e:	68fb      	ldr	r3, [r7, #12]
 8002e20:	0018      	movs	r0, r3
 8002e22:	f7ff fd43 	bl	80028ac <HAL_ADC_ErrorCallback>
}
 8002e26:	e005      	b.n	8002e34 <ADC_DMAConvCplt+0xbc>
      hadc->DMA_Handle->XferErrorCallback(hdma);
 8002e28:	68fb      	ldr	r3, [r7, #12]
 8002e2a:	6d1b      	ldr	r3, [r3, #80]	@ 0x50
 8002e2c:	6b5b      	ldr	r3, [r3, #52]	@ 0x34
 8002e2e:	687a      	ldr	r2, [r7, #4]
 8002e30:	0010      	movs	r0, r2
 8002e32:	4798      	blx	r3
}
 8002e34:	46c0      	nop			@ (mov r8, r8)
 8002e36:	46bd      	mov	sp, r7
 8002e38:	b004      	add	sp, #16
 8002e3a:	bd80      	pop	{r7, pc}
 8002e3c:	fffffefe 	.word	0xfffffefe

08002e40 <ADC_DMAHalfConvCplt>:
  * @brief  DMA half transfer complete callback.
  * @param hdma pointer to DMA handle.
  * @retval None
  */
static void ADC_DMAHalfConvCplt(DMA_HandleTypeDef *hdma)
{
 8002e40:	b580      	push	{r7, lr}
 8002e42:	b084      	sub	sp, #16
 8002e44:	af00      	add	r7, sp, #0
 8002e46:	6078      	str	r0, [r7, #4]
  /* Retrieve ADC handle corresponding to current DMA handle */
  ADC_HandleTypeDef *hadc = (ADC_HandleTypeDef *)((DMA_HandleTypeDef *)hdma)->Parent;
 8002e48:	687b      	ldr	r3, [r7, #4]
 8002e4a:	6a9b      	ldr	r3, [r3, #40]	@ 0x28
 8002e4c:	60fb      	str	r3, [r7, #12]

  /* Half conversion callback */
#if (USE_HAL_ADC_REGISTER_CALLBACKS == 1)
  hadc->ConvHalfCpltCallback(hadc);
#else
  HAL_ADC_ConvHalfCpltCallback(hadc);
 8002e4e:	68fb      	ldr	r3, [r7, #12]
 8002e50:	0018      	movs	r0, r3
 8002e52:	f7ff fd1b 	bl	800288c <HAL_ADC_ConvHalfCpltCallback>
#endif /* USE_HAL_ADC_REGISTER_CALLBACKS */
}
 8002e56:	46c0      	nop			@ (mov r8, r8)
 8002e58:	46bd      	mov	sp, r7
 8002e5a:	b004      	add	sp, #16
 8002e5c:	bd80      	pop	{r7, pc}

08002e5e <ADC_DMAError>:
  * @brief  DMA error callback.
  * @param hdma pointer to DMA handle.
  * @retval None
  */
static void ADC_DMAError(DMA_HandleTypeDef *hdma)
{
 8002e5e:	b580      	push	{r7, lr}
 8002e60:	b084      	sub	sp, #16
 8002e62:	af00      	add	r7, sp, #0
 8002e64:	6078      	str	r0, [r7, #4]
  /* Retrieve ADC handle corresponding to current DMA handle */
  ADC_HandleTypeDef *hadc = (ADC_HandleTypeDef *)((DMA_HandleTypeDef *)hdma)->Parent;
 8002e66:	687b      	ldr	r3, [r7, #4]
 8002e68:	6a9b      	ldr	r3, [r3, #40]	@ 0x28
 8002e6a:	60fb      	str	r3, [r7, #12]

  /* Set ADC state */
  SET_BIT(hadc->State, HAL_ADC_STATE_ERROR_DMA);
 8002e6c:	68fb      	ldr	r3, [r7, #12]
 8002e6e:	6d9b      	ldr	r3, [r3, #88]	@ 0x58
 8002e70:	2240      	movs	r2, #64	@ 0x40
 8002e72:	431a      	orrs	r2, r3
 8002e74:	68fb      	ldr	r3, [r7, #12]
 8002e76:	659a      	str	r2, [r3, #88]	@ 0x58

  /* Set ADC error code to DMA error */
  SET_BIT(hadc->ErrorCode, HAL_ADC_ERROR_DMA);
 8002e78:	68fb      	ldr	r3, [r7, #12]
 8002e7a:	6ddb      	ldr	r3, [r3, #92]	@ 0x5c
 8002e7c:	2204      	movs	r2, #4
 8002e7e:	431a      	orrs	r2, r3
 8002e80:	68fb      	ldr	r3, [r7, #12]
 8002e82:	65da      	str	r2, [r3, #92]	@ 0x5c

  /* Error callback */
#if (USE_HAL_ADC_REGISTER_CALLBACKS == 1)
  hadc->ErrorCallback(hadc);
#else
  HAL_ADC_ErrorCallback(hadc);
 8002e84:	68fb      	ldr	r3, [r7, #12]
 8002e86:	0018      	movs	r0, r3
 8002e88:	f7ff fd10 	bl	80028ac <HAL_ADC_ErrorCallback>
#endif /* USE_HAL_ADC_REGISTER_CALLBACKS */
}
 8002e8c:	46c0      	nop			@ (mov r8, r8)
 8002e8e:	46bd      	mov	sp, r7
 8002e90:	b004      	add	sp, #16
 8002e92:	bd80      	pop	{r7, pc}

08002e94 <HAL_ADCEx_LevelOutOfWindow2Callback>:
  * @brief  Analog watchdog 2 callback in non-blocking mode.
  * @param hadc ADC handle
  * @retval None
  */
__weak void HAL_ADCEx_LevelOutOfWindow2Callback(ADC_HandleTypeDef *hadc)
{
 8002e94:	b580      	push	{r7, lr}
 8002e96:	b082      	sub	sp, #8
 8002e98:	af00      	add	r7, sp, #0
 8002e9a:	6078      	str	r0, [r7, #4]
  UNUSED(hadc);

  /* NOTE : This function should not be modified. When the callback is needed,
            function HAL_ADCEx_LevelOutOfWindow2Callback must be implemented in the user file.
  */
}
 8002e9c:	46c0      	nop			@ (mov r8, r8)
 8002e9e:	46bd      	mov	sp, r7
 8002ea0:	b002      	add	sp, #8
 8002ea2:	bd80      	pop	{r7, pc}

08002ea4 <HAL_ADCEx_LevelOutOfWindow3Callback>:
  * @brief  Analog watchdog 3 callback in non-blocking mode.
  * @param hadc ADC handle
  * @retval None
  */
__weak void HAL_ADCEx_LevelOutOfWindow3Callback(ADC_HandleTypeDef *hadc)
{
 8002ea4:	b580      	push	{r7, lr}
 8002ea6:	b082      	sub	sp, #8
 8002ea8:	af00      	add	r7, sp, #0
 8002eaa:	6078      	str	r0, [r7, #4]
  UNUSED(hadc);

  /* NOTE : This function should not be modified. When the callback is needed,
            function HAL_ADCEx_LevelOutOfWindow3Callback must be implemented in the user file.
  */
}
 8002eac:	46c0      	nop			@ (mov r8, r8)
 8002eae:	46bd      	mov	sp, r7
 8002eb0:	b002      	add	sp, #8
 8002eb2:	bd80      	pop	{r7, pc}

08002eb4 <HAL_ADCEx_EndOfSamplingCallback>:
  * @brief  End Of Sampling callback in non-blocking mode.
  * @param hadc ADC handle
  * @retval None
  */
__weak void HAL_ADCEx_EndOfSamplingCallback(ADC_HandleTypeDef *hadc)
{
 8002eb4:	b580      	push	{r7, lr}
 8002eb6:	b082      	sub	sp, #8
 8002eb8:	af00      	add	r7, sp, #0
 8002eba:	6078      	str	r0, [r7, #4]
  UNUSED(hadc);

  /* NOTE : This function should not be modified. When the callback is needed,
            function HAL_ADCEx_EndOfSamplingCallback must be implemented in the user file.
  */
}
 8002ebc:	46c0      	nop			@ (mov r8, r8)
 8002ebe:	46bd      	mov	sp, r7
 8002ec0:	b002      	add	sp, #8
 8002ec2:	bd80      	pop	{r7, pc}

08002ec4 <HAL_ADCEx_ChannelConfigReadyCallback>:
  * @brief  ADC channel configuration ready callback in non-blocking mode.
  * @param hadc ADC handle
  * @retval None
  */
__weak void HAL_ADCEx_ChannelConfigReadyCallback(ADC_HandleTypeDef *hadc)
{
 8002ec4:	b580      	push	{r7, lr}
 8002ec6:	b082      	sub	sp, #8
 8002ec8:	af00      	add	r7, sp, #0
 8002eca:	6078      	str	r0, [r7, #4]
  UNUSED(hadc);

  /* NOTE : This function should not be modified. When the callback is needed,
            function HAL_ADCEx_ChannelConfigReadyCallback must be implemented in the user file.
  */
}
 8002ecc:	46c0      	nop			@ (mov r8, r8)
 8002ece:	46bd      	mov	sp, r7
 8002ed0:	b002      	add	sp, #8
 8002ed2:	bd80      	pop	{r7, pc}

08002ed4 <LL_EXTI_EnableIT_0_31>:
  *         @arg @ref LL_EXTI_LINE_ALL_0_31
  * @note   Please check each device line mapping for EXTI Line availability
  * @retval None
  */
__STATIC_INLINE void LL_EXTI_EnableIT_0_31(uint32_t ExtiLine)
{
 8002ed4:	b580      	push	{r7, lr}
 8002ed6:	b082      	sub	sp, #8
 8002ed8:	af00      	add	r7, sp, #0
 8002eda:	6078      	str	r0, [r7, #4]
  SET_BIT(EXTI->IMR1, ExtiLine);
 8002edc:	4a05      	ldr	r2, [pc, #20]	@ (8002ef4 <LL_EXTI_EnableIT_0_31+0x20>)
 8002ede:	2380      	movs	r3, #128	@ 0x80
 8002ee0:	58d2      	ldr	r2, [r2, r3]
 8002ee2:	4904      	ldr	r1, [pc, #16]	@ (8002ef4 <LL_EXTI_EnableIT_0_31+0x20>)
 8002ee4:	687b      	ldr	r3, [r7, #4]
 8002ee6:	4313      	orrs	r3, r2
 8002ee8:	2280      	movs	r2, #128	@ 0x80
 8002eea:	508b      	str	r3, [r1, r2]
}
 8002eec:	46c0      	nop			@ (mov r8, r8)
 8002eee:	46bd      	mov	sp, r7
 8002ef0:	b002      	add	sp, #8
 8002ef2:	bd80      	pop	{r7, pc}
 8002ef4:	40021800 	.word	0x40021800

08002ef8 <LL_EXTI_DisableIT_0_31>:
  *         @arg @ref LL_EXTI_LINE_ALL_0_31
  * @note   Please check each device line mapping for EXTI Line availability
  * @retval None
  */
__STATIC_INLINE void LL_EXTI_DisableIT_0_31(uint32_t ExtiLine)
{
 8002ef8:	b580      	push	{r7, lr}
 8002efa:	b082      	sub	sp, #8
 8002efc:	af00      	add	r7, sp, #0
 8002efe:	6078      	str	r0, [r7, #4]
  CLEAR_BIT(EXTI->IMR1, ExtiLine);
 8002f00:	4a06      	ldr	r2, [pc, #24]	@ (8002f1c <LL_EXTI_DisableIT_0_31+0x24>)
 8002f02:	2380      	movs	r3, #128	@ 0x80
 8002f04:	58d3      	ldr	r3, [r2, r3]
 8002f06:	687a      	ldr	r2, [r7, #4]
 8002f08:	43d2      	mvns	r2, r2
 8002f0a:	4904      	ldr	r1, [pc, #16]	@ (8002f1c <LL_EXTI_DisableIT_0_31+0x24>)
 8002f0c:	4013      	ands	r3, r2
 8002f0e:	2280      	movs	r2, #128	@ 0x80
 8002f10:	508b      	str	r3, [r1, r2]
}
 8002f12:	46c0      	nop			@ (mov r8, r8)
 8002f14:	46bd      	mov	sp, r7
 8002f16:	b002      	add	sp, #8
 8002f18:	bd80      	pop	{r7, pc}
 8002f1a:	46c0      	nop			@ (mov r8, r8)
 8002f1c:	40021800 	.word	0x40021800

08002f20 <LL_EXTI_EnableEvent_0_31>:
  *         @arg @ref LL_EXTI_LINE_ALL_0_31
  * @note   Please check each device line mapping for EXTI Line availability
  * @retval None
  */
__STATIC_INLINE void LL_EXTI_EnableEvent_0_31(uint32_t ExtiLine)
{
 8002f20:	b580      	push	{r7, lr}
 8002f22:	b082      	sub	sp, #8
 8002f24:	af00      	add	r7, sp, #0
 8002f26:	6078      	str	r0, [r7, #4]
  SET_BIT(EXTI->EMR1, ExtiLine);
 8002f28:	4a05      	ldr	r2, [pc, #20]	@ (8002f40 <LL_EXTI_EnableEvent_0_31+0x20>)
 8002f2a:	2384      	movs	r3, #132	@ 0x84
 8002f2c:	58d2      	ldr	r2, [r2, r3]
 8002f2e:	4904      	ldr	r1, [pc, #16]	@ (8002f40 <LL_EXTI_EnableEvent_0_31+0x20>)
 8002f30:	687b      	ldr	r3, [r7, #4]
 8002f32:	4313      	orrs	r3, r2
 8002f34:	2284      	movs	r2, #132	@ 0x84
 8002f36:	508b      	str	r3, [r1, r2]

}
 8002f38:	46c0      	nop			@ (mov r8, r8)
 8002f3a:	46bd      	mov	sp, r7
 8002f3c:	b002      	add	sp, #8
 8002f3e:	bd80      	pop	{r7, pc}
 8002f40:	40021800 	.word	0x40021800

08002f44 <LL_EXTI_DisableEvent_0_31>:
  *         @arg @ref LL_EXTI_LINE_ALL_0_31
  * @note   Please check each device line mapping for EXTI Line availability
  * @retval None
  */
__STATIC_INLINE void LL_EXTI_DisableEvent_0_31(uint32_t ExtiLine)
{
 8002f44:	b580      	push	{r7, lr}
 8002f46:	b082      	sub	sp, #8
 8002f48:	af00      	add	r7, sp, #0
 8002f4a:	6078      	str	r0, [r7, #4]
  CLEAR_BIT(EXTI->EMR1, ExtiLine);
 8002f4c:	4a06      	ldr	r2, [pc, #24]	@ (8002f68 <LL_EXTI_DisableEvent_0_31+0x24>)
 8002f4e:	2384      	movs	r3, #132	@ 0x84
 8002f50:	58d3      	ldr	r3, [r2, r3]
 8002f52:	687a      	ldr	r2, [r7, #4]
 8002f54:	43d2      	mvns	r2, r2
 8002f56:	4904      	ldr	r1, [pc, #16]	@ (8002f68 <LL_EXTI_DisableEvent_0_31+0x24>)
 8002f58:	4013      	ands	r3, r2
 8002f5a:	2284      	movs	r2, #132	@ 0x84
 8002f5c:	508b      	str	r3, [r1, r2]
}
 8002f5e:	46c0      	nop			@ (mov r8, r8)
 8002f60:	46bd      	mov	sp, r7
 8002f62:	b002      	add	sp, #8
 8002f64:	bd80      	pop	{r7, pc}
 8002f66:	46c0      	nop			@ (mov r8, r8)
 8002f68:	40021800 	.word	0x40021800

08002f6c <LL_EXTI_EnableRisingTrig_0_31>:
  *         @arg @ref LL_EXTI_LINE_20
  * @note   Please check each device line mapping for EXTI Line availability
  * @retval None
  */
__STATIC_INLINE void LL_EXTI_EnableRisingTrig_0_31(uint32_t ExtiLine)
{
 8002f6c:	b580      	push	{r7, lr}
 8002f6e:	b082      	sub	sp, #8
 8002f70:	af00      	add	r7, sp, #0
 8002f72:	6078      	str	r0, [r7, #4]
  SET_BIT(EXTI->RTSR1, ExtiLine);
 8002f74:	4b04      	ldr	r3, [pc, #16]	@ (8002f88 <LL_EXTI_EnableRisingTrig_0_31+0x1c>)
 8002f76:	6819      	ldr	r1, [r3, #0]
 8002f78:	4b03      	ldr	r3, [pc, #12]	@ (8002f88 <LL_EXTI_EnableRisingTrig_0_31+0x1c>)
 8002f7a:	687a      	ldr	r2, [r7, #4]
 8002f7c:	430a      	orrs	r2, r1
 8002f7e:	601a      	str	r2, [r3, #0]

}
 8002f80:	46c0      	nop			@ (mov r8, r8)
 8002f82:	46bd      	mov	sp, r7
 8002f84:	b002      	add	sp, #8
 8002f86:	bd80      	pop	{r7, pc}
 8002f88:	40021800 	.word	0x40021800

08002f8c <LL_EXTI_DisableRisingTrig_0_31>:
  *         @arg @ref LL_EXTI_LINE_20
  * @note   Please check each device line mapping for EXTI Line availability
  * @retval None
  */
__STATIC_INLINE void LL_EXTI_DisableRisingTrig_0_31(uint32_t ExtiLine)
{
 8002f8c:	b580      	push	{r7, lr}
 8002f8e:	b082      	sub	sp, #8
 8002f90:	af00      	add	r7, sp, #0
 8002f92:	6078      	str	r0, [r7, #4]
  CLEAR_BIT(EXTI->RTSR1, ExtiLine);
 8002f94:	4b05      	ldr	r3, [pc, #20]	@ (8002fac <LL_EXTI_DisableRisingTrig_0_31+0x20>)
 8002f96:	681a      	ldr	r2, [r3, #0]
 8002f98:	687b      	ldr	r3, [r7, #4]
 8002f9a:	43d9      	mvns	r1, r3
 8002f9c:	4b03      	ldr	r3, [pc, #12]	@ (8002fac <LL_EXTI_DisableRisingTrig_0_31+0x20>)
 8002f9e:	400a      	ands	r2, r1
 8002fa0:	601a      	str	r2, [r3, #0]

}
 8002fa2:	46c0      	nop			@ (mov r8, r8)
 8002fa4:	46bd      	mov	sp, r7
 8002fa6:	b002      	add	sp, #8
 8002fa8:	bd80      	pop	{r7, pc}
 8002faa:	46c0      	nop			@ (mov r8, r8)
 8002fac:	40021800 	.word	0x40021800

08002fb0 <LL_EXTI_EnableFallingTrig_0_31>:
  *         @arg @ref LL_EXTI_LINE_20
  * @note   Please check each device line mapping for EXTI Line availability
  * @retval None
  */
__STATIC_INLINE void LL_EXTI_EnableFallingTrig_0_31(uint32_t ExtiLine)
{
 8002fb0:	b580      	push	{r7, lr}
 8002fb2:	b082      	sub	sp, #8
 8002fb4:	af00      	add	r7, sp, #0
 8002fb6:	6078      	str	r0, [r7, #4]
  SET_BIT(EXTI->FTSR1, ExtiLine);
 8002fb8:	4b04      	ldr	r3, [pc, #16]	@ (8002fcc <LL_EXTI_EnableFallingTrig_0_31+0x1c>)
 8002fba:	6859      	ldr	r1, [r3, #4]
 8002fbc:	4b03      	ldr	r3, [pc, #12]	@ (8002fcc <LL_EXTI_EnableFallingTrig_0_31+0x1c>)
 8002fbe:	687a      	ldr	r2, [r7, #4]
 8002fc0:	430a      	orrs	r2, r1
 8002fc2:	605a      	str	r2, [r3, #4]
}
 8002fc4:	46c0      	nop			@ (mov r8, r8)
 8002fc6:	46bd      	mov	sp, r7
 8002fc8:	b002      	add	sp, #8
 8002fca:	bd80      	pop	{r7, pc}
 8002fcc:	40021800 	.word	0x40021800

08002fd0 <LL_EXTI_DisableFallingTrig_0_31>:
  *         @arg @ref LL_EXTI_LINE_20
  * @note   Please check each device line mapping for EXTI Line availability
  * @retval None
  */
__STATIC_INLINE void LL_EXTI_DisableFallingTrig_0_31(uint32_t ExtiLine)
{
 8002fd0:	b580      	push	{r7, lr}
 8002fd2:	b082      	sub	sp, #8
 8002fd4:	af00      	add	r7, sp, #0
 8002fd6:	6078      	str	r0, [r7, #4]
  CLEAR_BIT(EXTI->FTSR1, ExtiLine);
 8002fd8:	4b05      	ldr	r3, [pc, #20]	@ (8002ff0 <LL_EXTI_DisableFallingTrig_0_31+0x20>)
 8002fda:	685a      	ldr	r2, [r3, #4]
 8002fdc:	687b      	ldr	r3, [r7, #4]
 8002fde:	43d9      	mvns	r1, r3
 8002fe0:	4b03      	ldr	r3, [pc, #12]	@ (8002ff0 <LL_EXTI_DisableFallingTrig_0_31+0x20>)
 8002fe2:	400a      	ands	r2, r1
 8002fe4:	605a      	str	r2, [r3, #4]
}
 8002fe6:	46c0      	nop			@ (mov r8, r8)
 8002fe8:	46bd      	mov	sp, r7
 8002fea:	b002      	add	sp, #8
 8002fec:	bd80      	pop	{r7, pc}
 8002fee:	46c0      	nop			@ (mov r8, r8)
 8002ff0:	40021800 	.word	0x40021800

08002ff4 <LL_EXTI_ClearFallingFlag_0_31>:
  *         @arg @ref LL_EXTI_LINE_20
  * @note   Please check each device line mapping for EXTI Line availability
  * @retval None
  */
__STATIC_INLINE void LL_EXTI_ClearFallingFlag_0_31(uint32_t ExtiLine)
{
 8002ff4:	b580      	push	{r7, lr}
 8002ff6:	b082      	sub	sp, #8
 8002ff8:	af00      	add	r7, sp, #0
 8002ffa:	6078      	str	r0, [r7, #4]
  WRITE_REG(EXTI->FPR1, ExtiLine);
 8002ffc:	4b03      	ldr	r3, [pc, #12]	@ (800300c <LL_EXTI_ClearFallingFlag_0_31+0x18>)
 8002ffe:	687a      	ldr	r2, [r7, #4]
 8003000:	611a      	str	r2, [r3, #16]
}
 8003002:	46c0      	nop			@ (mov r8, r8)
 8003004:	46bd      	mov	sp, r7
 8003006:	b002      	add	sp, #8
 8003008:	bd80      	pop	{r7, pc}
 800300a:	46c0      	nop			@ (mov r8, r8)
 800300c:	40021800 	.word	0x40021800

08003010 <LL_EXTI_ClearRisingFlag_0_31>:
  *         @arg @ref LL_EXTI_LINE_20
  * @note   Please check each device line mapping for EXTI Line availability
  * @retval None
  */
__STATIC_INLINE void LL_EXTI_ClearRisingFlag_0_31(uint32_t ExtiLine)
{
 8003010:	b580      	push	{r7, lr}
 8003012:	b082      	sub	sp, #8
 8003014:	af00      	add	r7, sp, #0
 8003016:	6078      	str	r0, [r7, #4]
  WRITE_REG(EXTI->RPR1, ExtiLine);
 8003018:	4b03      	ldr	r3, [pc, #12]	@ (8003028 <LL_EXTI_ClearRisingFlag_0_31+0x18>)
 800301a:	687a      	ldr	r2, [r7, #4]
 800301c:	60da      	str	r2, [r3, #12]
}
 800301e:	46c0      	nop			@ (mov r8, r8)
 8003020:	46bd      	mov	sp, r7
 8003022:	b002      	add	sp, #8
 8003024:	bd80      	pop	{r7, pc}
 8003026:	46c0      	nop			@ (mov r8, r8)
 8003028:	40021800 	.word	0x40021800

0800302c <HAL_COMP_Init>:
  *         To unlock the configuration, perform a system reset.
  * @param  hcomp  COMP handle
  * @retval HAL status
  */
HAL_StatusTypeDef HAL_COMP_Init(COMP_HandleTypeDef *hcomp)
{
 800302c:	b580      	push	{r7, lr}
 800302e:	b088      	sub	sp, #32
 8003030:	af00      	add	r7, sp, #0
 8003032:	6078      	str	r0, [r7, #4]
  uint32_t tmp_csr;
  uint32_t exti_line;
  uint32_t comp_voltage_scaler_initialized; /* Value "0" if comparator voltage scaler is not initialized */
  __IO uint32_t wait_loop_index = 0UL;
 8003034:	2300      	movs	r3, #0
 8003036:	60fb      	str	r3, [r7, #12]
  HAL_StatusTypeDef status = HAL_OK;
 8003038:	211f      	movs	r1, #31
 800303a:	187b      	adds	r3, r7, r1
 800303c:	2200      	movs	r2, #0
 800303e:	701a      	strb	r2, [r3, #0]
  __IO uint32_t *comp_common_odd;
  __IO uint32_t *comp_common_even;
#endif /* COMP3 */

  /* Check the COMP handle allocation and lock status */
  if (hcomp == NULL)
 8003040:	687b      	ldr	r3, [r7, #4]
 8003042:	2b00      	cmp	r3, #0
 8003044:	d103      	bne.n	800304e <HAL_COMP_Init+0x22>
  {
    status = HAL_ERROR;
 8003046:	187b      	adds	r3, r7, r1
 8003048:	2201      	movs	r2, #1
 800304a:	701a      	strb	r2, [r3, #0]
 800304c:	e13d      	b.n	80032ca <HAL_COMP_Init+0x29e>
  }
  else if (__HAL_COMP_IS_LOCKED(hcomp))
 800304e:	687b      	ldr	r3, [r7, #4]
 8003050:	681b      	ldr	r3, [r3, #0]
 8003052:	681b      	ldr	r3, [r3, #0]
 8003054:	0fdb      	lsrs	r3, r3, #31
 8003056:	07da      	lsls	r2, r3, #31
 8003058:	2380      	movs	r3, #128	@ 0x80
 800305a:	061b      	lsls	r3, r3, #24
 800305c:	429a      	cmp	r2, r3
 800305e:	d104      	bne.n	800306a <HAL_COMP_Init+0x3e>
  {
    status = HAL_ERROR;
 8003060:	231f      	movs	r3, #31
 8003062:	18fb      	adds	r3, r7, r3
 8003064:	2201      	movs	r2, #1
 8003066:	701a      	strb	r2, [r3, #0]
 8003068:	e12f      	b.n	80032ca <HAL_COMP_Init+0x29e>
    {
      assert_param(IS_COMP_WINDOWOUTPUT(hcomp->Init.WindowOutput));
    }


    if (hcomp->State == HAL_COMP_STATE_RESET)
 800306a:	687b      	ldr	r3, [r7, #4]
 800306c:	2229      	movs	r2, #41	@ 0x29
 800306e:	5c9b      	ldrb	r3, [r3, r2]
 8003070:	b2db      	uxtb	r3, r3
 8003072:	2b00      	cmp	r3, #0
 8003074:	d10a      	bne.n	800308c <HAL_COMP_Init+0x60>
    {
      /* Allocate lock resource and initialize it */
      hcomp->Lock = HAL_UNLOCKED;
 8003076:	687b      	ldr	r3, [r7, #4]
 8003078:	2228      	movs	r2, #40	@ 0x28
 800307a:	2100      	movs	r1, #0
 800307c:	5499      	strb	r1, [r3, r2]

      /* Set COMP error code to none */
      COMP_CLEAR_ERRORCODE(hcomp);
 800307e:	687b      	ldr	r3, [r7, #4]
 8003080:	2200      	movs	r2, #0
 8003082:	62da      	str	r2, [r3, #44]	@ 0x2c
#else
      /* Init the low level hardware */
      /* Note: Internal control clock of the comparators must                 */
      /*       be enabled in "HAL_COMP_MspInit()"                             */
      /*       using "__HAL_RCC_SYSCFG_CLK_ENABLE()".                         */
      HAL_COMP_MspInit(hcomp);
 8003084:	687b      	ldr	r3, [r7, #4]
 8003086:	0018      	movs	r0, r3
 8003088:	f7fe fb16 	bl	80016b8 <HAL_COMP_MspInit>
#endif /* USE_HAL_COMP_REGISTER_CALLBACKS */
    }

    /* Memorize voltage scaler state before initialization */
    comp_voltage_scaler_initialized = READ_BIT(hcomp->Instance->CSR, (COMP_CSR_INMSEL_1 | COMP_CSR_INMSEL_0));
 800308c:	687b      	ldr	r3, [r7, #4]
 800308e:	681b      	ldr	r3, [r3, #0]
 8003090:	681b      	ldr	r3, [r3, #0]
 8003092:	2230      	movs	r2, #48	@ 0x30
 8003094:	4013      	ands	r3, r2
 8003096:	61bb      	str	r3, [r7, #24]

    /* Set COMP parameters */
    tmp_csr = (hcomp->Init.InputMinus
 8003098:	687b      	ldr	r3, [r7, #4]
 800309a:	695a      	ldr	r2, [r3, #20]
               | hcomp->Init.InputPlus
 800309c:	687b      	ldr	r3, [r7, #4]
 800309e:	691b      	ldr	r3, [r3, #16]
 80030a0:	431a      	orrs	r2, r3
               | hcomp->Init.BlankingSrce
 80030a2:	687b      	ldr	r3, [r7, #4]
 80030a4:	6a1b      	ldr	r3, [r3, #32]
 80030a6:	431a      	orrs	r2, r3
               | hcomp->Init.Hysteresis
 80030a8:	687b      	ldr	r3, [r7, #4]
 80030aa:	699b      	ldr	r3, [r3, #24]
 80030ac:	431a      	orrs	r2, r3
               | hcomp->Init.OutputPol
 80030ae:	687b      	ldr	r3, [r7, #4]
 80030b0:	69db      	ldr	r3, [r3, #28]
 80030b2:	431a      	orrs	r2, r3
               | hcomp->Init.Mode
 80030b4:	687b      	ldr	r3, [r7, #4]
 80030b6:	68db      	ldr	r3, [r3, #12]
    tmp_csr = (hcomp->Init.InputMinus
 80030b8:	4313      	orrs	r3, r2
 80030ba:	617b      	str	r3, [r7, #20]
              );

    /* Set parameters in COMP register */
    /* Note: Update all bits except read-only, lock and enable bits */
    MODIFY_REG(hcomp->Instance->CSR,
 80030bc:	687b      	ldr	r3, [r7, #4]
 80030be:	681b      	ldr	r3, [r3, #0]
 80030c0:	681b      	ldr	r3, [r3, #0]
 80030c2:	4a85      	ldr	r2, [pc, #532]	@ (80032d8 <HAL_COMP_Init+0x2ac>)
 80030c4:	4013      	ands	r3, r2
 80030c6:	0019      	movs	r1, r3
 80030c8:	687b      	ldr	r3, [r7, #4]
 80030ca:	681b      	ldr	r3, [r3, #0]
 80030cc:	697a      	ldr	r2, [r7, #20]
 80030ce:	430a      	orrs	r2, r1
 80030d0:	601a      	str	r2, [r3, #0]
        CLEAR_BIT(*comp_common_odd, COMP_CSR_WINOUT);
        CLEAR_BIT(*comp_common_even, COMP_CSR_WINOUT);
        break;
    }
#else
    if (hcomp->Init.WindowMode == COMP_WINDOWMODE_COMP1_INPUT_PLUS_COMMON)
 80030d2:	687b      	ldr	r3, [r7, #4]
 80030d4:	685a      	ldr	r2, [r3, #4]
 80030d6:	2380      	movs	r3, #128	@ 0x80
 80030d8:	011b      	lsls	r3, r3, #4
 80030da:	429a      	cmp	r2, r3
 80030dc:	d10d      	bne.n	80030fa <HAL_COMP_Init+0xce>
    {
      CLEAR_BIT(COMP12_COMMON->CSR_ODD, COMP_CSR_WINMODE);
 80030de:	4b7f      	ldr	r3, [pc, #508]	@ (80032dc <HAL_COMP_Init+0x2b0>)
 80030e0:	681a      	ldr	r2, [r3, #0]
 80030e2:	4b7e      	ldr	r3, [pc, #504]	@ (80032dc <HAL_COMP_Init+0x2b0>)
 80030e4:	497e      	ldr	r1, [pc, #504]	@ (80032e0 <HAL_COMP_Init+0x2b4>)
 80030e6:	400a      	ands	r2, r1
 80030e8:	601a      	str	r2, [r3, #0]
      SET_BIT(COMP12_COMMON->CSR_EVEN, COMP_CSR_WINMODE);
 80030ea:	4b7c      	ldr	r3, [pc, #496]	@ (80032dc <HAL_COMP_Init+0x2b0>)
 80030ec:	685a      	ldr	r2, [r3, #4]
 80030ee:	4b7b      	ldr	r3, [pc, #492]	@ (80032dc <HAL_COMP_Init+0x2b0>)
 80030f0:	2180      	movs	r1, #128	@ 0x80
 80030f2:	0109      	lsls	r1, r1, #4
 80030f4:	430a      	orrs	r2, r1
 80030f6:	605a      	str	r2, [r3, #4]
 80030f8:	e01f      	b.n	800313a <HAL_COMP_Init+0x10e>
    }
    else if (hcomp->Init.WindowMode == COMP_WINDOWMODE_COMP2_INPUT_PLUS_COMMON)
 80030fa:	687b      	ldr	r3, [r7, #4]
 80030fc:	685a      	ldr	r2, [r3, #4]
 80030fe:	23c0      	movs	r3, #192	@ 0xc0
 8003100:	015b      	lsls	r3, r3, #5
 8003102:	429a      	cmp	r2, r3
 8003104:	d10d      	bne.n	8003122 <HAL_COMP_Init+0xf6>
    {
      SET_BIT(COMP12_COMMON->CSR_ODD, COMP_CSR_WINMODE);
 8003106:	4b75      	ldr	r3, [pc, #468]	@ (80032dc <HAL_COMP_Init+0x2b0>)
 8003108:	681a      	ldr	r2, [r3, #0]
 800310a:	4b74      	ldr	r3, [pc, #464]	@ (80032dc <HAL_COMP_Init+0x2b0>)
 800310c:	2180      	movs	r1, #128	@ 0x80
 800310e:	0109      	lsls	r1, r1, #4
 8003110:	430a      	orrs	r2, r1
 8003112:	601a      	str	r2, [r3, #0]
      CLEAR_BIT(COMP12_COMMON->CSR_EVEN, COMP_CSR_WINMODE);
 8003114:	4b71      	ldr	r3, [pc, #452]	@ (80032dc <HAL_COMP_Init+0x2b0>)
 8003116:	685a      	ldr	r2, [r3, #4]
 8003118:	4b70      	ldr	r3, [pc, #448]	@ (80032dc <HAL_COMP_Init+0x2b0>)
 800311a:	4971      	ldr	r1, [pc, #452]	@ (80032e0 <HAL_COMP_Init+0x2b4>)
 800311c:	400a      	ands	r2, r1
 800311e:	605a      	str	r2, [r3, #4]
 8003120:	e00b      	b.n	800313a <HAL_COMP_Init+0x10e>
    }
    else
    {
      CLEAR_BIT(COMP12_COMMON->CSR_ODD, COMP_CSR_WINMODE);
 8003122:	4b6e      	ldr	r3, [pc, #440]	@ (80032dc <HAL_COMP_Init+0x2b0>)
 8003124:	681a      	ldr	r2, [r3, #0]
 8003126:	4b6d      	ldr	r3, [pc, #436]	@ (80032dc <HAL_COMP_Init+0x2b0>)
 8003128:	496d      	ldr	r1, [pc, #436]	@ (80032e0 <HAL_COMP_Init+0x2b4>)
 800312a:	400a      	ands	r2, r1
 800312c:	601a      	str	r2, [r3, #0]
      CLEAR_BIT(COMP12_COMMON->CSR_EVEN, COMP_CSR_WINMODE);
 800312e:	4b6b      	ldr	r3, [pc, #428]	@ (80032dc <HAL_COMP_Init+0x2b0>)
 8003130:	685a      	ldr	r2, [r3, #4]
 8003132:	4b6a      	ldr	r3, [pc, #424]	@ (80032dc <HAL_COMP_Init+0x2b0>)
 8003134:	496a      	ldr	r1, [pc, #424]	@ (80032e0 <HAL_COMP_Init+0x2b4>)
 8003136:	400a      	ands	r2, r1
 8003138:	605a      	str	r2, [r3, #4]

    /* Set window mode output */
    /* Note: Window mode mode output can also be used when window mode        */
    /*       is disabled, to use comparators in independent mode with their   */
    /*       output connected through exclusive-or circuitry.                 */
    switch (hcomp->Init.WindowOutput)
 800313a:	687b      	ldr	r3, [r7, #4]
 800313c:	689b      	ldr	r3, [r3, #8]
 800313e:	22a0      	movs	r2, #160	@ 0xa0
 8003140:	01d2      	lsls	r2, r2, #7
 8003142:	4293      	cmp	r3, r2
 8003144:	d017      	beq.n	8003176 <HAL_COMP_Init+0x14a>
 8003146:	22a0      	movs	r2, #160	@ 0xa0
 8003148:	01d2      	lsls	r2, r2, #7
 800314a:	4293      	cmp	r3, r2
 800314c:	d830      	bhi.n	80031b0 <HAL_COMP_Init+0x184>
 800314e:	2b01      	cmp	r3, #1
 8003150:	d01f      	beq.n	8003192 <HAL_COMP_Init+0x166>
 8003152:	2280      	movs	r2, #128	@ 0x80
 8003154:	01d2      	lsls	r2, r2, #7
 8003156:	4293      	cmp	r3, r2
 8003158:	d12a      	bne.n	80031b0 <HAL_COMP_Init+0x184>
    {
      case COMP_WINDOWOUTPUT_COMP1:
        SET_BIT(COMP12_COMMON->CSR_ODD, COMP_CSR_WINOUT);
 800315a:	4b60      	ldr	r3, [pc, #384]	@ (80032dc <HAL_COMP_Init+0x2b0>)
 800315c:	681a      	ldr	r2, [r3, #0]
 800315e:	4b5f      	ldr	r3, [pc, #380]	@ (80032dc <HAL_COMP_Init+0x2b0>)
 8003160:	2180      	movs	r1, #128	@ 0x80
 8003162:	01c9      	lsls	r1, r1, #7
 8003164:	430a      	orrs	r2, r1
 8003166:	601a      	str	r2, [r3, #0]
        CLEAR_BIT(COMP12_COMMON->CSR_EVEN, COMP_CSR_WINOUT);
 8003168:	4b5c      	ldr	r3, [pc, #368]	@ (80032dc <HAL_COMP_Init+0x2b0>)
 800316a:	685a      	ldr	r2, [r3, #4]
 800316c:	4b5b      	ldr	r3, [pc, #364]	@ (80032dc <HAL_COMP_Init+0x2b0>)
 800316e:	495d      	ldr	r1, [pc, #372]	@ (80032e4 <HAL_COMP_Init+0x2b8>)
 8003170:	400a      	ands	r2, r1
 8003172:	605a      	str	r2, [r3, #4]
        break;
 8003174:	e029      	b.n	80031ca <HAL_COMP_Init+0x19e>

      case COMP_WINDOWOUTPUT_COMP2:
        CLEAR_BIT(COMP12_COMMON->CSR_ODD, COMP_CSR_WINOUT);
 8003176:	4b59      	ldr	r3, [pc, #356]	@ (80032dc <HAL_COMP_Init+0x2b0>)
 8003178:	681a      	ldr	r2, [r3, #0]
 800317a:	4b58      	ldr	r3, [pc, #352]	@ (80032dc <HAL_COMP_Init+0x2b0>)
 800317c:	4959      	ldr	r1, [pc, #356]	@ (80032e4 <HAL_COMP_Init+0x2b8>)
 800317e:	400a      	ands	r2, r1
 8003180:	601a      	str	r2, [r3, #0]
        SET_BIT(COMP12_COMMON->CSR_EVEN, COMP_CSR_WINOUT);
 8003182:	4b56      	ldr	r3, [pc, #344]	@ (80032dc <HAL_COMP_Init+0x2b0>)
 8003184:	685a      	ldr	r2, [r3, #4]
 8003186:	4b55      	ldr	r3, [pc, #340]	@ (80032dc <HAL_COMP_Init+0x2b0>)
 8003188:	2180      	movs	r1, #128	@ 0x80
 800318a:	01c9      	lsls	r1, r1, #7
 800318c:	430a      	orrs	r2, r1
 800318e:	605a      	str	r2, [r3, #4]
        break;
 8003190:	e01b      	b.n	80031ca <HAL_COMP_Init+0x19e>

      case COMP_WINDOWOUTPUT_BOTH:
        SET_BIT(COMP12_COMMON->CSR_ODD, COMP_CSR_WINOUT);
 8003192:	4b52      	ldr	r3, [pc, #328]	@ (80032dc <HAL_COMP_Init+0x2b0>)
 8003194:	681a      	ldr	r2, [r3, #0]
 8003196:	4b51      	ldr	r3, [pc, #324]	@ (80032dc <HAL_COMP_Init+0x2b0>)
 8003198:	2180      	movs	r1, #128	@ 0x80
 800319a:	01c9      	lsls	r1, r1, #7
 800319c:	430a      	orrs	r2, r1
 800319e:	601a      	str	r2, [r3, #0]
        SET_BIT(COMP12_COMMON->CSR_EVEN, COMP_CSR_WINOUT);
 80031a0:	4b4e      	ldr	r3, [pc, #312]	@ (80032dc <HAL_COMP_Init+0x2b0>)
 80031a2:	685a      	ldr	r2, [r3, #4]
 80031a4:	4b4d      	ldr	r3, [pc, #308]	@ (80032dc <HAL_COMP_Init+0x2b0>)
 80031a6:	2180      	movs	r1, #128	@ 0x80
 80031a8:	01c9      	lsls	r1, r1, #7
 80031aa:	430a      	orrs	r2, r1
 80031ac:	605a      	str	r2, [r3, #4]
        break;
 80031ae:	e00c      	b.n	80031ca <HAL_COMP_Init+0x19e>

      default: /* COMP_WINDOWOUTPUT_EACH_COMP */
        CLEAR_BIT(COMP12_COMMON->CSR_ODD, COMP_CSR_WINOUT);
 80031b0:	4b4a      	ldr	r3, [pc, #296]	@ (80032dc <HAL_COMP_Init+0x2b0>)
 80031b2:	681a      	ldr	r2, [r3, #0]
 80031b4:	4b49      	ldr	r3, [pc, #292]	@ (80032dc <HAL_COMP_Init+0x2b0>)
 80031b6:	494b      	ldr	r1, [pc, #300]	@ (80032e4 <HAL_COMP_Init+0x2b8>)
 80031b8:	400a      	ands	r2, r1
 80031ba:	601a      	str	r2, [r3, #0]
        CLEAR_BIT(COMP12_COMMON->CSR_EVEN, COMP_CSR_WINOUT);
 80031bc:	4b47      	ldr	r3, [pc, #284]	@ (80032dc <HAL_COMP_Init+0x2b0>)
 80031be:	685a      	ldr	r2, [r3, #4]
 80031c0:	4b46      	ldr	r3, [pc, #280]	@ (80032dc <HAL_COMP_Init+0x2b0>)
 80031c2:	4948      	ldr	r1, [pc, #288]	@ (80032e4 <HAL_COMP_Init+0x2b8>)
 80031c4:	400a      	ands	r2, r1
 80031c6:	605a      	str	r2, [r3, #4]
        break;
 80031c8:	46c0      	nop			@ (mov r8, r8)
#endif /* COMP3 */


    /* Delay for COMP scaler bridge voltage stabilization */
    /* Apply the delay if voltage scaler bridge is required and not already enabled */
    if ((READ_BIT(hcomp->Instance->CSR, (COMP_CSR_INMSEL_1 | COMP_CSR_INMSEL_0)) != 0UL) &&
 80031ca:	687b      	ldr	r3, [r7, #4]
 80031cc:	681b      	ldr	r3, [r3, #0]
 80031ce:	681b      	ldr	r3, [r3, #0]
 80031d0:	2230      	movs	r2, #48	@ 0x30
 80031d2:	4013      	ands	r3, r2
 80031d4:	d016      	beq.n	8003204 <HAL_COMP_Init+0x1d8>
 80031d6:	69bb      	ldr	r3, [r7, #24]
 80031d8:	2b00      	cmp	r3, #0
 80031da:	d113      	bne.n	8003204 <HAL_COMP_Init+0x1d8>
    {
      /* Wait loop initialization and execution */
      /* Note: Variable divided by 2 to compensate partially              */
      /*       CPU processing cycles, scaling in us split to not          */
      /*       exceed 32 bits register capacity and handle low frequency. */
      wait_loop_index = ((COMP_DELAY_VOLTAGE_SCALER_STAB_US / 10UL) * ((SystemCoreClock / (100000UL * 2UL)) + 1UL));
 80031dc:	4b42      	ldr	r3, [pc, #264]	@ (80032e8 <HAL_COMP_Init+0x2bc>)
 80031de:	681b      	ldr	r3, [r3, #0]
 80031e0:	4942      	ldr	r1, [pc, #264]	@ (80032ec <HAL_COMP_Init+0x2c0>)
 80031e2:	0018      	movs	r0, r3
 80031e4:	f7fc ff8e 	bl	8000104 <__udivsi3>
 80031e8:	0003      	movs	r3, r0
 80031ea:	1c5a      	adds	r2, r3, #1
 80031ec:	0013      	movs	r3, r2
 80031ee:	009b      	lsls	r3, r3, #2
 80031f0:	189b      	adds	r3, r3, r2
 80031f2:	009b      	lsls	r3, r3, #2
 80031f4:	60fb      	str	r3, [r7, #12]
      while (wait_loop_index != 0UL)
 80031f6:	e002      	b.n	80031fe <HAL_COMP_Init+0x1d2>
      {
        wait_loop_index--;
 80031f8:	68fb      	ldr	r3, [r7, #12]
 80031fa:	3b01      	subs	r3, #1
 80031fc:	60fb      	str	r3, [r7, #12]
      while (wait_loop_index != 0UL)
 80031fe:	68fb      	ldr	r3, [r7, #12]
 8003200:	2b00      	cmp	r3, #0
 8003202:	d1f9      	bne.n	80031f8 <HAL_COMP_Init+0x1cc>
      }
    }

    /* Get the EXTI line corresponding to the selected COMP instance */
    exti_line = COMP_GET_EXTI_LINE(hcomp->Instance);
 8003204:	687b      	ldr	r3, [r7, #4]
 8003206:	681b      	ldr	r3, [r3, #0]
 8003208:	4a34      	ldr	r2, [pc, #208]	@ (80032dc <HAL_COMP_Init+0x2b0>)
 800320a:	4293      	cmp	r3, r2
 800320c:	d102      	bne.n	8003214 <HAL_COMP_Init+0x1e8>
 800320e:	2380      	movs	r3, #128	@ 0x80
 8003210:	029b      	lsls	r3, r3, #10
 8003212:	e001      	b.n	8003218 <HAL_COMP_Init+0x1ec>
 8003214:	2380      	movs	r3, #128	@ 0x80
 8003216:	02db      	lsls	r3, r3, #11
 8003218:	613b      	str	r3, [r7, #16]

    /* Manage EXTI settings */
    if ((hcomp->Init.TriggerMode & (COMP_EXTI_IT | COMP_EXTI_EVENT)) != 0UL)
 800321a:	687b      	ldr	r3, [r7, #4]
 800321c:	6a5b      	ldr	r3, [r3, #36]	@ 0x24
 800321e:	2203      	movs	r2, #3
 8003220:	4013      	ands	r3, r2
 8003222:	d040      	beq.n	80032a6 <HAL_COMP_Init+0x27a>
    {
      /* Configure EXTI rising edge */
      if ((hcomp->Init.TriggerMode & COMP_EXTI_RISING) != 0UL)
 8003224:	687b      	ldr	r3, [r7, #4]
 8003226:	6a5b      	ldr	r3, [r3, #36]	@ 0x24
 8003228:	2210      	movs	r2, #16
 800322a:	4013      	ands	r3, r2
 800322c:	d004      	beq.n	8003238 <HAL_COMP_Init+0x20c>
      {
        LL_EXTI_EnableRisingTrig_0_31(exti_line);
 800322e:	693b      	ldr	r3, [r7, #16]
 8003230:	0018      	movs	r0, r3
 8003232:	f7ff fe9b 	bl	8002f6c <LL_EXTI_EnableRisingTrig_0_31>
 8003236:	e003      	b.n	8003240 <HAL_COMP_Init+0x214>
      }
      else
      {
        LL_EXTI_DisableRisingTrig_0_31(exti_line);
 8003238:	693b      	ldr	r3, [r7, #16]
 800323a:	0018      	movs	r0, r3
 800323c:	f7ff fea6 	bl	8002f8c <LL_EXTI_DisableRisingTrig_0_31>
      }

      /* Configure EXTI falling edge */
      if ((hcomp->Init.TriggerMode & COMP_EXTI_FALLING) != 0UL)
 8003240:	687b      	ldr	r3, [r7, #4]
 8003242:	6a5b      	ldr	r3, [r3, #36]	@ 0x24
 8003244:	2220      	movs	r2, #32
 8003246:	4013      	ands	r3, r2
 8003248:	d004      	beq.n	8003254 <HAL_COMP_Init+0x228>
      {
        LL_EXTI_EnableFallingTrig_0_31(exti_line);
 800324a:	693b      	ldr	r3, [r7, #16]
 800324c:	0018      	movs	r0, r3
 800324e:	f7ff feaf 	bl	8002fb0 <LL_EXTI_EnableFallingTrig_0_31>
 8003252:	e003      	b.n	800325c <HAL_COMP_Init+0x230>
      }
      else
      {
        LL_EXTI_DisableFallingTrig_0_31(exti_line);
 8003254:	693b      	ldr	r3, [r7, #16]
 8003256:	0018      	movs	r0, r3
 8003258:	f7ff feba 	bl	8002fd0 <LL_EXTI_DisableFallingTrig_0_31>
      }

      /* Clear COMP EXTI pending bit (if any) */
      LL_EXTI_ClearRisingFlag_0_31(exti_line);
 800325c:	693b      	ldr	r3, [r7, #16]
 800325e:	0018      	movs	r0, r3
 8003260:	f7ff fed6 	bl	8003010 <LL_EXTI_ClearRisingFlag_0_31>
      LL_EXTI_ClearFallingFlag_0_31(exti_line);
 8003264:	693b      	ldr	r3, [r7, #16]
 8003266:	0018      	movs	r0, r3
 8003268:	f7ff fec4 	bl	8002ff4 <LL_EXTI_ClearFallingFlag_0_31>

      /* Configure EXTI event mode */
      if ((hcomp->Init.TriggerMode & COMP_EXTI_EVENT) != 0UL)
 800326c:	687b      	ldr	r3, [r7, #4]
 800326e:	6a5b      	ldr	r3, [r3, #36]	@ 0x24
 8003270:	2202      	movs	r2, #2
 8003272:	4013      	ands	r3, r2
 8003274:	d004      	beq.n	8003280 <HAL_COMP_Init+0x254>
      {
        LL_EXTI_EnableEvent_0_31(exti_line);
 8003276:	693b      	ldr	r3, [r7, #16]
 8003278:	0018      	movs	r0, r3
 800327a:	f7ff fe51 	bl	8002f20 <LL_EXTI_EnableEvent_0_31>
 800327e:	e003      	b.n	8003288 <HAL_COMP_Init+0x25c>
      }
      else
      {
        LL_EXTI_DisableEvent_0_31(exti_line);
 8003280:	693b      	ldr	r3, [r7, #16]
 8003282:	0018      	movs	r0, r3
 8003284:	f7ff fe5e 	bl	8002f44 <LL_EXTI_DisableEvent_0_31>
      }

      /* Configure EXTI interrupt mode */
      if ((hcomp->Init.TriggerMode & COMP_EXTI_IT) != 0UL)
 8003288:	687b      	ldr	r3, [r7, #4]
 800328a:	6a5b      	ldr	r3, [r3, #36]	@ 0x24
 800328c:	2201      	movs	r2, #1
 800328e:	4013      	ands	r3, r2
 8003290:	d004      	beq.n	800329c <HAL_COMP_Init+0x270>
      {
        LL_EXTI_EnableIT_0_31(exti_line);
 8003292:	693b      	ldr	r3, [r7, #16]
 8003294:	0018      	movs	r0, r3
 8003296:	f7ff fe1d 	bl	8002ed4 <LL_EXTI_EnableIT_0_31>
 800329a:	e00c      	b.n	80032b6 <HAL_COMP_Init+0x28a>
      }
      else
      {
        LL_EXTI_DisableIT_0_31(exti_line);
 800329c:	693b      	ldr	r3, [r7, #16]
 800329e:	0018      	movs	r0, r3
 80032a0:	f7ff fe2a 	bl	8002ef8 <LL_EXTI_DisableIT_0_31>
 80032a4:	e007      	b.n	80032b6 <HAL_COMP_Init+0x28a>
      }
    }
    else
    {
      /* Disable EXTI event mode */
      LL_EXTI_DisableEvent_0_31(exti_line);
 80032a6:	693b      	ldr	r3, [r7, #16]
 80032a8:	0018      	movs	r0, r3
 80032aa:	f7ff fe4b 	bl	8002f44 <LL_EXTI_DisableEvent_0_31>

      /* Disable EXTI interrupt mode */
      LL_EXTI_DisableIT_0_31(exti_line);
 80032ae:	693b      	ldr	r3, [r7, #16]
 80032b0:	0018      	movs	r0, r3
 80032b2:	f7ff fe21 	bl	8002ef8 <LL_EXTI_DisableIT_0_31>
    }

    /* Set HAL COMP handle state */
    /* Note: Transition from state reset to state ready,                      */
    /*       otherwise (coming from state ready or busy) no state update.     */
    if (hcomp->State == HAL_COMP_STATE_RESET)
 80032b6:	687b      	ldr	r3, [r7, #4]
 80032b8:	2229      	movs	r2, #41	@ 0x29
 80032ba:	5c9b      	ldrb	r3, [r3, r2]
 80032bc:	b2db      	uxtb	r3, r3
 80032be:	2b00      	cmp	r3, #0
 80032c0:	d103      	bne.n	80032ca <HAL_COMP_Init+0x29e>
    {
      hcomp->State = HAL_COMP_STATE_READY;
 80032c2:	687b      	ldr	r3, [r7, #4]
 80032c4:	2229      	movs	r2, #41	@ 0x29
 80032c6:	2101      	movs	r1, #1
 80032c8:	5499      	strb	r1, [r3, r2]
    }
  }

  return status;
 80032ca:	231f      	movs	r3, #31
 80032cc:	18fb      	adds	r3, r7, r3
 80032ce:	781b      	ldrb	r3, [r3, #0]
}
 80032d0:	0018      	movs	r0, r3
 80032d2:	46bd      	mov	sp, r7
 80032d4:	b008      	add	sp, #32
 80032d6:	bd80      	pop	{r7, pc}
 80032d8:	fe00740f 	.word	0xfe00740f
 80032dc:	40010200 	.word	0x40010200
 80032e0:	fffff7ff 	.word	0xfffff7ff
 80032e4:	ffffbfff 	.word	0xffffbfff
 80032e8:	2000001c 	.word	0x2000001c
 80032ec:	00030d40 	.word	0x00030d40

080032f0 <HAL_COMP_Start>:
  * @brief  Start the comparator.
  * @param  hcomp  COMP handle
  * @retval HAL status
  */
HAL_StatusTypeDef HAL_COMP_Start(COMP_HandleTypeDef *hcomp)
{
 80032f0:	b580      	push	{r7, lr}
 80032f2:	b084      	sub	sp, #16
 80032f4:	af00      	add	r7, sp, #0
 80032f6:	6078      	str	r0, [r7, #4]
  __IO uint32_t wait_loop_index = 0UL;
 80032f8:	2300      	movs	r3, #0
 80032fa:	60bb      	str	r3, [r7, #8]
  HAL_StatusTypeDef status = HAL_OK;
 80032fc:	210f      	movs	r1, #15
 80032fe:	187b      	adds	r3, r7, r1
 8003300:	2200      	movs	r2, #0
 8003302:	701a      	strb	r2, [r3, #0]

  /* Check the COMP handle allocation and lock status */
  if (hcomp == NULL)
 8003304:	687b      	ldr	r3, [r7, #4]
 8003306:	2b00      	cmp	r3, #0
 8003308:	d103      	bne.n	8003312 <HAL_COMP_Start+0x22>
  {
    status = HAL_ERROR;
 800330a:	187b      	adds	r3, r7, r1
 800330c:	2201      	movs	r2, #1
 800330e:	701a      	strb	r2, [r3, #0]
 8003310:	e035      	b.n	800337e <HAL_COMP_Start+0x8e>
  }
  else if (__HAL_COMP_IS_LOCKED(hcomp))
 8003312:	687b      	ldr	r3, [r7, #4]
 8003314:	681b      	ldr	r3, [r3, #0]
 8003316:	681b      	ldr	r3, [r3, #0]
 8003318:	0fdb      	lsrs	r3, r3, #31
 800331a:	07da      	lsls	r2, r3, #31
 800331c:	2380      	movs	r3, #128	@ 0x80
 800331e:	061b      	lsls	r3, r3, #24
 8003320:	429a      	cmp	r2, r3
 8003322:	d104      	bne.n	800332e <HAL_COMP_Start+0x3e>
  {
    status = HAL_ERROR;
 8003324:	230f      	movs	r3, #15
 8003326:	18fb      	adds	r3, r7, r3
 8003328:	2201      	movs	r2, #1
 800332a:	701a      	strb	r2, [r3, #0]
 800332c:	e027      	b.n	800337e <HAL_COMP_Start+0x8e>
  else
  {
    /* Check the parameter */
    assert_param(IS_COMP_ALL_INSTANCE(hcomp->Instance));

    if (hcomp->State == HAL_COMP_STATE_READY)
 800332e:	687b      	ldr	r3, [r7, #4]
 8003330:	2229      	movs	r2, #41	@ 0x29
 8003332:	5c9b      	ldrb	r3, [r3, r2]
 8003334:	b2db      	uxtb	r3, r3
 8003336:	2b01      	cmp	r3, #1
 8003338:	d11d      	bne.n	8003376 <HAL_COMP_Start+0x86>
    {
      /* Enable the selected comparator */
      SET_BIT(hcomp->Instance->CSR, COMP_CSR_EN);
 800333a:	687b      	ldr	r3, [r7, #4]
 800333c:	681b      	ldr	r3, [r3, #0]
 800333e:	681a      	ldr	r2, [r3, #0]
 8003340:	687b      	ldr	r3, [r7, #4]
 8003342:	681b      	ldr	r3, [r3, #0]
 8003344:	2101      	movs	r1, #1
 8003346:	430a      	orrs	r2, r1
 8003348:	601a      	str	r2, [r3, #0]

      /* Set HAL COMP handle state */
      hcomp->State = HAL_COMP_STATE_BUSY;
 800334a:	687b      	ldr	r3, [r7, #4]
 800334c:	2229      	movs	r2, #41	@ 0x29
 800334e:	2102      	movs	r1, #2
 8003350:	5499      	strb	r1, [r3, r2]
      /* Delay for COMP startup time */
      /* Wait loop initialization and execution */
      /* Note: Variable divided by 2 to compensate partially              */
      /*       CPU processing cycles, scaling in us split to not          */
      /*       exceed 32 bits register capacity and handle low frequency. */
      wait_loop_index = ((COMP_DELAY_STARTUP_US / 10UL) * ((SystemCoreClock / (100000UL * 2UL)) + 1UL));
 8003352:	4b0e      	ldr	r3, [pc, #56]	@ (800338c <HAL_COMP_Start+0x9c>)
 8003354:	681b      	ldr	r3, [r3, #0]
 8003356:	490e      	ldr	r1, [pc, #56]	@ (8003390 <HAL_COMP_Start+0xa0>)
 8003358:	0018      	movs	r0, r3
 800335a:	f7fc fed3 	bl	8000104 <__udivsi3>
 800335e:	0003      	movs	r3, r0
 8003360:	3301      	adds	r3, #1
 8003362:	00db      	lsls	r3, r3, #3
 8003364:	60bb      	str	r3, [r7, #8]
      while (wait_loop_index != 0UL)
 8003366:	e002      	b.n	800336e <HAL_COMP_Start+0x7e>
      {
        wait_loop_index--;
 8003368:	68bb      	ldr	r3, [r7, #8]
 800336a:	3b01      	subs	r3, #1
 800336c:	60bb      	str	r3, [r7, #8]
      while (wait_loop_index != 0UL)
 800336e:	68bb      	ldr	r3, [r7, #8]
 8003370:	2b00      	cmp	r3, #0
 8003372:	d1f9      	bne.n	8003368 <HAL_COMP_Start+0x78>
 8003374:	e003      	b.n	800337e <HAL_COMP_Start+0x8e>
      }
    }
    else
    {
      status = HAL_ERROR;
 8003376:	230f      	movs	r3, #15
 8003378:	18fb      	adds	r3, r7, r3
 800337a:	2201      	movs	r2, #1
 800337c:	701a      	strb	r2, [r3, #0]
    }
  }

  return status;
 800337e:	230f      	movs	r3, #15
 8003380:	18fb      	adds	r3, r7, r3
 8003382:	781b      	ldrb	r3, [r3, #0]
}
 8003384:	0018      	movs	r0, r3
 8003386:	46bd      	mov	sp, r7
 8003388:	b004      	add	sp, #16
 800338a:	bd80      	pop	{r7, pc}
 800338c:	2000001c 	.word	0x2000001c
 8003390:	00030d40 	.word	0x00030d40

08003394 <__NVIC_EnableIRQ>:
  \details Enables a device specific interrupt in the NVIC interrupt controller.
  \param [in]      IRQn  Device specific interrupt number.
  \note    IRQn must not be negative.
 */
__STATIC_INLINE void __NVIC_EnableIRQ(IRQn_Type IRQn)
{
 8003394:	b580      	push	{r7, lr}
 8003396:	b082      	sub	sp, #8
 8003398:	af00      	add	r7, sp, #0
 800339a:	0002      	movs	r2, r0
 800339c:	1dfb      	adds	r3, r7, #7
 800339e:	701a      	strb	r2, [r3, #0]
  if ((int32_t)(IRQn) >= 0)
 80033a0:	1dfb      	adds	r3, r7, #7
 80033a2:	781b      	ldrb	r3, [r3, #0]
 80033a4:	2b7f      	cmp	r3, #127	@ 0x7f
 80033a6:	d809      	bhi.n	80033bc <__NVIC_EnableIRQ+0x28>
  {
    __COMPILER_BARRIER();
    NVIC->ISER[0U] = (uint32_t)(1UL << (((uint32_t)IRQn) & 0x1FUL));
 80033a8:	1dfb      	adds	r3, r7, #7
 80033aa:	781b      	ldrb	r3, [r3, #0]
 80033ac:	001a      	movs	r2, r3
 80033ae:	231f      	movs	r3, #31
 80033b0:	401a      	ands	r2, r3
 80033b2:	4b04      	ldr	r3, [pc, #16]	@ (80033c4 <__NVIC_EnableIRQ+0x30>)
 80033b4:	2101      	movs	r1, #1
 80033b6:	4091      	lsls	r1, r2
 80033b8:	000a      	movs	r2, r1
 80033ba:	601a      	str	r2, [r3, #0]
    __COMPILER_BARRIER();
  }
}
 80033bc:	46c0      	nop			@ (mov r8, r8)
 80033be:	46bd      	mov	sp, r7
 80033c0:	b002      	add	sp, #8
 80033c2:	bd80      	pop	{r7, pc}
 80033c4:	e000e100 	.word	0xe000e100

080033c8 <__NVIC_SetPriority>:
  \param [in]      IRQn  Interrupt number.
  \param [in]  priority  Priority to set.
  \note    The priority cannot be set for every processor exception.
 */
__STATIC_INLINE void __NVIC_SetPriority(IRQn_Type IRQn, uint32_t priority)
{
 80033c8:	b590      	push	{r4, r7, lr}
 80033ca:	b083      	sub	sp, #12
 80033cc:	af00      	add	r7, sp, #0
 80033ce:	0002      	movs	r2, r0
 80033d0:	6039      	str	r1, [r7, #0]
 80033d2:	1dfb      	adds	r3, r7, #7
 80033d4:	701a      	strb	r2, [r3, #0]
  if ((int32_t)(IRQn) >= 0)
 80033d6:	1dfb      	adds	r3, r7, #7
 80033d8:	781b      	ldrb	r3, [r3, #0]
 80033da:	2b7f      	cmp	r3, #127	@ 0x7f
 80033dc:	d828      	bhi.n	8003430 <__NVIC_SetPriority+0x68>
  {
    NVIC->IP[_IP_IDX(IRQn)]  = ((uint32_t)(NVIC->IP[_IP_IDX(IRQn)]  & ~(0xFFUL << _BIT_SHIFT(IRQn))) |
 80033de:	4a2f      	ldr	r2, [pc, #188]	@ (800349c <__NVIC_SetPriority+0xd4>)
 80033e0:	1dfb      	adds	r3, r7, #7
 80033e2:	781b      	ldrb	r3, [r3, #0]
 80033e4:	b25b      	sxtb	r3, r3
 80033e6:	089b      	lsrs	r3, r3, #2
 80033e8:	33c0      	adds	r3, #192	@ 0xc0
 80033ea:	009b      	lsls	r3, r3, #2
 80033ec:	589b      	ldr	r3, [r3, r2]
 80033ee:	1dfa      	adds	r2, r7, #7
 80033f0:	7812      	ldrb	r2, [r2, #0]
 80033f2:	0011      	movs	r1, r2
 80033f4:	2203      	movs	r2, #3
 80033f6:	400a      	ands	r2, r1
 80033f8:	00d2      	lsls	r2, r2, #3
 80033fa:	21ff      	movs	r1, #255	@ 0xff
 80033fc:	4091      	lsls	r1, r2
 80033fe:	000a      	movs	r2, r1
 8003400:	43d2      	mvns	r2, r2
 8003402:	401a      	ands	r2, r3
 8003404:	0011      	movs	r1, r2
       (((priority << (8U - __NVIC_PRIO_BITS)) & (uint32_t)0xFFUL) << _BIT_SHIFT(IRQn)));
 8003406:	683b      	ldr	r3, [r7, #0]
 8003408:	019b      	lsls	r3, r3, #6
 800340a:	22ff      	movs	r2, #255	@ 0xff
 800340c:	401a      	ands	r2, r3
 800340e:	1dfb      	adds	r3, r7, #7
 8003410:	781b      	ldrb	r3, [r3, #0]
 8003412:	0018      	movs	r0, r3
 8003414:	2303      	movs	r3, #3
 8003416:	4003      	ands	r3, r0
 8003418:	00db      	lsls	r3, r3, #3
 800341a:	409a      	lsls	r2, r3
    NVIC->IP[_IP_IDX(IRQn)]  = ((uint32_t)(NVIC->IP[_IP_IDX(IRQn)]  & ~(0xFFUL << _BIT_SHIFT(IRQn))) |
 800341c:	481f      	ldr	r0, [pc, #124]	@ (800349c <__NVIC_SetPriority+0xd4>)
 800341e:	1dfb      	adds	r3, r7, #7
 8003420:	781b      	ldrb	r3, [r3, #0]
 8003422:	b25b      	sxtb	r3, r3
 8003424:	089b      	lsrs	r3, r3, #2
 8003426:	430a      	orrs	r2, r1
 8003428:	33c0      	adds	r3, #192	@ 0xc0
 800342a:	009b      	lsls	r3, r3, #2
 800342c:	501a      	str	r2, [r3, r0]
  else
  {
    SCB->SHP[_SHP_IDX(IRQn)] = ((uint32_t)(SCB->SHP[_SHP_IDX(IRQn)] & ~(0xFFUL << _BIT_SHIFT(IRQn))) |
       (((priority << (8U - __NVIC_PRIO_BITS)) & (uint32_t)0xFFUL) << _BIT_SHIFT(IRQn)));
  }
}
 800342e:	e031      	b.n	8003494 <__NVIC_SetPriority+0xcc>
    SCB->SHP[_SHP_IDX(IRQn)] = ((uint32_t)(SCB->SHP[_SHP_IDX(IRQn)] & ~(0xFFUL << _BIT_SHIFT(IRQn))) |
 8003430:	4a1b      	ldr	r2, [pc, #108]	@ (80034a0 <__NVIC_SetPriority+0xd8>)
 8003432:	1dfb      	adds	r3, r7, #7
 8003434:	781b      	ldrb	r3, [r3, #0]
 8003436:	0019      	movs	r1, r3
 8003438:	230f      	movs	r3, #15
 800343a:	400b      	ands	r3, r1
 800343c:	3b08      	subs	r3, #8
 800343e:	089b      	lsrs	r3, r3, #2
 8003440:	3306      	adds	r3, #6
 8003442:	009b      	lsls	r3, r3, #2
 8003444:	18d3      	adds	r3, r2, r3
 8003446:	3304      	adds	r3, #4
 8003448:	681b      	ldr	r3, [r3, #0]
 800344a:	1dfa      	adds	r2, r7, #7
 800344c:	7812      	ldrb	r2, [r2, #0]
 800344e:	0011      	movs	r1, r2
 8003450:	2203      	movs	r2, #3
 8003452:	400a      	ands	r2, r1
 8003454:	00d2      	lsls	r2, r2, #3
 8003456:	21ff      	movs	r1, #255	@ 0xff
 8003458:	4091      	lsls	r1, r2
 800345a:	000a      	movs	r2, r1
 800345c:	43d2      	mvns	r2, r2
 800345e:	401a      	ands	r2, r3
 8003460:	0011      	movs	r1, r2
       (((priority << (8U - __NVIC_PRIO_BITS)) & (uint32_t)0xFFUL) << _BIT_SHIFT(IRQn)));
 8003462:	683b      	ldr	r3, [r7, #0]
 8003464:	019b      	lsls	r3, r3, #6
 8003466:	22ff      	movs	r2, #255	@ 0xff
 8003468:	401a      	ands	r2, r3
 800346a:	1dfb      	adds	r3, r7, #7
 800346c:	781b      	ldrb	r3, [r3, #0]
 800346e:	0018      	movs	r0, r3
 8003470:	2303      	movs	r3, #3
 8003472:	4003      	ands	r3, r0
 8003474:	00db      	lsls	r3, r3, #3
 8003476:	409a      	lsls	r2, r3
    SCB->SHP[_SHP_IDX(IRQn)] = ((uint32_t)(SCB->SHP[_SHP_IDX(IRQn)] & ~(0xFFUL << _BIT_SHIFT(IRQn))) |
 8003478:	4809      	ldr	r0, [pc, #36]	@ (80034a0 <__NVIC_SetPriority+0xd8>)
 800347a:	1dfb      	adds	r3, r7, #7
 800347c:	781b      	ldrb	r3, [r3, #0]
 800347e:	001c      	movs	r4, r3
 8003480:	230f      	movs	r3, #15
 8003482:	4023      	ands	r3, r4
 8003484:	3b08      	subs	r3, #8
 8003486:	089b      	lsrs	r3, r3, #2
 8003488:	430a      	orrs	r2, r1
 800348a:	3306      	adds	r3, #6
 800348c:	009b      	lsls	r3, r3, #2
 800348e:	18c3      	adds	r3, r0, r3
 8003490:	3304      	adds	r3, #4
 8003492:	601a      	str	r2, [r3, #0]
}
 8003494:	46c0      	nop			@ (mov r8, r8)
 8003496:	46bd      	mov	sp, r7
 8003498:	b003      	add	sp, #12
 800349a:	bd90      	pop	{r4, r7, pc}
 800349c:	e000e100 	.word	0xe000e100
 80034a0:	e000ed00 	.word	0xe000ed00

080034a4 <SysTick_Config>:
  \note    When the variable <b>__Vendor_SysTickConfig</b> is set to 1, then the
           function <b>SysTick_Config</b> is not included. In this case, the file <b><i>device</i>.h</b>
           must contain a vendor-specific implementation of this function.
 */
__STATIC_INLINE uint32_t SysTick_Config(uint32_t ticks)
{
 80034a4:	b580      	push	{r7, lr}
 80034a6:	b082      	sub	sp, #8
 80034a8:	af00      	add	r7, sp, #0
 80034aa:	6078      	str	r0, [r7, #4]
  if ((ticks - 1UL) > SysTick_LOAD_RELOAD_Msk)
 80034ac:	687b      	ldr	r3, [r7, #4]
 80034ae:	1e5a      	subs	r2, r3, #1
 80034b0:	2380      	movs	r3, #128	@ 0x80
 80034b2:	045b      	lsls	r3, r3, #17
 80034b4:	429a      	cmp	r2, r3
 80034b6:	d301      	bcc.n	80034bc <SysTick_Config+0x18>
  {
    return (1UL);                                                   /* Reload value impossible */
 80034b8:	2301      	movs	r3, #1
 80034ba:	e010      	b.n	80034de <SysTick_Config+0x3a>
  }

  SysTick->LOAD  = (uint32_t)(ticks - 1UL);                         /* set reload register */
 80034bc:	4b0a      	ldr	r3, [pc, #40]	@ (80034e8 <SysTick_Config+0x44>)
 80034be:	687a      	ldr	r2, [r7, #4]
 80034c0:	3a01      	subs	r2, #1
 80034c2:	605a      	str	r2, [r3, #4]
  NVIC_SetPriority (SysTick_IRQn, (1UL << __NVIC_PRIO_BITS) - 1UL); /* set Priority for Systick Interrupt */
 80034c4:	2301      	movs	r3, #1
 80034c6:	425b      	negs	r3, r3
 80034c8:	2103      	movs	r1, #3
 80034ca:	0018      	movs	r0, r3
 80034cc:	f7ff ff7c 	bl	80033c8 <__NVIC_SetPriority>
  SysTick->VAL   = 0UL;                                             /* Load the SysTick Counter Value */
 80034d0:	4b05      	ldr	r3, [pc, #20]	@ (80034e8 <SysTick_Config+0x44>)
 80034d2:	2200      	movs	r2, #0
 80034d4:	609a      	str	r2, [r3, #8]
  SysTick->CTRL  = SysTick_CTRL_CLKSOURCE_Msk |
 80034d6:	4b04      	ldr	r3, [pc, #16]	@ (80034e8 <SysTick_Config+0x44>)
 80034d8:	2207      	movs	r2, #7
 80034da:	601a      	str	r2, [r3, #0]
                   SysTick_CTRL_TICKINT_Msk   |
                   SysTick_CTRL_ENABLE_Msk;                         /* Enable SysTick IRQ and SysTick Timer */
  return (0UL);                                                     /* Function successful */
 80034dc:	2300      	movs	r3, #0
}
 80034de:	0018      	movs	r0, r3
 80034e0:	46bd      	mov	sp, r7
 80034e2:	b002      	add	sp, #8
 80034e4:	bd80      	pop	{r7, pc}
 80034e6:	46c0      	nop			@ (mov r8, r8)
 80034e8:	e000e010 	.word	0xe000e010

080034ec <HAL_NVIC_SetPriority>:
  *         with stm32g0xx devices, this parameter is a dummy value and it is ignored, because
  *         no subpriority supported in Cortex M0+ based products.
  * @retval None
  */
void HAL_NVIC_SetPriority(IRQn_Type IRQn, uint32_t PreemptPriority, uint32_t SubPriority)
{
 80034ec:	b580      	push	{r7, lr}
 80034ee:	b084      	sub	sp, #16
 80034f0:	af00      	add	r7, sp, #0
 80034f2:	60b9      	str	r1, [r7, #8]
 80034f4:	607a      	str	r2, [r7, #4]
 80034f6:	210f      	movs	r1, #15
 80034f8:	187b      	adds	r3, r7, r1
 80034fa:	1c02      	adds	r2, r0, #0
 80034fc:	701a      	strb	r2, [r3, #0]
  /* Prevent unused argument(s) compilation warning */
  UNUSED(SubPriority);

  /* Check the parameters */
  assert_param(IS_NVIC_PREEMPTION_PRIORITY(PreemptPriority));
  NVIC_SetPriority(IRQn, PreemptPriority);
 80034fe:	68ba      	ldr	r2, [r7, #8]
 8003500:	187b      	adds	r3, r7, r1
 8003502:	781b      	ldrb	r3, [r3, #0]
 8003504:	b25b      	sxtb	r3, r3
 8003506:	0011      	movs	r1, r2
 8003508:	0018      	movs	r0, r3
 800350a:	f7ff ff5d 	bl	80033c8 <__NVIC_SetPriority>
}
 800350e:	46c0      	nop			@ (mov r8, r8)
 8003510:	46bd      	mov	sp, r7
 8003512:	b004      	add	sp, #16
 8003514:	bd80      	pop	{r7, pc}

08003516 <HAL_NVIC_EnableIRQ>:
  *         This parameter can be an enumerator of IRQn_Type enumeration
  *         (For the complete STM32 Devices IRQ Channels list, please refer to the appropriate CMSIS device file (stm32g0xxxx.h))
  * @retval None
  */
void HAL_NVIC_EnableIRQ(IRQn_Type IRQn)
{
 8003516:	b580      	push	{r7, lr}
 8003518:	b082      	sub	sp, #8
 800351a:	af00      	add	r7, sp, #0
 800351c:	0002      	movs	r2, r0
 800351e:	1dfb      	adds	r3, r7, #7
 8003520:	701a      	strb	r2, [r3, #0]
  /* Check the parameters */
  assert_param(IS_NVIC_DEVICE_IRQ(IRQn));

  /* Enable interrupt */
  NVIC_EnableIRQ(IRQn);
 8003522:	1dfb      	adds	r3, r7, #7
 8003524:	781b      	ldrb	r3, [r3, #0]
 8003526:	b25b      	sxtb	r3, r3
 8003528:	0018      	movs	r0, r3
 800352a:	f7ff ff33 	bl	8003394 <__NVIC_EnableIRQ>
}
 800352e:	46c0      	nop			@ (mov r8, r8)
 8003530:	46bd      	mov	sp, r7
 8003532:	b002      	add	sp, #8
 8003534:	bd80      	pop	{r7, pc}

08003536 <HAL_SYSTICK_Config>:
  * @param  TicksNumb Specifies the ticks Number of ticks between two interrupts.
  * @retval status:  - 0  Function succeeded.
  *                  - 1  Function failed.
  */
uint32_t HAL_SYSTICK_Config(uint32_t TicksNumb)
{
 8003536:	b580      	push	{r7, lr}
 8003538:	b082      	sub	sp, #8
 800353a:	af00      	add	r7, sp, #0
 800353c:	6078      	str	r0, [r7, #4]
  return SysTick_Config(TicksNumb);
 800353e:	687b      	ldr	r3, [r7, #4]
 8003540:	0018      	movs	r0, r3
 8003542:	f7ff ffaf 	bl	80034a4 <SysTick_Config>
 8003546:	0003      	movs	r3, r0
}
 8003548:	0018      	movs	r0, r3
 800354a:	46bd      	mov	sp, r7
 800354c:	b002      	add	sp, #8
 800354e:	bd80      	pop	{r7, pc}

08003550 <HAL_DAC_Init>:
  * @param  hdac pointer to a DAC_HandleTypeDef structure that contains
  *         the configuration information for the specified DAC.
  * @retval HAL status
  */
HAL_StatusTypeDef HAL_DAC_Init(DAC_HandleTypeDef *hdac)
{
 8003550:	b580      	push	{r7, lr}
 8003552:	b082      	sub	sp, #8
 8003554:	af00      	add	r7, sp, #0
 8003556:	6078      	str	r0, [r7, #4]
  /* Check the DAC peripheral handle */
  if (hdac == NULL)
 8003558:	687b      	ldr	r3, [r7, #4]
 800355a:	2b00      	cmp	r3, #0
 800355c:	d101      	bne.n	8003562 <HAL_DAC_Init+0x12>
  {
    return HAL_ERROR;
 800355e:	2301      	movs	r3, #1
 8003560:	e015      	b.n	800358e <HAL_DAC_Init+0x3e>
  }
  /* Check the parameters */
  assert_param(IS_DAC_ALL_INSTANCE(hdac->Instance));

  if (hdac->State == HAL_DAC_STATE_RESET)
 8003562:	687b      	ldr	r3, [r7, #4]
 8003564:	791b      	ldrb	r3, [r3, #4]
 8003566:	b2db      	uxtb	r3, r3
 8003568:	2b00      	cmp	r3, #0
 800356a:	d106      	bne.n	800357a <HAL_DAC_Init+0x2a>
      hdac->MspInitCallback             = HAL_DAC_MspInit;
    }
#endif /* USE_HAL_DAC_REGISTER_CALLBACKS */

    /* Allocate lock resource and initialize it */
    hdac->Lock = HAL_UNLOCKED;
 800356c:	687b      	ldr	r3, [r7, #4]
 800356e:	2200      	movs	r2, #0
 8003570:	715a      	strb	r2, [r3, #5]
#if (USE_HAL_DAC_REGISTER_CALLBACKS == 1)
    /* Init the low level hardware */
    hdac->MspInitCallback(hdac);
#else
    /* Init the low level hardware */
    HAL_DAC_MspInit(hdac);
 8003572:	687b      	ldr	r3, [r7, #4]
 8003574:	0018      	movs	r0, r3
 8003576:	f7fe f8d5 	bl	8001724 <HAL_DAC_MspInit>
#endif /* USE_HAL_DAC_REGISTER_CALLBACKS */
  }

  /* Initialize the DAC state*/
  hdac->State = HAL_DAC_STATE_BUSY;
 800357a:	687b      	ldr	r3, [r7, #4]
 800357c:	2202      	movs	r2, #2
 800357e:	711a      	strb	r2, [r3, #4]

  /* Set DAC error code to none */
  hdac->ErrorCode = HAL_DAC_ERROR_NONE;
 8003580:	687b      	ldr	r3, [r7, #4]
 8003582:	2200      	movs	r2, #0
 8003584:	611a      	str	r2, [r3, #16]

  /* Initialize the DAC state*/
  hdac->State = HAL_DAC_STATE_READY;
 8003586:	687b      	ldr	r3, [r7, #4]
 8003588:	2201      	movs	r2, #1
 800358a:	711a      	strb	r2, [r3, #4]

  /* Return function status */
  return HAL_OK;
 800358c:	2300      	movs	r3, #0
}
 800358e:	0018      	movs	r0, r3
 8003590:	46bd      	mov	sp, r7
 8003592:	b002      	add	sp, #8
 8003594:	bd80      	pop	{r7, pc}

08003596 <HAL_DAC_Start>:
  *            @arg DAC_CHANNEL_1: DAC Channel1 selected
  *            @arg DAC_CHANNEL_2: DAC Channel2 selected
  * @retval HAL status
  */
HAL_StatusTypeDef HAL_DAC_Start(DAC_HandleTypeDef *hdac, uint32_t Channel)
{
 8003596:	b580      	push	{r7, lr}
 8003598:	b082      	sub	sp, #8
 800359a:	af00      	add	r7, sp, #0
 800359c:	6078      	str	r0, [r7, #4]
 800359e:	6039      	str	r1, [r7, #0]
  /* Check the DAC peripheral handle */
  if (hdac == NULL)
 80035a0:	687b      	ldr	r3, [r7, #4]
 80035a2:	2b00      	cmp	r3, #0
 80035a4:	d101      	bne.n	80035aa <HAL_DAC_Start+0x14>
  {
    return HAL_ERROR;
 80035a6:	2301      	movs	r3, #1
 80035a8:	e047      	b.n	800363a <HAL_DAC_Start+0xa4>

  /* Check the parameters */
  assert_param(IS_DAC_CHANNEL(Channel));

  /* Process locked */
  __HAL_LOCK(hdac);
 80035aa:	687b      	ldr	r3, [r7, #4]
 80035ac:	795b      	ldrb	r3, [r3, #5]
 80035ae:	2b01      	cmp	r3, #1
 80035b0:	d101      	bne.n	80035b6 <HAL_DAC_Start+0x20>
 80035b2:	2302      	movs	r3, #2
 80035b4:	e041      	b.n	800363a <HAL_DAC_Start+0xa4>
 80035b6:	687b      	ldr	r3, [r7, #4]
 80035b8:	2201      	movs	r2, #1
 80035ba:	715a      	strb	r2, [r3, #5]

  /* Change DAC state */
  hdac->State = HAL_DAC_STATE_BUSY;
 80035bc:	687b      	ldr	r3, [r7, #4]
 80035be:	2202      	movs	r2, #2
 80035c0:	711a      	strb	r2, [r3, #4]

  /* Enable the Peripheral */
  __HAL_DAC_ENABLE(hdac, Channel);
 80035c2:	687b      	ldr	r3, [r7, #4]
 80035c4:	681b      	ldr	r3, [r3, #0]
 80035c6:	6819      	ldr	r1, [r3, #0]
 80035c8:	683b      	ldr	r3, [r7, #0]
 80035ca:	2210      	movs	r2, #16
 80035cc:	4013      	ands	r3, r2
 80035ce:	2201      	movs	r2, #1
 80035d0:	409a      	lsls	r2, r3
 80035d2:	687b      	ldr	r3, [r7, #4]
 80035d4:	681b      	ldr	r3, [r3, #0]
 80035d6:	430a      	orrs	r2, r1
 80035d8:	601a      	str	r2, [r3, #0]

  if (Channel == DAC_CHANNEL_1)
 80035da:	683b      	ldr	r3, [r7, #0]
 80035dc:	2b00      	cmp	r3, #0
 80035de:	d10f      	bne.n	8003600 <HAL_DAC_Start+0x6a>
  {
    /* Check if software trigger enabled */
    if ((hdac->Instance->CR & (DAC_CR_TEN1 | DAC_CR_TSEL1)) == DAC_TRIGGER_SOFTWARE)
 80035e0:	687b      	ldr	r3, [r7, #4]
 80035e2:	681b      	ldr	r3, [r3, #0]
 80035e4:	681b      	ldr	r3, [r3, #0]
 80035e6:	223e      	movs	r2, #62	@ 0x3e
 80035e8:	4013      	ands	r3, r2
 80035ea:	2b02      	cmp	r3, #2
 80035ec:	d11e      	bne.n	800362c <HAL_DAC_Start+0x96>
    {
      /* Enable the selected DAC software conversion */
      SET_BIT(hdac->Instance->SWTRIGR, DAC_SWTRIGR_SWTRIG1);
 80035ee:	687b      	ldr	r3, [r7, #4]
 80035f0:	681b      	ldr	r3, [r3, #0]
 80035f2:	685a      	ldr	r2, [r3, #4]
 80035f4:	687b      	ldr	r3, [r7, #4]
 80035f6:	681b      	ldr	r3, [r3, #0]
 80035f8:	2101      	movs	r1, #1
 80035fa:	430a      	orrs	r2, r1
 80035fc:	605a      	str	r2, [r3, #4]
 80035fe:	e015      	b.n	800362c <HAL_DAC_Start+0x96>
  }

  else
  {
    /* Check if software trigger enabled */
    if ((hdac->Instance->CR & (DAC_CR_TEN2 | DAC_CR_TSEL2)) == (DAC_TRIGGER_SOFTWARE << (Channel & 0x10UL)))
 8003600:	687b      	ldr	r3, [r7, #4]
 8003602:	681b      	ldr	r3, [r3, #0]
 8003604:	681a      	ldr	r2, [r3, #0]
 8003606:	23f8      	movs	r3, #248	@ 0xf8
 8003608:	039b      	lsls	r3, r3, #14
 800360a:	401a      	ands	r2, r3
 800360c:	683b      	ldr	r3, [r7, #0]
 800360e:	2110      	movs	r1, #16
 8003610:	400b      	ands	r3, r1
 8003612:	2102      	movs	r1, #2
 8003614:	4099      	lsls	r1, r3
 8003616:	000b      	movs	r3, r1
 8003618:	429a      	cmp	r2, r3
 800361a:	d107      	bne.n	800362c <HAL_DAC_Start+0x96>
    {
      /* Enable the selected DAC software conversion*/
      SET_BIT(hdac->Instance->SWTRIGR, DAC_SWTRIGR_SWTRIG2);
 800361c:	687b      	ldr	r3, [r7, #4]
 800361e:	681b      	ldr	r3, [r3, #0]
 8003620:	685a      	ldr	r2, [r3, #4]
 8003622:	687b      	ldr	r3, [r7, #4]
 8003624:	681b      	ldr	r3, [r3, #0]
 8003626:	2102      	movs	r1, #2
 8003628:	430a      	orrs	r2, r1
 800362a:	605a      	str	r2, [r3, #4]
    }
  }


  /* Change DAC state */
  hdac->State = HAL_DAC_STATE_READY;
 800362c:	687b      	ldr	r3, [r7, #4]
 800362e:	2201      	movs	r2, #1
 8003630:	711a      	strb	r2, [r3, #4]

  /* Process unlocked */
  __HAL_UNLOCK(hdac);
 8003632:	687b      	ldr	r3, [r7, #4]
 8003634:	2200      	movs	r2, #0
 8003636:	715a      	strb	r2, [r3, #5]

  /* Return function status */
  return HAL_OK;
 8003638:	2300      	movs	r3, #0
}
 800363a:	0018      	movs	r0, r3
 800363c:	46bd      	mov	sp, r7
 800363e:	b002      	add	sp, #8
 8003640:	bd80      	pop	{r7, pc}
	...

08003644 <HAL_DAC_IRQHandler>:
  * @param  hdac pointer to a DAC_HandleTypeDef structure that contains
  *         the configuration information for the specified DAC.
  * @retval None
  */
void HAL_DAC_IRQHandler(DAC_HandleTypeDef *hdac)
{
 8003644:	b580      	push	{r7, lr}
 8003646:	b084      	sub	sp, #16
 8003648:	af00      	add	r7, sp, #0
 800364a:	6078      	str	r0, [r7, #4]
  uint32_t itsource = hdac->Instance->CR;
 800364c:	687b      	ldr	r3, [r7, #4]
 800364e:	681b      	ldr	r3, [r3, #0]
 8003650:	681b      	ldr	r3, [r3, #0]
 8003652:	60fb      	str	r3, [r7, #12]
  uint32_t itflag   = hdac->Instance->SR;
 8003654:	687b      	ldr	r3, [r7, #4]
 8003656:	681b      	ldr	r3, [r3, #0]
 8003658:	6b5b      	ldr	r3, [r3, #52]	@ 0x34
 800365a:	60bb      	str	r3, [r7, #8]

  if ((itsource & DAC_IT_DMAUDR1) == DAC_IT_DMAUDR1)
 800365c:	68fa      	ldr	r2, [r7, #12]
 800365e:	2380      	movs	r3, #128	@ 0x80
 8003660:	019b      	lsls	r3, r3, #6
 8003662:	4013      	ands	r3, r2
 8003664:	d01e      	beq.n	80036a4 <HAL_DAC_IRQHandler+0x60>
  {
    /* Check underrun flag of DAC channel 1 */
    if ((itflag & DAC_FLAG_DMAUDR1) == DAC_FLAG_DMAUDR1)
 8003666:	68ba      	ldr	r2, [r7, #8]
 8003668:	2380      	movs	r3, #128	@ 0x80
 800366a:	019b      	lsls	r3, r3, #6
 800366c:	4013      	ands	r3, r2
 800366e:	d019      	beq.n	80036a4 <HAL_DAC_IRQHandler+0x60>
    {
      /* Change DAC state to error state */
      hdac->State = HAL_DAC_STATE_ERROR;
 8003670:	687b      	ldr	r3, [r7, #4]
 8003672:	2204      	movs	r2, #4
 8003674:	711a      	strb	r2, [r3, #4]

      /* Set DAC error code to channel1 DMA underrun error */
      SET_BIT(hdac->ErrorCode, HAL_DAC_ERROR_DMAUNDERRUNCH1);
 8003676:	687b      	ldr	r3, [r7, #4]
 8003678:	691b      	ldr	r3, [r3, #16]
 800367a:	2201      	movs	r2, #1
 800367c:	431a      	orrs	r2, r3
 800367e:	687b      	ldr	r3, [r7, #4]
 8003680:	611a      	str	r2, [r3, #16]

      /* Clear the underrun flag */
      __HAL_DAC_CLEAR_FLAG(hdac, DAC_FLAG_DMAUDR1);
 8003682:	687b      	ldr	r3, [r7, #4]
 8003684:	681b      	ldr	r3, [r3, #0]
 8003686:	2280      	movs	r2, #128	@ 0x80
 8003688:	0192      	lsls	r2, r2, #6
 800368a:	635a      	str	r2, [r3, #52]	@ 0x34

      /* Disable the selected DAC channel1 DMA request */
      __HAL_DAC_DISABLE_IT(hdac, DAC_CR_DMAEN1);
 800368c:	687b      	ldr	r3, [r7, #4]
 800368e:	681b      	ldr	r3, [r3, #0]
 8003690:	681a      	ldr	r2, [r3, #0]
 8003692:	687b      	ldr	r3, [r7, #4]
 8003694:	681b      	ldr	r3, [r3, #0]
 8003696:	4917      	ldr	r1, [pc, #92]	@ (80036f4 <HAL_DAC_IRQHandler+0xb0>)
 8003698:	400a      	ands	r2, r1
 800369a:	601a      	str	r2, [r3, #0]

      /* Error callback */
#if (USE_HAL_DAC_REGISTER_CALLBACKS == 1)
      hdac->DMAUnderrunCallbackCh1(hdac);
#else
      HAL_DAC_DMAUnderrunCallbackCh1(hdac);
 800369c:	687b      	ldr	r3, [r7, #4]
 800369e:	0018      	movs	r0, r3
 80036a0:	f000 f853 	bl	800374a <HAL_DAC_DMAUnderrunCallbackCh1>
#endif /* USE_HAL_DAC_REGISTER_CALLBACKS */
    }
  }


  if ((itsource & DAC_IT_DMAUDR2) == DAC_IT_DMAUDR2)
 80036a4:	68fa      	ldr	r2, [r7, #12]
 80036a6:	2380      	movs	r3, #128	@ 0x80
 80036a8:	059b      	lsls	r3, r3, #22
 80036aa:	4013      	ands	r3, r2
 80036ac:	d01e      	beq.n	80036ec <HAL_DAC_IRQHandler+0xa8>
  {
    /* Check underrun flag of DAC channel 2 */
    if ((itflag & DAC_FLAG_DMAUDR2) == DAC_FLAG_DMAUDR2)
 80036ae:	68ba      	ldr	r2, [r7, #8]
 80036b0:	2380      	movs	r3, #128	@ 0x80
 80036b2:	059b      	lsls	r3, r3, #22
 80036b4:	4013      	ands	r3, r2
 80036b6:	d019      	beq.n	80036ec <HAL_DAC_IRQHandler+0xa8>
    {
      /* Change DAC state to error state */
      hdac->State = HAL_DAC_STATE_ERROR;
 80036b8:	687b      	ldr	r3, [r7, #4]
 80036ba:	2204      	movs	r2, #4
 80036bc:	711a      	strb	r2, [r3, #4]

      /* Set DAC error code to channel2 DMA underrun error */
      SET_BIT(hdac->ErrorCode, HAL_DAC_ERROR_DMAUNDERRUNCH2);
 80036be:	687b      	ldr	r3, [r7, #4]
 80036c0:	691b      	ldr	r3, [r3, #16]
 80036c2:	2202      	movs	r2, #2
 80036c4:	431a      	orrs	r2, r3
 80036c6:	687b      	ldr	r3, [r7, #4]
 80036c8:	611a      	str	r2, [r3, #16]

      /* Clear the underrun flag */
      __HAL_DAC_CLEAR_FLAG(hdac, DAC_FLAG_DMAUDR2);
 80036ca:	687b      	ldr	r3, [r7, #4]
 80036cc:	681b      	ldr	r3, [r3, #0]
 80036ce:	2280      	movs	r2, #128	@ 0x80
 80036d0:	0592      	lsls	r2, r2, #22
 80036d2:	635a      	str	r2, [r3, #52]	@ 0x34

      /* Disable the selected DAC channel2 DMA request */
      __HAL_DAC_DISABLE_IT(hdac, DAC_CR_DMAEN2);
 80036d4:	687b      	ldr	r3, [r7, #4]
 80036d6:	681b      	ldr	r3, [r3, #0]
 80036d8:	681a      	ldr	r2, [r3, #0]
 80036da:	687b      	ldr	r3, [r7, #4]
 80036dc:	681b      	ldr	r3, [r3, #0]
 80036de:	4906      	ldr	r1, [pc, #24]	@ (80036f8 <HAL_DAC_IRQHandler+0xb4>)
 80036e0:	400a      	ands	r2, r1
 80036e2:	601a      	str	r2, [r3, #0]

      /* Error callback */
#if (USE_HAL_DAC_REGISTER_CALLBACKS == 1)
      hdac->DMAUnderrunCallbackCh2(hdac);
#else
      HAL_DACEx_DMAUnderrunCallbackCh2(hdac);
 80036e4:	687b      	ldr	r3, [r7, #4]
 80036e6:	0018      	movs	r0, r3
 80036e8:	f000 f968 	bl	80039bc <HAL_DACEx_DMAUnderrunCallbackCh2>
#endif /* USE_HAL_DAC_REGISTER_CALLBACKS */
    }
  }

}
 80036ec:	46c0      	nop			@ (mov r8, r8)
 80036ee:	46bd      	mov	sp, r7
 80036f0:	b004      	add	sp, #16
 80036f2:	bd80      	pop	{r7, pc}
 80036f4:	ffffefff 	.word	0xffffefff
 80036f8:	efffffff 	.word	0xefffffff

080036fc <HAL_DAC_SetValue>:
  *            @arg DAC_ALIGN_12B_R: 12bit right data alignment selected
  * @param  Data Data to be loaded in the selected data holding register.
  * @retval HAL status
  */
HAL_StatusTypeDef HAL_DAC_SetValue(DAC_HandleTypeDef *hdac, uint32_t Channel, uint32_t Alignment, uint32_t Data)
{
 80036fc:	b580      	push	{r7, lr}
 80036fe:	b086      	sub	sp, #24
 8003700:	af00      	add	r7, sp, #0
 8003702:	60f8      	str	r0, [r7, #12]
 8003704:	60b9      	str	r1, [r7, #8]
 8003706:	607a      	str	r2, [r7, #4]
 8003708:	603b      	str	r3, [r7, #0]
  __IO uint32_t tmp = 0UL;
 800370a:	2300      	movs	r3, #0
 800370c:	617b      	str	r3, [r7, #20]

  /* Check the DAC peripheral handle */
  if (hdac == NULL)
 800370e:	68fb      	ldr	r3, [r7, #12]
 8003710:	2b00      	cmp	r3, #0
 8003712:	d101      	bne.n	8003718 <HAL_DAC_SetValue+0x1c>
  {
    return HAL_ERROR;
 8003714:	2301      	movs	r3, #1
 8003716:	e014      	b.n	8003742 <HAL_DAC_SetValue+0x46>
  /* Check the parameters */
  assert_param(IS_DAC_CHANNEL(Channel));
  assert_param(IS_DAC_ALIGN(Alignment));
  assert_param(IS_DAC_DATA(Data));

  tmp = (uint32_t)hdac->Instance;
 8003718:	68fb      	ldr	r3, [r7, #12]
 800371a:	681b      	ldr	r3, [r3, #0]
 800371c:	617b      	str	r3, [r7, #20]
  if (Channel == DAC_CHANNEL_1)
 800371e:	68bb      	ldr	r3, [r7, #8]
 8003720:	2b00      	cmp	r3, #0
 8003722:	d105      	bne.n	8003730 <HAL_DAC_SetValue+0x34>
  {
    tmp += DAC_DHR12R1_ALIGNMENT(Alignment);
 8003724:	697a      	ldr	r2, [r7, #20]
 8003726:	687b      	ldr	r3, [r7, #4]
 8003728:	18d3      	adds	r3, r2, r3
 800372a:	3308      	adds	r3, #8
 800372c:	617b      	str	r3, [r7, #20]
 800372e:	e004      	b.n	800373a <HAL_DAC_SetValue+0x3e>
  }

  else
  {
    tmp += DAC_DHR12R2_ALIGNMENT(Alignment);
 8003730:	697a      	ldr	r2, [r7, #20]
 8003732:	687b      	ldr	r3, [r7, #4]
 8003734:	18d3      	adds	r3, r2, r3
 8003736:	3314      	adds	r3, #20
 8003738:	617b      	str	r3, [r7, #20]
  }


  /* Set the DAC channel selected data holding register */
  *(__IO uint32_t *) tmp = Data;
 800373a:	697b      	ldr	r3, [r7, #20]
 800373c:	683a      	ldr	r2, [r7, #0]
 800373e:	601a      	str	r2, [r3, #0]

  /* Return function status */
  return HAL_OK;
 8003740:	2300      	movs	r3, #0
}
 8003742:	0018      	movs	r0, r3
 8003744:	46bd      	mov	sp, r7
 8003746:	b006      	add	sp, #24
 8003748:	bd80      	pop	{r7, pc}

0800374a <HAL_DAC_DMAUnderrunCallbackCh1>:
  * @param  hdac pointer to a DAC_HandleTypeDef structure that contains
  *         the configuration information for the specified DAC.
  * @retval None
  */
__weak void HAL_DAC_DMAUnderrunCallbackCh1(DAC_HandleTypeDef *hdac)
{
 800374a:	b580      	push	{r7, lr}
 800374c:	b082      	sub	sp, #8
 800374e:	af00      	add	r7, sp, #0
 8003750:	6078      	str	r0, [r7, #4]
  UNUSED(hdac);

  /* NOTE : This function should not be modified, when the callback is needed,
            the HAL_DAC_DMAUnderrunCallbackCh1 could be implemented in the user file
   */
}
 8003752:	46c0      	nop			@ (mov r8, r8)
 8003754:	46bd      	mov	sp, r7
 8003756:	b002      	add	sp, #8
 8003758:	bd80      	pop	{r7, pc}
	...

0800375c <HAL_DAC_ConfigChannel>:
  *            @arg DAC_CHANNEL_2: DAC Channel2 selected
  * @retval HAL status
  */
HAL_StatusTypeDef HAL_DAC_ConfigChannel(DAC_HandleTypeDef *hdac,
                                        const DAC_ChannelConfTypeDef *sConfig, uint32_t Channel)
{
 800375c:	b580      	push	{r7, lr}
 800375e:	b088      	sub	sp, #32
 8003760:	af00      	add	r7, sp, #0
 8003762:	60f8      	str	r0, [r7, #12]
 8003764:	60b9      	str	r1, [r7, #8]
 8003766:	607a      	str	r2, [r7, #4]
  HAL_StatusTypeDef status = HAL_OK;
 8003768:	231f      	movs	r3, #31
 800376a:	18fb      	adds	r3, r7, r3
 800376c:	2200      	movs	r2, #0
 800376e:	701a      	strb	r2, [r3, #0]
  uint32_t tmpreg1;
  uint32_t tmpreg2;
  uint32_t tickstart;

  /* Check the DAC peripheral handle and channel configuration struct */
  if ((hdac == NULL) || (sConfig == NULL))
 8003770:	68fb      	ldr	r3, [r7, #12]
 8003772:	2b00      	cmp	r3, #0
 8003774:	d002      	beq.n	800377c <HAL_DAC_ConfigChannel+0x20>
 8003776:	68bb      	ldr	r3, [r7, #8]
 8003778:	2b00      	cmp	r3, #0
 800377a:	d101      	bne.n	8003780 <HAL_DAC_ConfigChannel+0x24>
  {
    return HAL_ERROR;
 800377c:	2301      	movs	r3, #1
 800377e:	e115      	b.n	80039ac <HAL_DAC_ConfigChannel+0x250>
    assert_param(IS_DAC_REFRESHTIME(sConfig->DAC_SampleAndHoldConfig.DAC_RefreshTime));
  }
  assert_param(IS_DAC_CHANNEL(Channel));

  /* Process locked */
  __HAL_LOCK(hdac);
 8003780:	68fb      	ldr	r3, [r7, #12]
 8003782:	795b      	ldrb	r3, [r3, #5]
 8003784:	2b01      	cmp	r3, #1
 8003786:	d101      	bne.n	800378c <HAL_DAC_ConfigChannel+0x30>
 8003788:	2302      	movs	r3, #2
 800378a:	e10f      	b.n	80039ac <HAL_DAC_ConfigChannel+0x250>
 800378c:	68fb      	ldr	r3, [r7, #12]
 800378e:	2201      	movs	r2, #1
 8003790:	715a      	strb	r2, [r3, #5]

  /* Change DAC state */
  hdac->State = HAL_DAC_STATE_BUSY;
 8003792:	68fb      	ldr	r3, [r7, #12]
 8003794:	2202      	movs	r2, #2
 8003796:	711a      	strb	r2, [r3, #4]

  /* Sample and hold configuration */
  if (sConfig->DAC_SampleAndHold == DAC_SAMPLEANDHOLD_ENABLE)
 8003798:	68bb      	ldr	r3, [r7, #8]
 800379a:	681b      	ldr	r3, [r3, #0]
 800379c:	2b04      	cmp	r3, #4
 800379e:	d000      	beq.n	80037a2 <HAL_DAC_ConfigChannel+0x46>
 80037a0:	e07a      	b.n	8003898 <HAL_DAC_ConfigChannel+0x13c>
  {
    /* Get timeout */
    tickstart = HAL_GetTick();
 80037a2:	f7fe fb9b 	bl	8001edc <HAL_GetTick>
 80037a6:	0003      	movs	r3, r0
 80037a8:	61bb      	str	r3, [r7, #24]

    if (Channel == DAC_CHANNEL_1)
 80037aa:	687b      	ldr	r3, [r7, #4]
 80037ac:	2b00      	cmp	r3, #0
 80037ae:	d13d      	bne.n	800382c <HAL_DAC_ConfigChannel+0xd0>
    {
      /* SHSR1 can be written when BWST1 is cleared */
      while (((hdac->Instance->SR) & DAC_SR_BWST1) != 0UL)
 80037b0:	e018      	b.n	80037e4 <HAL_DAC_ConfigChannel+0x88>
      {
        /* Check for the Timeout */
        if ((HAL_GetTick() - tickstart) > TIMEOUT_DAC_CALIBCONFIG)
 80037b2:	f7fe fb93 	bl	8001edc <HAL_GetTick>
 80037b6:	0002      	movs	r2, r0
 80037b8:	69bb      	ldr	r3, [r7, #24]
 80037ba:	1ad3      	subs	r3, r2, r3
 80037bc:	2b01      	cmp	r3, #1
 80037be:	d911      	bls.n	80037e4 <HAL_DAC_ConfigChannel+0x88>
        {
          /* New check to avoid false timeout detection in case of preemption */
          if (((hdac->Instance->SR) & DAC_SR_BWST1) != 0UL)
 80037c0:	68fb      	ldr	r3, [r7, #12]
 80037c2:	681b      	ldr	r3, [r3, #0]
 80037c4:	6b5a      	ldr	r2, [r3, #52]	@ 0x34
 80037c6:	2380      	movs	r3, #128	@ 0x80
 80037c8:	021b      	lsls	r3, r3, #8
 80037ca:	4013      	ands	r3, r2
 80037cc:	d00a      	beq.n	80037e4 <HAL_DAC_ConfigChannel+0x88>
          {
            /* Update error code */
            SET_BIT(hdac->ErrorCode, HAL_DAC_ERROR_TIMEOUT);
 80037ce:	68fb      	ldr	r3, [r7, #12]
 80037d0:	691b      	ldr	r3, [r3, #16]
 80037d2:	2208      	movs	r2, #8
 80037d4:	431a      	orrs	r2, r3
 80037d6:	68fb      	ldr	r3, [r7, #12]
 80037d8:	611a      	str	r2, [r3, #16]

            /* Change the DMA state */
            hdac->State = HAL_DAC_STATE_TIMEOUT;
 80037da:	68fb      	ldr	r3, [r7, #12]
 80037dc:	2203      	movs	r2, #3
 80037de:	711a      	strb	r2, [r3, #4]

            return HAL_TIMEOUT;
 80037e0:	2303      	movs	r3, #3
 80037e2:	e0e3      	b.n	80039ac <HAL_DAC_ConfigChannel+0x250>
      while (((hdac->Instance->SR) & DAC_SR_BWST1) != 0UL)
 80037e4:	68fb      	ldr	r3, [r7, #12]
 80037e6:	681b      	ldr	r3, [r3, #0]
 80037e8:	6b5a      	ldr	r2, [r3, #52]	@ 0x34
 80037ea:	2380      	movs	r3, #128	@ 0x80
 80037ec:	021b      	lsls	r3, r3, #8
 80037ee:	4013      	ands	r3, r2
 80037f0:	d1df      	bne.n	80037b2 <HAL_DAC_ConfigChannel+0x56>
          }
        }
      }
      hdac->Instance->SHSR1 = sConfig->DAC_SampleAndHoldConfig.DAC_SampleTime;
 80037f2:	68fb      	ldr	r3, [r7, #12]
 80037f4:	681b      	ldr	r3, [r3, #0]
 80037f6:	68ba      	ldr	r2, [r7, #8]
 80037f8:	6992      	ldr	r2, [r2, #24]
 80037fa:	641a      	str	r2, [r3, #64]	@ 0x40
 80037fc:	e020      	b.n	8003840 <HAL_DAC_ConfigChannel+0xe4>
    {
      /* SHSR2 can be written when BWST2 is cleared */
      while (((hdac->Instance->SR) & DAC_SR_BWST2) != 0UL)
      {
        /* Check for the Timeout */
        if ((HAL_GetTick() - tickstart) > TIMEOUT_DAC_CALIBCONFIG)
 80037fe:	f7fe fb6d 	bl	8001edc <HAL_GetTick>
 8003802:	0002      	movs	r2, r0
 8003804:	69bb      	ldr	r3, [r7, #24]
 8003806:	1ad3      	subs	r3, r2, r3
 8003808:	2b01      	cmp	r3, #1
 800380a:	d90f      	bls.n	800382c <HAL_DAC_ConfigChannel+0xd0>
        {
          /* New check to avoid false timeout detection in case of preemption */
          if (((hdac->Instance->SR) & DAC_SR_BWST2) != 0UL)
 800380c:	68fb      	ldr	r3, [r7, #12]
 800380e:	681b      	ldr	r3, [r3, #0]
 8003810:	6b5b      	ldr	r3, [r3, #52]	@ 0x34
 8003812:	2b00      	cmp	r3, #0
 8003814:	da0a      	bge.n	800382c <HAL_DAC_ConfigChannel+0xd0>
          {
            /* Update error code */
            SET_BIT(hdac->ErrorCode, HAL_DAC_ERROR_TIMEOUT);
 8003816:	68fb      	ldr	r3, [r7, #12]
 8003818:	691b      	ldr	r3, [r3, #16]
 800381a:	2208      	movs	r2, #8
 800381c:	431a      	orrs	r2, r3
 800381e:	68fb      	ldr	r3, [r7, #12]
 8003820:	611a      	str	r2, [r3, #16]

            /* Change the DMA state */
            hdac->State = HAL_DAC_STATE_TIMEOUT;
 8003822:	68fb      	ldr	r3, [r7, #12]
 8003824:	2203      	movs	r2, #3
 8003826:	711a      	strb	r2, [r3, #4]

            return HAL_TIMEOUT;
 8003828:	2303      	movs	r3, #3
 800382a:	e0bf      	b.n	80039ac <HAL_DAC_ConfigChannel+0x250>
      while (((hdac->Instance->SR) & DAC_SR_BWST2) != 0UL)
 800382c:	68fb      	ldr	r3, [r7, #12]
 800382e:	681b      	ldr	r3, [r3, #0]
 8003830:	6b5b      	ldr	r3, [r3, #52]	@ 0x34
 8003832:	2b00      	cmp	r3, #0
 8003834:	dbe3      	blt.n	80037fe <HAL_DAC_ConfigChannel+0xa2>
          }
        }
      }
      hdac->Instance->SHSR2 = sConfig->DAC_SampleAndHoldConfig.DAC_SampleTime;
 8003836:	68fb      	ldr	r3, [r7, #12]
 8003838:	681b      	ldr	r3, [r3, #0]
 800383a:	68ba      	ldr	r2, [r7, #8]
 800383c:	6992      	ldr	r2, [r2, #24]
 800383e:	645a      	str	r2, [r3, #68]	@ 0x44
    }


    /* HoldTime */
    MODIFY_REG(hdac->Instance->SHHR, DAC_SHHR_THOLD1 << (Channel & 0x10UL),
 8003840:	68fb      	ldr	r3, [r7, #12]
 8003842:	681b      	ldr	r3, [r3, #0]
 8003844:	6c9b      	ldr	r3, [r3, #72]	@ 0x48
 8003846:	687a      	ldr	r2, [r7, #4]
 8003848:	2110      	movs	r1, #16
 800384a:	400a      	ands	r2, r1
 800384c:	4959      	ldr	r1, [pc, #356]	@ (80039b4 <HAL_DAC_ConfigChannel+0x258>)
 800384e:	4091      	lsls	r1, r2
 8003850:	000a      	movs	r2, r1
 8003852:	43d2      	mvns	r2, r2
 8003854:	401a      	ands	r2, r3
 8003856:	0011      	movs	r1, r2
 8003858:	68bb      	ldr	r3, [r7, #8]
 800385a:	69da      	ldr	r2, [r3, #28]
 800385c:	687b      	ldr	r3, [r7, #4]
 800385e:	2010      	movs	r0, #16
 8003860:	4003      	ands	r3, r0
 8003862:	409a      	lsls	r2, r3
 8003864:	68fb      	ldr	r3, [r7, #12]
 8003866:	681b      	ldr	r3, [r3, #0]
 8003868:	430a      	orrs	r2, r1
 800386a:	649a      	str	r2, [r3, #72]	@ 0x48
               (sConfig->DAC_SampleAndHoldConfig.DAC_HoldTime) << (Channel & 0x10UL));
    /* RefreshTime */
    MODIFY_REG(hdac->Instance->SHRR, DAC_SHRR_TREFRESH1 << (Channel & 0x10UL),
 800386c:	68fb      	ldr	r3, [r7, #12]
 800386e:	681b      	ldr	r3, [r3, #0]
 8003870:	6cdb      	ldr	r3, [r3, #76]	@ 0x4c
 8003872:	687a      	ldr	r2, [r7, #4]
 8003874:	2110      	movs	r1, #16
 8003876:	400a      	ands	r2, r1
 8003878:	21ff      	movs	r1, #255	@ 0xff
 800387a:	4091      	lsls	r1, r2
 800387c:	000a      	movs	r2, r1
 800387e:	43d2      	mvns	r2, r2
 8003880:	401a      	ands	r2, r3
 8003882:	0011      	movs	r1, r2
 8003884:	68bb      	ldr	r3, [r7, #8]
 8003886:	6a1a      	ldr	r2, [r3, #32]
 8003888:	687b      	ldr	r3, [r7, #4]
 800388a:	2010      	movs	r0, #16
 800388c:	4003      	ands	r3, r0
 800388e:	409a      	lsls	r2, r3
 8003890:	68fb      	ldr	r3, [r7, #12]
 8003892:	681b      	ldr	r3, [r3, #0]
 8003894:	430a      	orrs	r2, r1
 8003896:	64da      	str	r2, [r3, #76]	@ 0x4c
               (sConfig->DAC_SampleAndHoldConfig.DAC_RefreshTime) << (Channel & 0x10UL));
  }

  if (sConfig->DAC_UserTrimming == DAC_TRIMMING_USER)
 8003898:	68bb      	ldr	r3, [r7, #8]
 800389a:	691b      	ldr	r3, [r3, #16]
 800389c:	2b01      	cmp	r3, #1
 800389e:	d11d      	bne.n	80038dc <HAL_DAC_ConfigChannel+0x180>
    /* USER TRIMMING */
  {
    /* Get the DAC CCR value */
    tmpreg1 = hdac->Instance->CCR;
 80038a0:	68fb      	ldr	r3, [r7, #12]
 80038a2:	681b      	ldr	r3, [r3, #0]
 80038a4:	6b9b      	ldr	r3, [r3, #56]	@ 0x38
 80038a6:	617b      	str	r3, [r7, #20]
    /* Clear trimming value */
    tmpreg1 &= ~(((uint32_t)(DAC_CCR_OTRIM1)) << (Channel & 0x10UL));
 80038a8:	687b      	ldr	r3, [r7, #4]
 80038aa:	2210      	movs	r2, #16
 80038ac:	4013      	ands	r3, r2
 80038ae:	221f      	movs	r2, #31
 80038b0:	409a      	lsls	r2, r3
 80038b2:	0013      	movs	r3, r2
 80038b4:	43da      	mvns	r2, r3
 80038b6:	697b      	ldr	r3, [r7, #20]
 80038b8:	4013      	ands	r3, r2
 80038ba:	617b      	str	r3, [r7, #20]
    /* Configure for the selected trimming offset */
    tmpreg2 = sConfig->DAC_TrimmingValue;
 80038bc:	68bb      	ldr	r3, [r7, #8]
 80038be:	695b      	ldr	r3, [r3, #20]
 80038c0:	613b      	str	r3, [r7, #16]
    /* Calculate CCR register value depending on DAC_Channel */
    tmpreg1 |= tmpreg2 << (Channel & 0x10UL);
 80038c2:	687b      	ldr	r3, [r7, #4]
 80038c4:	2210      	movs	r2, #16
 80038c6:	4013      	ands	r3, r2
 80038c8:	693a      	ldr	r2, [r7, #16]
 80038ca:	409a      	lsls	r2, r3
 80038cc:	0013      	movs	r3, r2
 80038ce:	697a      	ldr	r2, [r7, #20]
 80038d0:	4313      	orrs	r3, r2
 80038d2:	617b      	str	r3, [r7, #20]
    /* Write to DAC CCR */
    hdac->Instance->CCR = tmpreg1;
 80038d4:	68fb      	ldr	r3, [r7, #12]
 80038d6:	681b      	ldr	r3, [r3, #0]
 80038d8:	697a      	ldr	r2, [r7, #20]
 80038da:	639a      	str	r2, [r3, #56]	@ 0x38
  }
  /* else factory trimming is used (factory setting are available at reset)*/
  /* SW Nothing has nothing to do */

  /* Get the DAC MCR value */
  tmpreg1 = hdac->Instance->MCR;
 80038dc:	68fb      	ldr	r3, [r7, #12]
 80038de:	681b      	ldr	r3, [r3, #0]
 80038e0:	6bdb      	ldr	r3, [r3, #60]	@ 0x3c
 80038e2:	617b      	str	r3, [r7, #20]
  /* Clear DAC_MCR_MODEx bits */
  tmpreg1 &= ~(((uint32_t)(DAC_MCR_MODE1)) << (Channel & 0x10UL));
 80038e4:	687b      	ldr	r3, [r7, #4]
 80038e6:	2210      	movs	r2, #16
 80038e8:	4013      	ands	r3, r2
 80038ea:	2207      	movs	r2, #7
 80038ec:	409a      	lsls	r2, r3
 80038ee:	0013      	movs	r3, r2
 80038f0:	43da      	mvns	r2, r3
 80038f2:	697b      	ldr	r3, [r7, #20]
 80038f4:	4013      	ands	r3, r2
 80038f6:	617b      	str	r3, [r7, #20]
  /* Configure for the selected DAC channel: mode, buffer output & on chip peripheral connect */
  tmpreg2 = (sConfig->DAC_SampleAndHold | sConfig->DAC_OutputBuffer | sConfig->DAC_ConnectOnChipPeripheral);
 80038f8:	68bb      	ldr	r3, [r7, #8]
 80038fa:	681a      	ldr	r2, [r3, #0]
 80038fc:	68bb      	ldr	r3, [r7, #8]
 80038fe:	689b      	ldr	r3, [r3, #8]
 8003900:	431a      	orrs	r2, r3
 8003902:	68bb      	ldr	r3, [r7, #8]
 8003904:	68db      	ldr	r3, [r3, #12]
 8003906:	4313      	orrs	r3, r2
 8003908:	613b      	str	r3, [r7, #16]
  /* Calculate MCR register value depending on DAC_Channel */
  tmpreg1 |= tmpreg2 << (Channel & 0x10UL);
 800390a:	687b      	ldr	r3, [r7, #4]
 800390c:	2210      	movs	r2, #16
 800390e:	4013      	ands	r3, r2
 8003910:	693a      	ldr	r2, [r7, #16]
 8003912:	409a      	lsls	r2, r3
 8003914:	0013      	movs	r3, r2
 8003916:	697a      	ldr	r2, [r7, #20]
 8003918:	4313      	orrs	r3, r2
 800391a:	617b      	str	r3, [r7, #20]
  /* Write to DAC MCR */
  hdac->Instance->MCR = tmpreg1;
 800391c:	68fb      	ldr	r3, [r7, #12]
 800391e:	681b      	ldr	r3, [r3, #0]
 8003920:	697a      	ldr	r2, [r7, #20]
 8003922:	63da      	str	r2, [r3, #60]	@ 0x3c

  /* DAC in normal operating mode hence clear DAC_CR_CENx bit */
  CLEAR_BIT(hdac->Instance->CR, DAC_CR_CEN1 << (Channel & 0x10UL));
 8003924:	68fb      	ldr	r3, [r7, #12]
 8003926:	681b      	ldr	r3, [r3, #0]
 8003928:	681a      	ldr	r2, [r3, #0]
 800392a:	687b      	ldr	r3, [r7, #4]
 800392c:	2110      	movs	r1, #16
 800392e:	400b      	ands	r3, r1
 8003930:	2180      	movs	r1, #128	@ 0x80
 8003932:	01c9      	lsls	r1, r1, #7
 8003934:	4099      	lsls	r1, r3
 8003936:	000b      	movs	r3, r1
 8003938:	43d9      	mvns	r1, r3
 800393a:	68fb      	ldr	r3, [r7, #12]
 800393c:	681b      	ldr	r3, [r3, #0]
 800393e:	400a      	ands	r2, r1
 8003940:	601a      	str	r2, [r3, #0]

  /* Get the DAC CR value */
  tmpreg1 = hdac->Instance->CR;
 8003942:	68fb      	ldr	r3, [r7, #12]
 8003944:	681b      	ldr	r3, [r3, #0]
 8003946:	681b      	ldr	r3, [r3, #0]
 8003948:	617b      	str	r3, [r7, #20]
  /* Clear TENx, TSELx, WAVEx and MAMPx bits */
  tmpreg1 &= ~(((uint32_t)(DAC_CR_MAMP1 | DAC_CR_WAVE1 | DAC_CR_TSEL1 | DAC_CR_TEN1)) << (Channel & 0x10UL));
 800394a:	687b      	ldr	r3, [r7, #4]
 800394c:	2210      	movs	r2, #16
 800394e:	4013      	ands	r3, r2
 8003950:	4a19      	ldr	r2, [pc, #100]	@ (80039b8 <HAL_DAC_ConfigChannel+0x25c>)
 8003952:	409a      	lsls	r2, r3
 8003954:	0013      	movs	r3, r2
 8003956:	43da      	mvns	r2, r3
 8003958:	697b      	ldr	r3, [r7, #20]
 800395a:	4013      	ands	r3, r2
 800395c:	617b      	str	r3, [r7, #20]
  /* Configure for the selected DAC channel: trigger */
  /* Set TSELx and TENx bits according to DAC_Trigger value */
  tmpreg2 = sConfig->DAC_Trigger;
 800395e:	68bb      	ldr	r3, [r7, #8]
 8003960:	685b      	ldr	r3, [r3, #4]
 8003962:	613b      	str	r3, [r7, #16]
  /* Calculate CR register value depending on DAC_Channel */
  tmpreg1 |= tmpreg2 << (Channel & 0x10UL);
 8003964:	687b      	ldr	r3, [r7, #4]
 8003966:	2210      	movs	r2, #16
 8003968:	4013      	ands	r3, r2
 800396a:	693a      	ldr	r2, [r7, #16]
 800396c:	409a      	lsls	r2, r3
 800396e:	0013      	movs	r3, r2
 8003970:	697a      	ldr	r2, [r7, #20]
 8003972:	4313      	orrs	r3, r2
 8003974:	617b      	str	r3, [r7, #20]
  /* Write to DAC CR */
  hdac->Instance->CR = tmpreg1;
 8003976:	68fb      	ldr	r3, [r7, #12]
 8003978:	681b      	ldr	r3, [r3, #0]
 800397a:	697a      	ldr	r2, [r7, #20]
 800397c:	601a      	str	r2, [r3, #0]
  /* Disable wave generation */
  CLEAR_BIT(hdac->Instance->CR, (DAC_CR_WAVE1 << (Channel & 0x10UL)));
 800397e:	68fb      	ldr	r3, [r7, #12]
 8003980:	681b      	ldr	r3, [r3, #0]
 8003982:	681a      	ldr	r2, [r3, #0]
 8003984:	687b      	ldr	r3, [r7, #4]
 8003986:	2110      	movs	r1, #16
 8003988:	400b      	ands	r3, r1
 800398a:	21c0      	movs	r1, #192	@ 0xc0
 800398c:	4099      	lsls	r1, r3
 800398e:	000b      	movs	r3, r1
 8003990:	43d9      	mvns	r1, r3
 8003992:	68fb      	ldr	r3, [r7, #12]
 8003994:	681b      	ldr	r3, [r3, #0]
 8003996:	400a      	ands	r2, r1
 8003998:	601a      	str	r2, [r3, #0]

  /* Change DAC state */
  hdac->State = HAL_DAC_STATE_READY;
 800399a:	68fb      	ldr	r3, [r7, #12]
 800399c:	2201      	movs	r2, #1
 800399e:	711a      	strb	r2, [r3, #4]

  /* Process unlocked */
  __HAL_UNLOCK(hdac);
 80039a0:	68fb      	ldr	r3, [r7, #12]
 80039a2:	2200      	movs	r2, #0
 80039a4:	715a      	strb	r2, [r3, #5]

  /* Return function status */
  return status;
 80039a6:	231f      	movs	r3, #31
 80039a8:	18fb      	adds	r3, r7, r3
 80039aa:	781b      	ldrb	r3, [r3, #0]
}
 80039ac:	0018      	movs	r0, r3
 80039ae:	46bd      	mov	sp, r7
 80039b0:	b008      	add	sp, #32
 80039b2:	bd80      	pop	{r7, pc}
 80039b4:	000003ff 	.word	0x000003ff
 80039b8:	00000ffe 	.word	0x00000ffe

080039bc <HAL_DACEx_DMAUnderrunCallbackCh2>:
  * @param  hdac pointer to a DAC_HandleTypeDef structure that contains
  *         the configuration information for the specified DAC.
  * @retval None
  */
__weak void HAL_DACEx_DMAUnderrunCallbackCh2(DAC_HandleTypeDef *hdac)
{
 80039bc:	b580      	push	{r7, lr}
 80039be:	b082      	sub	sp, #8
 80039c0:	af00      	add	r7, sp, #0
 80039c2:	6078      	str	r0, [r7, #4]
  UNUSED(hdac);

  /* NOTE : This function should not be modified, when the callback is needed,
            the HAL_DACEx_DMAUnderrunCallbackCh2 could be implemented in the user file
   */
}
 80039c4:	46c0      	nop			@ (mov r8, r8)
 80039c6:	46bd      	mov	sp, r7
 80039c8:	b002      	add	sp, #8
 80039ca:	bd80      	pop	{r7, pc}

080039cc <HAL_DMA_Init>:
  * @param hdma Pointer to a DMA_HandleTypeDef structure that contains
  *             the configuration information for the specified DMA Channel.
  * @retval HAL status
  */
HAL_StatusTypeDef HAL_DMA_Init(DMA_HandleTypeDef *hdma)
{
 80039cc:	b580      	push	{r7, lr}
 80039ce:	b082      	sub	sp, #8
 80039d0:	af00      	add	r7, sp, #0
 80039d2:	6078      	str	r0, [r7, #4]
  /* Check the DMA handle allocation */
  if (hdma == NULL)
 80039d4:	687b      	ldr	r3, [r7, #4]
 80039d6:	2b00      	cmp	r3, #0
 80039d8:	d101      	bne.n	80039de <HAL_DMA_Init+0x12>
  {
    return HAL_ERROR;
 80039da:	2301      	movs	r3, #1
 80039dc:	e077      	b.n	8003ace <HAL_DMA_Init+0x102>
    /* DMA2 */
    hdma->ChannelIndex = (((uint32_t)hdma->Instance - (uint32_t)DMA2_Channel1) / ((uint32_t)DMA2_Channel2 - (uint32_t)DMA2_Channel1)) << 2U;
    hdma->DmaBaseAddress = DMA2;
  }
#else
  hdma->ChannelIndex = (((uint32_t)hdma->Instance - (uint32_t)DMA1_Channel1) / ((uint32_t)DMA1_Channel2 - (uint32_t)DMA1_Channel1)) << 2U;
 80039de:	687b      	ldr	r3, [r7, #4]
 80039e0:	681b      	ldr	r3, [r3, #0]
 80039e2:	4a3d      	ldr	r2, [pc, #244]	@ (8003ad8 <HAL_DMA_Init+0x10c>)
 80039e4:	4694      	mov	ip, r2
 80039e6:	4463      	add	r3, ip
 80039e8:	2114      	movs	r1, #20
 80039ea:	0018      	movs	r0, r3
 80039ec:	f7fc fb8a 	bl	8000104 <__udivsi3>
 80039f0:	0003      	movs	r3, r0
 80039f2:	009a      	lsls	r2, r3, #2
 80039f4:	687b      	ldr	r3, [r7, #4]
 80039f6:	641a      	str	r2, [r3, #64]	@ 0x40
#endif /* DMA2 */

  /* Change DMA peripheral state */
  hdma->State = HAL_DMA_STATE_BUSY;
 80039f8:	687b      	ldr	r3, [r7, #4]
 80039fa:	2225      	movs	r2, #37	@ 0x25
 80039fc:	2102      	movs	r1, #2
 80039fe:	5499      	strb	r1, [r3, r2]

  /* Clear PL, MSIZE, PSIZE, MINC, PINC, CIRC, DIR and MEM2MEM bits */
  CLEAR_BIT(hdma->Instance->CCR, (DMA_CCR_PL    | DMA_CCR_MSIZE  | DMA_CCR_PSIZE  | \
 8003a00:	687b      	ldr	r3, [r7, #4]
 8003a02:	681b      	ldr	r3, [r3, #0]
 8003a04:	681a      	ldr	r2, [r3, #0]
 8003a06:	687b      	ldr	r3, [r7, #4]
 8003a08:	681b      	ldr	r3, [r3, #0]
 8003a0a:	4934      	ldr	r1, [pc, #208]	@ (8003adc <HAL_DMA_Init+0x110>)
 8003a0c:	400a      	ands	r2, r1
 8003a0e:	601a      	str	r2, [r3, #0]
                                  DMA_CCR_MINC  | DMA_CCR_PINC   | DMA_CCR_CIRC   | \
                                  DMA_CCR_DIR   | DMA_CCR_MEM2MEM));

  /* Set the DMA Channel configuration */
  SET_BIT(hdma->Instance->CCR, (hdma->Init.Direction           |                               \
 8003a10:	687b      	ldr	r3, [r7, #4]
 8003a12:	681b      	ldr	r3, [r3, #0]
 8003a14:	6819      	ldr	r1, [r3, #0]
 8003a16:	687b      	ldr	r3, [r7, #4]
 8003a18:	689a      	ldr	r2, [r3, #8]
 8003a1a:	687b      	ldr	r3, [r7, #4]
 8003a1c:	68db      	ldr	r3, [r3, #12]
 8003a1e:	431a      	orrs	r2, r3
 8003a20:	687b      	ldr	r3, [r7, #4]
 8003a22:	691b      	ldr	r3, [r3, #16]
 8003a24:	431a      	orrs	r2, r3
 8003a26:	687b      	ldr	r3, [r7, #4]
 8003a28:	695b      	ldr	r3, [r3, #20]
 8003a2a:	431a      	orrs	r2, r3
 8003a2c:	687b      	ldr	r3, [r7, #4]
 8003a2e:	699b      	ldr	r3, [r3, #24]
 8003a30:	431a      	orrs	r2, r3
 8003a32:	687b      	ldr	r3, [r7, #4]
 8003a34:	69db      	ldr	r3, [r3, #28]
 8003a36:	431a      	orrs	r2, r3
 8003a38:	687b      	ldr	r3, [r7, #4]
 8003a3a:	6a1b      	ldr	r3, [r3, #32]
 8003a3c:	431a      	orrs	r2, r3
 8003a3e:	687b      	ldr	r3, [r7, #4]
 8003a40:	681b      	ldr	r3, [r3, #0]
 8003a42:	430a      	orrs	r2, r1
 8003a44:	601a      	str	r2, [r3, #0]
                                hdma->Init.Mode                | hdma->Init.Priority));

  /* Initialize parameters for DMAMUX channel :
     DMAmuxChannel, DMAmuxChannelStatus and DMAmuxChannelStatusMask
  */
  DMA_CalcDMAMUXChannelBaseAndMask(hdma);
 8003a46:	687b      	ldr	r3, [r7, #4]
 8003a48:	0018      	movs	r0, r3
 8003a4a:	f000 f9c1 	bl	8003dd0 <DMA_CalcDMAMUXChannelBaseAndMask>

  if (hdma->Init.Direction == DMA_MEMORY_TO_MEMORY)
 8003a4e:	687b      	ldr	r3, [r7, #4]
 8003a50:	689a      	ldr	r2, [r3, #8]
 8003a52:	2380      	movs	r3, #128	@ 0x80
 8003a54:	01db      	lsls	r3, r3, #7
 8003a56:	429a      	cmp	r2, r3
 8003a58:	d102      	bne.n	8003a60 <HAL_DMA_Init+0x94>
  {
    /* if memory to memory force the request to 0*/
    hdma->Init.Request = DMA_REQUEST_MEM2MEM;
 8003a5a:	687b      	ldr	r3, [r7, #4]
 8003a5c:	2200      	movs	r2, #0
 8003a5e:	605a      	str	r2, [r3, #4]
  }

  /* Set peripheral request  to DMAMUX channel */
  hdma->DMAmuxChannel->CCR = (hdma->Init.Request & DMAMUX_CxCR_DMAREQ_ID);
 8003a60:	687b      	ldr	r3, [r7, #4]
 8003a62:	685a      	ldr	r2, [r3, #4]
 8003a64:	687b      	ldr	r3, [r7, #4]
 8003a66:	6c5b      	ldr	r3, [r3, #68]	@ 0x44
 8003a68:	213f      	movs	r1, #63	@ 0x3f
 8003a6a:	400a      	ands	r2, r1
 8003a6c:	601a      	str	r2, [r3, #0]

  /* Clear the DMAMUX synchro overrun flag */
  hdma->DMAmuxChannelStatus->CFR = hdma->DMAmuxChannelStatusMask;
 8003a6e:	687b      	ldr	r3, [r7, #4]
 8003a70:	6c9b      	ldr	r3, [r3, #72]	@ 0x48
 8003a72:	687a      	ldr	r2, [r7, #4]
 8003a74:	6cd2      	ldr	r2, [r2, #76]	@ 0x4c
 8003a76:	605a      	str	r2, [r3, #4]

  if (((hdma->Init.Request >  0UL) && (hdma->Init.Request <= DMA_REQUEST_GENERATOR3)))
 8003a78:	687b      	ldr	r3, [r7, #4]
 8003a7a:	685b      	ldr	r3, [r3, #4]
 8003a7c:	2b00      	cmp	r3, #0
 8003a7e:	d011      	beq.n	8003aa4 <HAL_DMA_Init+0xd8>
 8003a80:	687b      	ldr	r3, [r7, #4]
 8003a82:	685b      	ldr	r3, [r3, #4]
 8003a84:	2b04      	cmp	r3, #4
 8003a86:	d80d      	bhi.n	8003aa4 <HAL_DMA_Init+0xd8>
  {
    /* Initialize parameters for DMAMUX request generator :
       DMAmuxRequestGen, DMAmuxRequestGenStatus and DMAmuxRequestGenStatusMask
    */
    DMA_CalcDMAMUXRequestGenBaseAndMask(hdma);
 8003a88:	687b      	ldr	r3, [r7, #4]
 8003a8a:	0018      	movs	r0, r3
 8003a8c:	f000 f9cc 	bl	8003e28 <DMA_CalcDMAMUXRequestGenBaseAndMask>

    /* Reset the DMAMUX request generator register*/
    hdma->DMAmuxRequestGen->RGCR = 0U;
 8003a90:	687b      	ldr	r3, [r7, #4]
 8003a92:	6d1b      	ldr	r3, [r3, #80]	@ 0x50
 8003a94:	2200      	movs	r2, #0
 8003a96:	601a      	str	r2, [r3, #0]

    /* Clear the DMAMUX request generator overrun flag */
    hdma->DMAmuxRequestGenStatus->RGCFR = hdma->DMAmuxRequestGenStatusMask;
 8003a98:	687b      	ldr	r3, [r7, #4]
 8003a9a:	6d5b      	ldr	r3, [r3, #84]	@ 0x54
 8003a9c:	687a      	ldr	r2, [r7, #4]
 8003a9e:	6d92      	ldr	r2, [r2, #88]	@ 0x58
 8003aa0:	605a      	str	r2, [r3, #4]
 8003aa2:	e008      	b.n	8003ab6 <HAL_DMA_Init+0xea>
  }
  else
  {
    hdma->DMAmuxRequestGen = 0U;
 8003aa4:	687b      	ldr	r3, [r7, #4]
 8003aa6:	2200      	movs	r2, #0
 8003aa8:	651a      	str	r2, [r3, #80]	@ 0x50
    hdma->DMAmuxRequestGenStatus = 0U;
 8003aaa:	687b      	ldr	r3, [r7, #4]
 8003aac:	2200      	movs	r2, #0
 8003aae:	655a      	str	r2, [r3, #84]	@ 0x54
    hdma->DMAmuxRequestGenStatusMask = 0U;
 8003ab0:	687b      	ldr	r3, [r7, #4]
 8003ab2:	2200      	movs	r2, #0
 8003ab4:	659a      	str	r2, [r3, #88]	@ 0x58
  }

  /* Initialize the error code */
  hdma->ErrorCode = HAL_DMA_ERROR_NONE;
 8003ab6:	687b      	ldr	r3, [r7, #4]
 8003ab8:	2200      	movs	r2, #0
 8003aba:	63da      	str	r2, [r3, #60]	@ 0x3c

  /* Initialize the DMA state*/
  hdma->State = HAL_DMA_STATE_READY;
 8003abc:	687b      	ldr	r3, [r7, #4]
 8003abe:	2225      	movs	r2, #37	@ 0x25
 8003ac0:	2101      	movs	r1, #1
 8003ac2:	5499      	strb	r1, [r3, r2]

  /* Release Lock */
  __HAL_UNLOCK(hdma);
 8003ac4:	687b      	ldr	r3, [r7, #4]
 8003ac6:	2224      	movs	r2, #36	@ 0x24
 8003ac8:	2100      	movs	r1, #0
 8003aca:	5499      	strb	r1, [r3, r2]

  return HAL_OK;
 8003acc:	2300      	movs	r3, #0
}
 8003ace:	0018      	movs	r0, r3
 8003ad0:	46bd      	mov	sp, r7
 8003ad2:	b002      	add	sp, #8
 8003ad4:	bd80      	pop	{r7, pc}
 8003ad6:	46c0      	nop			@ (mov r8, r8)
 8003ad8:	bffdfff8 	.word	0xbffdfff8
 8003adc:	ffff800f 	.word	0xffff800f

08003ae0 <HAL_DMA_Start_IT>:
  * @param DataLength The length of data to be transferred from source to destination
  * @retval HAL status
  */
HAL_StatusTypeDef HAL_DMA_Start_IT(DMA_HandleTypeDef *hdma, uint32_t SrcAddress, uint32_t DstAddress,
                                   uint32_t DataLength)
{
 8003ae0:	b580      	push	{r7, lr}
 8003ae2:	b086      	sub	sp, #24
 8003ae4:	af00      	add	r7, sp, #0
 8003ae6:	60f8      	str	r0, [r7, #12]
 8003ae8:	60b9      	str	r1, [r7, #8]
 8003aea:	607a      	str	r2, [r7, #4]
 8003aec:	603b      	str	r3, [r7, #0]
  HAL_StatusTypeDef status = HAL_OK;
 8003aee:	2317      	movs	r3, #23
 8003af0:	18fb      	adds	r3, r7, r3
 8003af2:	2200      	movs	r2, #0
 8003af4:	701a      	strb	r2, [r3, #0]

  /* Check the parameters */
  assert_param(IS_DMA_BUFFER_SIZE(DataLength));

  /* Process locked */
  __HAL_LOCK(hdma);
 8003af6:	68fb      	ldr	r3, [r7, #12]
 8003af8:	2224      	movs	r2, #36	@ 0x24
 8003afa:	5c9b      	ldrb	r3, [r3, r2]
 8003afc:	2b01      	cmp	r3, #1
 8003afe:	d101      	bne.n	8003b04 <HAL_DMA_Start_IT+0x24>
 8003b00:	2302      	movs	r3, #2
 8003b02:	e06f      	b.n	8003be4 <HAL_DMA_Start_IT+0x104>
 8003b04:	68fb      	ldr	r3, [r7, #12]
 8003b06:	2224      	movs	r2, #36	@ 0x24
 8003b08:	2101      	movs	r1, #1
 8003b0a:	5499      	strb	r1, [r3, r2]

  if (hdma->State == HAL_DMA_STATE_READY)
 8003b0c:	68fb      	ldr	r3, [r7, #12]
 8003b0e:	2225      	movs	r2, #37	@ 0x25
 8003b10:	5c9b      	ldrb	r3, [r3, r2]
 8003b12:	b2db      	uxtb	r3, r3
 8003b14:	2b01      	cmp	r3, #1
 8003b16:	d157      	bne.n	8003bc8 <HAL_DMA_Start_IT+0xe8>
  {
    /* Change DMA peripheral state */
    hdma->State = HAL_DMA_STATE_BUSY;
 8003b18:	68fb      	ldr	r3, [r7, #12]
 8003b1a:	2225      	movs	r2, #37	@ 0x25
 8003b1c:	2102      	movs	r1, #2
 8003b1e:	5499      	strb	r1, [r3, r2]
    hdma->ErrorCode = HAL_DMA_ERROR_NONE;
 8003b20:	68fb      	ldr	r3, [r7, #12]
 8003b22:	2200      	movs	r2, #0
 8003b24:	63da      	str	r2, [r3, #60]	@ 0x3c

    /* Disable the peripheral */
    __HAL_DMA_DISABLE(hdma);
 8003b26:	68fb      	ldr	r3, [r7, #12]
 8003b28:	681b      	ldr	r3, [r3, #0]
 8003b2a:	681a      	ldr	r2, [r3, #0]
 8003b2c:	68fb      	ldr	r3, [r7, #12]
 8003b2e:	681b      	ldr	r3, [r3, #0]
 8003b30:	2101      	movs	r1, #1
 8003b32:	438a      	bics	r2, r1
 8003b34:	601a      	str	r2, [r3, #0]

    /* Configure the source, destination address and the data length & clear flags*/
    DMA_SetConfig(hdma, SrcAddress, DstAddress, DataLength);
 8003b36:	683b      	ldr	r3, [r7, #0]
 8003b38:	687a      	ldr	r2, [r7, #4]
 8003b3a:	68b9      	ldr	r1, [r7, #8]
 8003b3c:	68f8      	ldr	r0, [r7, #12]
 8003b3e:	f000 f907 	bl	8003d50 <DMA_SetConfig>

    /* Enable the transfer complete interrupt */
    /* Enable the transfer Error interrupt */
    if (NULL != hdma->XferHalfCpltCallback)
 8003b42:	68fb      	ldr	r3, [r7, #12]
 8003b44:	6b1b      	ldr	r3, [r3, #48]	@ 0x30
 8003b46:	2b00      	cmp	r3, #0
 8003b48:	d008      	beq.n	8003b5c <HAL_DMA_Start_IT+0x7c>
    {
      /* Enable the Half transfer complete interrupt as well */
      __HAL_DMA_ENABLE_IT(hdma, (DMA_IT_TC | DMA_IT_HT | DMA_IT_TE));
 8003b4a:	68fb      	ldr	r3, [r7, #12]
 8003b4c:	681b      	ldr	r3, [r3, #0]
 8003b4e:	681a      	ldr	r2, [r3, #0]
 8003b50:	68fb      	ldr	r3, [r7, #12]
 8003b52:	681b      	ldr	r3, [r3, #0]
 8003b54:	210e      	movs	r1, #14
 8003b56:	430a      	orrs	r2, r1
 8003b58:	601a      	str	r2, [r3, #0]
 8003b5a:	e00f      	b.n	8003b7c <HAL_DMA_Start_IT+0x9c>
    }
    else
    {
      __HAL_DMA_DISABLE_IT(hdma, DMA_IT_HT);
 8003b5c:	68fb      	ldr	r3, [r7, #12]
 8003b5e:	681b      	ldr	r3, [r3, #0]
 8003b60:	681a      	ldr	r2, [r3, #0]
 8003b62:	68fb      	ldr	r3, [r7, #12]
 8003b64:	681b      	ldr	r3, [r3, #0]
 8003b66:	2104      	movs	r1, #4
 8003b68:	438a      	bics	r2, r1
 8003b6a:	601a      	str	r2, [r3, #0]
      __HAL_DMA_ENABLE_IT(hdma, (DMA_IT_TC | DMA_IT_TE));
 8003b6c:	68fb      	ldr	r3, [r7, #12]
 8003b6e:	681b      	ldr	r3, [r3, #0]
 8003b70:	681a      	ldr	r2, [r3, #0]
 8003b72:	68fb      	ldr	r3, [r7, #12]
 8003b74:	681b      	ldr	r3, [r3, #0]
 8003b76:	210a      	movs	r1, #10
 8003b78:	430a      	orrs	r2, r1
 8003b7a:	601a      	str	r2, [r3, #0]
    }

    /* Check if DMAMUX Synchronization is enabled*/
    if ((hdma->DMAmuxChannel->CCR & DMAMUX_CxCR_SE) != 0U)
 8003b7c:	68fb      	ldr	r3, [r7, #12]
 8003b7e:	6c5b      	ldr	r3, [r3, #68]	@ 0x44
 8003b80:	681a      	ldr	r2, [r3, #0]
 8003b82:	2380      	movs	r3, #128	@ 0x80
 8003b84:	025b      	lsls	r3, r3, #9
 8003b86:	4013      	ands	r3, r2
 8003b88:	d008      	beq.n	8003b9c <HAL_DMA_Start_IT+0xbc>
    {
      /* Enable DMAMUX sync overrun IT*/
      hdma->DMAmuxChannel->CCR |= DMAMUX_CxCR_SOIE;
 8003b8a:	68fb      	ldr	r3, [r7, #12]
 8003b8c:	6c5b      	ldr	r3, [r3, #68]	@ 0x44
 8003b8e:	681a      	ldr	r2, [r3, #0]
 8003b90:	68fb      	ldr	r3, [r7, #12]
 8003b92:	6c5b      	ldr	r3, [r3, #68]	@ 0x44
 8003b94:	2180      	movs	r1, #128	@ 0x80
 8003b96:	0049      	lsls	r1, r1, #1
 8003b98:	430a      	orrs	r2, r1
 8003b9a:	601a      	str	r2, [r3, #0]
    }

    if (hdma->DMAmuxRequestGen != 0U)
 8003b9c:	68fb      	ldr	r3, [r7, #12]
 8003b9e:	6d1b      	ldr	r3, [r3, #80]	@ 0x50
 8003ba0:	2b00      	cmp	r3, #0
 8003ba2:	d008      	beq.n	8003bb6 <HAL_DMA_Start_IT+0xd6>
    {
      /* if using DMAMUX request generator, enable the DMAMUX request generator overrun IT*/
      /* enable the request gen overrun IT*/
      hdma->DMAmuxRequestGen->RGCR |= DMAMUX_RGxCR_OIE;
 8003ba4:	68fb      	ldr	r3, [r7, #12]
 8003ba6:	6d1b      	ldr	r3, [r3, #80]	@ 0x50
 8003ba8:	681a      	ldr	r2, [r3, #0]
 8003baa:	68fb      	ldr	r3, [r7, #12]
 8003bac:	6d1b      	ldr	r3, [r3, #80]	@ 0x50
 8003bae:	2180      	movs	r1, #128	@ 0x80
 8003bb0:	0049      	lsls	r1, r1, #1
 8003bb2:	430a      	orrs	r2, r1
 8003bb4:	601a      	str	r2, [r3, #0]
    }

    /* Enable the Peripheral */
    __HAL_DMA_ENABLE(hdma);
 8003bb6:	68fb      	ldr	r3, [r7, #12]
 8003bb8:	681b      	ldr	r3, [r3, #0]
 8003bba:	681a      	ldr	r2, [r3, #0]
 8003bbc:	68fb      	ldr	r3, [r7, #12]
 8003bbe:	681b      	ldr	r3, [r3, #0]
 8003bc0:	2101      	movs	r1, #1
 8003bc2:	430a      	orrs	r2, r1
 8003bc4:	601a      	str	r2, [r3, #0]
 8003bc6:	e00a      	b.n	8003bde <HAL_DMA_Start_IT+0xfe>
  }
  else
  {
    /* Change the error code */
    hdma->ErrorCode = HAL_DMA_ERROR_BUSY;
 8003bc8:	68fb      	ldr	r3, [r7, #12]
 8003bca:	2280      	movs	r2, #128	@ 0x80
 8003bcc:	63da      	str	r2, [r3, #60]	@ 0x3c

    /* Process Unlocked */
    __HAL_UNLOCK(hdma);
 8003bce:	68fb      	ldr	r3, [r7, #12]
 8003bd0:	2224      	movs	r2, #36	@ 0x24
 8003bd2:	2100      	movs	r1, #0
 8003bd4:	5499      	strb	r1, [r3, r2]

    /* Return error status */
    status = HAL_ERROR;
 8003bd6:	2317      	movs	r3, #23
 8003bd8:	18fb      	adds	r3, r7, r3
 8003bda:	2201      	movs	r2, #1
 8003bdc:	701a      	strb	r2, [r3, #0]
  }

  return status;
 8003bde:	2317      	movs	r3, #23
 8003be0:	18fb      	adds	r3, r7, r3
 8003be2:	781b      	ldrb	r3, [r3, #0]
}
 8003be4:	0018      	movs	r0, r3
 8003be6:	46bd      	mov	sp, r7
 8003be8:	b006      	add	sp, #24
 8003bea:	bd80      	pop	{r7, pc}

08003bec <HAL_DMA_IRQHandler>:
  * @param hdma Pointer to a DMA_HandleTypeDef structure that contains
  *             the configuration information for the specified DMA Channel.
  * @retval None
  */
void HAL_DMA_IRQHandler(DMA_HandleTypeDef *hdma)
{
 8003bec:	b580      	push	{r7, lr}
 8003bee:	b084      	sub	sp, #16
 8003bf0:	af00      	add	r7, sp, #0
 8003bf2:	6078      	str	r0, [r7, #4]
#if defined(DMA2)
  uint32_t flag_it = hdma->DmaBaseAddress->ISR;
#else
  uint32_t flag_it = DMA1->ISR;
 8003bf4:	4b55      	ldr	r3, [pc, #340]	@ (8003d4c <HAL_DMA_IRQHandler+0x160>)
 8003bf6:	681b      	ldr	r3, [r3, #0]
 8003bf8:	60fb      	str	r3, [r7, #12]
#endif /* DMA2 */
  uint32_t source_it = hdma->Instance->CCR;
 8003bfa:	687b      	ldr	r3, [r7, #4]
 8003bfc:	681b      	ldr	r3, [r3, #0]
 8003bfe:	681b      	ldr	r3, [r3, #0]
 8003c00:	60bb      	str	r3, [r7, #8]

  /* Half Transfer Complete Interrupt management ******************************/
  if (((flag_it & (DMA_FLAG_HT1 << (hdma->ChannelIndex & 0x1CU))) != 0U) && ((source_it & DMA_IT_HT) != 0U))
 8003c02:	687b      	ldr	r3, [r7, #4]
 8003c04:	6c1b      	ldr	r3, [r3, #64]	@ 0x40
 8003c06:	221c      	movs	r2, #28
 8003c08:	4013      	ands	r3, r2
 8003c0a:	2204      	movs	r2, #4
 8003c0c:	409a      	lsls	r2, r3
 8003c0e:	0013      	movs	r3, r2
 8003c10:	68fa      	ldr	r2, [r7, #12]
 8003c12:	4013      	ands	r3, r2
 8003c14:	d027      	beq.n	8003c66 <HAL_DMA_IRQHandler+0x7a>
 8003c16:	68bb      	ldr	r3, [r7, #8]
 8003c18:	2204      	movs	r2, #4
 8003c1a:	4013      	ands	r3, r2
 8003c1c:	d023      	beq.n	8003c66 <HAL_DMA_IRQHandler+0x7a>
  {
      /* Disable the half transfer interrupt if the DMA mode is not CIRCULAR */
      if ((hdma->Instance->CCR & DMA_CCR_CIRC) == 0U)
 8003c1e:	687b      	ldr	r3, [r7, #4]
 8003c20:	681b      	ldr	r3, [r3, #0]
 8003c22:	681b      	ldr	r3, [r3, #0]
 8003c24:	2220      	movs	r2, #32
 8003c26:	4013      	ands	r3, r2
 8003c28:	d107      	bne.n	8003c3a <HAL_DMA_IRQHandler+0x4e>
      {
        /* Disable the half transfer interrupt */
        __HAL_DMA_DISABLE_IT(hdma, DMA_IT_HT);
 8003c2a:	687b      	ldr	r3, [r7, #4]
 8003c2c:	681b      	ldr	r3, [r3, #0]
 8003c2e:	681a      	ldr	r2, [r3, #0]
 8003c30:	687b      	ldr	r3, [r7, #4]
 8003c32:	681b      	ldr	r3, [r3, #0]
 8003c34:	2104      	movs	r1, #4
 8003c36:	438a      	bics	r2, r1
 8003c38:	601a      	str	r2, [r3, #0]
      }
      /* Clear the half transfer complete flag */
#if defined(DMA2)
      hdma->DmaBaseAddress->IFCR = DMA_ISR_HTIF1 << (hdma->ChannelIndex & 0x1CU);
#else
      __HAL_DMA_CLEAR_FLAG(hdma, (DMA_FLAG_HT1 << (hdma->ChannelIndex & 0x1CU)));
 8003c3a:	4b44      	ldr	r3, [pc, #272]	@ (8003d4c <HAL_DMA_IRQHandler+0x160>)
 8003c3c:	6859      	ldr	r1, [r3, #4]
 8003c3e:	687b      	ldr	r3, [r7, #4]
 8003c40:	6c1b      	ldr	r3, [r3, #64]	@ 0x40
 8003c42:	221c      	movs	r2, #28
 8003c44:	4013      	ands	r3, r2
 8003c46:	2204      	movs	r2, #4
 8003c48:	409a      	lsls	r2, r3
 8003c4a:	4b40      	ldr	r3, [pc, #256]	@ (8003d4c <HAL_DMA_IRQHandler+0x160>)
 8003c4c:	430a      	orrs	r2, r1
 8003c4e:	605a      	str	r2, [r3, #4]
#endif /* DMA2 */

      /* DMA peripheral state is not updated in Half Transfer */
      /* but in Transfer Complete case */

      if (hdma->XferHalfCpltCallback != NULL)
 8003c50:	687b      	ldr	r3, [r7, #4]
 8003c52:	6b1b      	ldr	r3, [r3, #48]	@ 0x30
 8003c54:	2b00      	cmp	r3, #0
 8003c56:	d100      	bne.n	8003c5a <HAL_DMA_IRQHandler+0x6e>
 8003c58:	e073      	b.n	8003d42 <HAL_DMA_IRQHandler+0x156>
      {
        /* Half transfer callback */
        hdma->XferHalfCpltCallback(hdma);
 8003c5a:	687b      	ldr	r3, [r7, #4]
 8003c5c:	6b1b      	ldr	r3, [r3, #48]	@ 0x30
 8003c5e:	687a      	ldr	r2, [r7, #4]
 8003c60:	0010      	movs	r0, r2
 8003c62:	4798      	blx	r3
      if (hdma->XferHalfCpltCallback != NULL)
 8003c64:	e06d      	b.n	8003d42 <HAL_DMA_IRQHandler+0x156>
      }
  }

  /* Transfer Complete Interrupt management ***********************************/
  else if ((0U != (flag_it & (DMA_FLAG_TC1 << (hdma->ChannelIndex & 0x1CU)))) && (0U != (source_it & DMA_IT_TC)))
 8003c66:	687b      	ldr	r3, [r7, #4]
 8003c68:	6c1b      	ldr	r3, [r3, #64]	@ 0x40
 8003c6a:	221c      	movs	r2, #28
 8003c6c:	4013      	ands	r3, r2
 8003c6e:	2202      	movs	r2, #2
 8003c70:	409a      	lsls	r2, r3
 8003c72:	0013      	movs	r3, r2
 8003c74:	68fa      	ldr	r2, [r7, #12]
 8003c76:	4013      	ands	r3, r2
 8003c78:	d02e      	beq.n	8003cd8 <HAL_DMA_IRQHandler+0xec>
 8003c7a:	68bb      	ldr	r3, [r7, #8]
 8003c7c:	2202      	movs	r2, #2
 8003c7e:	4013      	ands	r3, r2
 8003c80:	d02a      	beq.n	8003cd8 <HAL_DMA_IRQHandler+0xec>
  {
      if ((hdma->Instance->CCR & DMA_CCR_CIRC) == 0U)
 8003c82:	687b      	ldr	r3, [r7, #4]
 8003c84:	681b      	ldr	r3, [r3, #0]
 8003c86:	681b      	ldr	r3, [r3, #0]
 8003c88:	2220      	movs	r2, #32
 8003c8a:	4013      	ands	r3, r2
 8003c8c:	d10b      	bne.n	8003ca6 <HAL_DMA_IRQHandler+0xba>
      {
        /* Disable the transfer complete and error interrupt */
        __HAL_DMA_DISABLE_IT(hdma, DMA_IT_TE | DMA_IT_TC);
 8003c8e:	687b      	ldr	r3, [r7, #4]
 8003c90:	681b      	ldr	r3, [r3, #0]
 8003c92:	681a      	ldr	r2, [r3, #0]
 8003c94:	687b      	ldr	r3, [r7, #4]
 8003c96:	681b      	ldr	r3, [r3, #0]
 8003c98:	210a      	movs	r1, #10
 8003c9a:	438a      	bics	r2, r1
 8003c9c:	601a      	str	r2, [r3, #0]

        /* Change the DMA state */
        hdma->State = HAL_DMA_STATE_READY;
 8003c9e:	687b      	ldr	r3, [r7, #4]
 8003ca0:	2225      	movs	r2, #37	@ 0x25
 8003ca2:	2101      	movs	r1, #1
 8003ca4:	5499      	strb	r1, [r3, r2]
      }
      /* Clear the transfer complete flag */
      __HAL_DMA_CLEAR_FLAG(hdma, (DMA_FLAG_TC1 << (hdma->ChannelIndex & 0x1CU)));
 8003ca6:	4b29      	ldr	r3, [pc, #164]	@ (8003d4c <HAL_DMA_IRQHandler+0x160>)
 8003ca8:	6859      	ldr	r1, [r3, #4]
 8003caa:	687b      	ldr	r3, [r7, #4]
 8003cac:	6c1b      	ldr	r3, [r3, #64]	@ 0x40
 8003cae:	221c      	movs	r2, #28
 8003cb0:	4013      	ands	r3, r2
 8003cb2:	2202      	movs	r2, #2
 8003cb4:	409a      	lsls	r2, r3
 8003cb6:	4b25      	ldr	r3, [pc, #148]	@ (8003d4c <HAL_DMA_IRQHandler+0x160>)
 8003cb8:	430a      	orrs	r2, r1
 8003cba:	605a      	str	r2, [r3, #4]

      /* Process Unlocked */
      __HAL_UNLOCK(hdma);
 8003cbc:	687b      	ldr	r3, [r7, #4]
 8003cbe:	2224      	movs	r2, #36	@ 0x24
 8003cc0:	2100      	movs	r1, #0
 8003cc2:	5499      	strb	r1, [r3, r2]

      if (hdma->XferCpltCallback != NULL)
 8003cc4:	687b      	ldr	r3, [r7, #4]
 8003cc6:	6adb      	ldr	r3, [r3, #44]	@ 0x2c
 8003cc8:	2b00      	cmp	r3, #0
 8003cca:	d03a      	beq.n	8003d42 <HAL_DMA_IRQHandler+0x156>
      {
        /* Transfer complete callback */
        hdma->XferCpltCallback(hdma);
 8003ccc:	687b      	ldr	r3, [r7, #4]
 8003cce:	6adb      	ldr	r3, [r3, #44]	@ 0x2c
 8003cd0:	687a      	ldr	r2, [r7, #4]
 8003cd2:	0010      	movs	r0, r2
 8003cd4:	4798      	blx	r3
      if (hdma->XferCpltCallback != NULL)
 8003cd6:	e034      	b.n	8003d42 <HAL_DMA_IRQHandler+0x156>
      }
  }

  /* Transfer Error Interrupt management **************************************/
  else if (((flag_it & (DMA_FLAG_TE1 << (hdma->ChannelIndex & 0x1CU))) != 0U) && ((source_it & DMA_IT_TE) != 0U))
 8003cd8:	687b      	ldr	r3, [r7, #4]
 8003cda:	6c1b      	ldr	r3, [r3, #64]	@ 0x40
 8003cdc:	221c      	movs	r2, #28
 8003cde:	4013      	ands	r3, r2
 8003ce0:	2208      	movs	r2, #8
 8003ce2:	409a      	lsls	r2, r3
 8003ce4:	0013      	movs	r3, r2
 8003ce6:	68fa      	ldr	r2, [r7, #12]
 8003ce8:	4013      	ands	r3, r2
 8003cea:	d02b      	beq.n	8003d44 <HAL_DMA_IRQHandler+0x158>
 8003cec:	68bb      	ldr	r3, [r7, #8]
 8003cee:	2208      	movs	r2, #8
 8003cf0:	4013      	ands	r3, r2
 8003cf2:	d027      	beq.n	8003d44 <HAL_DMA_IRQHandler+0x158>
  {
    /* When a DMA transfer error occurs */
    /* A hardware clear of its EN bits is performed */
    /* Disable ALL DMA IT */
    __HAL_DMA_DISABLE_IT(hdma, (DMA_IT_TC | DMA_IT_HT | DMA_IT_TE));
 8003cf4:	687b      	ldr	r3, [r7, #4]
 8003cf6:	681b      	ldr	r3, [r3, #0]
 8003cf8:	681a      	ldr	r2, [r3, #0]
 8003cfa:	687b      	ldr	r3, [r7, #4]
 8003cfc:	681b      	ldr	r3, [r3, #0]
 8003cfe:	210e      	movs	r1, #14
 8003d00:	438a      	bics	r2, r1
 8003d02:	601a      	str	r2, [r3, #0]

    /* Clear all flags */
#if defined(DMA2)
    hdma->DmaBaseAddress->IFCR = (DMA_ISR_GIF1 << (hdma->ChannelIndex & 0x1CU));
#else
    __HAL_DMA_CLEAR_FLAG(hdma, (DMA_FLAG_GI1 << (hdma->ChannelIndex & 0x1CU)));
 8003d04:	4b11      	ldr	r3, [pc, #68]	@ (8003d4c <HAL_DMA_IRQHandler+0x160>)
 8003d06:	6859      	ldr	r1, [r3, #4]
 8003d08:	687b      	ldr	r3, [r7, #4]
 8003d0a:	6c1b      	ldr	r3, [r3, #64]	@ 0x40
 8003d0c:	221c      	movs	r2, #28
 8003d0e:	4013      	ands	r3, r2
 8003d10:	2201      	movs	r2, #1
 8003d12:	409a      	lsls	r2, r3
 8003d14:	4b0d      	ldr	r3, [pc, #52]	@ (8003d4c <HAL_DMA_IRQHandler+0x160>)
 8003d16:	430a      	orrs	r2, r1
 8003d18:	605a      	str	r2, [r3, #4]
#endif /* DMA2 */

    /* Update error code */
    hdma->ErrorCode = HAL_DMA_ERROR_TE;
 8003d1a:	687b      	ldr	r3, [r7, #4]
 8003d1c:	2201      	movs	r2, #1
 8003d1e:	63da      	str	r2, [r3, #60]	@ 0x3c

    /* Change the DMA state */
    hdma->State = HAL_DMA_STATE_READY;
 8003d20:	687b      	ldr	r3, [r7, #4]
 8003d22:	2225      	movs	r2, #37	@ 0x25
 8003d24:	2101      	movs	r1, #1
 8003d26:	5499      	strb	r1, [r3, r2]

    /* Process Unlocked */
    __HAL_UNLOCK(hdma);
 8003d28:	687b      	ldr	r3, [r7, #4]
 8003d2a:	2224      	movs	r2, #36	@ 0x24
 8003d2c:	2100      	movs	r1, #0
 8003d2e:	5499      	strb	r1, [r3, r2]

    if (hdma->XferErrorCallback != NULL)
 8003d30:	687b      	ldr	r3, [r7, #4]
 8003d32:	6b5b      	ldr	r3, [r3, #52]	@ 0x34
 8003d34:	2b00      	cmp	r3, #0
 8003d36:	d005      	beq.n	8003d44 <HAL_DMA_IRQHandler+0x158>
    {
      /* Transfer error callback */
      hdma->XferErrorCallback(hdma);
 8003d38:	687b      	ldr	r3, [r7, #4]
 8003d3a:	6b5b      	ldr	r3, [r3, #52]	@ 0x34
 8003d3c:	687a      	ldr	r2, [r7, #4]
 8003d3e:	0010      	movs	r0, r2
 8003d40:	4798      	blx	r3
  }
  else
  {
    /* Nothing To Do */
  }
  return;
 8003d42:	46c0      	nop			@ (mov r8, r8)
 8003d44:	46c0      	nop			@ (mov r8, r8)
}
 8003d46:	46bd      	mov	sp, r7
 8003d48:	b004      	add	sp, #16
 8003d4a:	bd80      	pop	{r7, pc}
 8003d4c:	40020000 	.word	0x40020000

08003d50 <DMA_SetConfig>:
  * @param DstAddress The destination memory Buffer address
  * @param DataLength The length of data to be transferred from source to destination
  * @retval HAL status
  */
static void DMA_SetConfig(DMA_HandleTypeDef *hdma, uint32_t SrcAddress, uint32_t DstAddress, uint32_t DataLength)
{
 8003d50:	b580      	push	{r7, lr}
 8003d52:	b084      	sub	sp, #16
 8003d54:	af00      	add	r7, sp, #0
 8003d56:	60f8      	str	r0, [r7, #12]
 8003d58:	60b9      	str	r1, [r7, #8]
 8003d5a:	607a      	str	r2, [r7, #4]
 8003d5c:	603b      	str	r3, [r7, #0]
  /* Clear the DMAMUX synchro overrun flag */
  hdma->DMAmuxChannelStatus->CFR = hdma->DMAmuxChannelStatusMask;
 8003d5e:	68fb      	ldr	r3, [r7, #12]
 8003d60:	6c9b      	ldr	r3, [r3, #72]	@ 0x48
 8003d62:	68fa      	ldr	r2, [r7, #12]
 8003d64:	6cd2      	ldr	r2, [r2, #76]	@ 0x4c
 8003d66:	605a      	str	r2, [r3, #4]

  if (hdma->DMAmuxRequestGen != 0U)
 8003d68:	68fb      	ldr	r3, [r7, #12]
 8003d6a:	6d1b      	ldr	r3, [r3, #80]	@ 0x50
 8003d6c:	2b00      	cmp	r3, #0
 8003d6e:	d004      	beq.n	8003d7a <DMA_SetConfig+0x2a>
  {
    /* Clear the DMAMUX request generator overrun flag */
    hdma->DMAmuxRequestGenStatus->RGCFR = hdma->DMAmuxRequestGenStatusMask;
 8003d70:	68fb      	ldr	r3, [r7, #12]
 8003d72:	6d5b      	ldr	r3, [r3, #84]	@ 0x54
 8003d74:	68fa      	ldr	r2, [r7, #12]
 8003d76:	6d92      	ldr	r2, [r2, #88]	@ 0x58
 8003d78:	605a      	str	r2, [r3, #4]

  /* Clear all flags */
#if defined(DMA2)
  hdma->DmaBaseAddress->IFCR = (DMA_ISR_GIF1 << (hdma->ChannelIndex & 0x1CU));
#else
  __HAL_DMA_CLEAR_FLAG(hdma, (DMA_FLAG_GI1 << (hdma->ChannelIndex & 0x1CU)));
 8003d7a:	4b14      	ldr	r3, [pc, #80]	@ (8003dcc <DMA_SetConfig+0x7c>)
 8003d7c:	6859      	ldr	r1, [r3, #4]
 8003d7e:	68fb      	ldr	r3, [r7, #12]
 8003d80:	6c1b      	ldr	r3, [r3, #64]	@ 0x40
 8003d82:	221c      	movs	r2, #28
 8003d84:	4013      	ands	r3, r2
 8003d86:	2201      	movs	r2, #1
 8003d88:	409a      	lsls	r2, r3
 8003d8a:	4b10      	ldr	r3, [pc, #64]	@ (8003dcc <DMA_SetConfig+0x7c>)
 8003d8c:	430a      	orrs	r2, r1
 8003d8e:	605a      	str	r2, [r3, #4]
#endif /* DMA2 */

  /* Configure DMA Channel data length */
  hdma->Instance->CNDTR = DataLength;
 8003d90:	68fb      	ldr	r3, [r7, #12]
 8003d92:	681b      	ldr	r3, [r3, #0]
 8003d94:	683a      	ldr	r2, [r7, #0]
 8003d96:	605a      	str	r2, [r3, #4]

  /* Memory to Peripheral */
  if ((hdma->Init.Direction) == DMA_MEMORY_TO_PERIPH)
 8003d98:	68fb      	ldr	r3, [r7, #12]
 8003d9a:	689b      	ldr	r3, [r3, #8]
 8003d9c:	2b10      	cmp	r3, #16
 8003d9e:	d108      	bne.n	8003db2 <DMA_SetConfig+0x62>
  {
    /* Configure DMA Channel destination address */
    hdma->Instance->CPAR = DstAddress;
 8003da0:	68fb      	ldr	r3, [r7, #12]
 8003da2:	681b      	ldr	r3, [r3, #0]
 8003da4:	687a      	ldr	r2, [r7, #4]
 8003da6:	609a      	str	r2, [r3, #8]

    /* Configure DMA Channel source address */
    hdma->Instance->CMAR = SrcAddress;
 8003da8:	68fb      	ldr	r3, [r7, #12]
 8003daa:	681b      	ldr	r3, [r3, #0]
 8003dac:	68ba      	ldr	r2, [r7, #8]
 8003dae:	60da      	str	r2, [r3, #12]
    hdma->Instance->CPAR = SrcAddress;

    /* Configure DMA Channel destination address */
    hdma->Instance->CMAR = DstAddress;
  }
}
 8003db0:	e007      	b.n	8003dc2 <DMA_SetConfig+0x72>
    hdma->Instance->CPAR = SrcAddress;
 8003db2:	68fb      	ldr	r3, [r7, #12]
 8003db4:	681b      	ldr	r3, [r3, #0]
 8003db6:	68ba      	ldr	r2, [r7, #8]
 8003db8:	609a      	str	r2, [r3, #8]
    hdma->Instance->CMAR = DstAddress;
 8003dba:	68fb      	ldr	r3, [r7, #12]
 8003dbc:	681b      	ldr	r3, [r3, #0]
 8003dbe:	687a      	ldr	r2, [r7, #4]
 8003dc0:	60da      	str	r2, [r3, #12]
}
 8003dc2:	46c0      	nop			@ (mov r8, r8)
 8003dc4:	46bd      	mov	sp, r7
 8003dc6:	b004      	add	sp, #16
 8003dc8:	bd80      	pop	{r7, pc}
 8003dca:	46c0      	nop			@ (mov r8, r8)
 8003dcc:	40020000 	.word	0x40020000

08003dd0 <DMA_CalcDMAMUXChannelBaseAndMask>:
  * @param hdma Pointer to a DMA_HandleTypeDef structure that contains
  *             the configuration information for the specified DMA Channel.
  * @retval None
  */
static void DMA_CalcDMAMUXChannelBaseAndMask(DMA_HandleTypeDef *hdma)
{
 8003dd0:	b580      	push	{r7, lr}
 8003dd2:	b084      	sub	sp, #16
 8003dd4:	af00      	add	r7, sp, #0
 8003dd6:	6078      	str	r0, [r7, #4]
    /* Prepare channel_number used for DMAmuxChannelStatusMask computation */
    channel_number = (((((uint32_t)hdma->Instance & 0xFFU) - 8U) / 20U) + 7U);
  }
#else
  /* Associate a DMA Channel to a DMAMUX channel */
  hdma->DMAmuxChannel = (DMAMUX_Channel_TypeDef *)(uint32_t)((uint32_t)DMAMUX1_Channel0 + ((hdma->ChannelIndex >> 2U) * ((uint32_t)DMAMUX1_Channel1 - (uint32_t)DMAMUX1_Channel0)));
 8003dd8:	687b      	ldr	r3, [r7, #4]
 8003dda:	6c1b      	ldr	r3, [r3, #64]	@ 0x40
 8003ddc:	089b      	lsrs	r3, r3, #2
 8003dde:	4a10      	ldr	r2, [pc, #64]	@ (8003e20 <DMA_CalcDMAMUXChannelBaseAndMask+0x50>)
 8003de0:	4694      	mov	ip, r2
 8003de2:	4463      	add	r3, ip
 8003de4:	009b      	lsls	r3, r3, #2
 8003de6:	001a      	movs	r2, r3
 8003de8:	687b      	ldr	r3, [r7, #4]
 8003dea:	645a      	str	r2, [r3, #68]	@ 0x44

  /* Prepare channel_number used for DMAmuxChannelStatusMask computation */
  channel_number = (((uint32_t)hdma->Instance & 0xFFU) - 8U) / 20U;
 8003dec:	687b      	ldr	r3, [r7, #4]
 8003dee:	681b      	ldr	r3, [r3, #0]
 8003df0:	001a      	movs	r2, r3
 8003df2:	23ff      	movs	r3, #255	@ 0xff
 8003df4:	4013      	ands	r3, r2
 8003df6:	3b08      	subs	r3, #8
 8003df8:	2114      	movs	r1, #20
 8003dfa:	0018      	movs	r0, r3
 8003dfc:	f7fc f982 	bl	8000104 <__udivsi3>
 8003e00:	0003      	movs	r3, r0
 8003e02:	60fb      	str	r3, [r7, #12]
#endif /* DMA2 */

  /* Initialize the field DMAmuxChannelStatus to DMAMUX1_ChannelStatus base */
  hdma->DMAmuxChannelStatus = DMAMUX1_ChannelStatus;
 8003e04:	687b      	ldr	r3, [r7, #4]
 8003e06:	4a07      	ldr	r2, [pc, #28]	@ (8003e24 <DMA_CalcDMAMUXChannelBaseAndMask+0x54>)
 8003e08:	649a      	str	r2, [r3, #72]	@ 0x48

  /* Initialize the field DMAmuxChannelStatusMask with the corresponding index of the DMAMUX channel selected for the current ChannelIndex */
  hdma->DMAmuxChannelStatusMask = 1UL << (channel_number & 0x1FU);
 8003e0a:	68fb      	ldr	r3, [r7, #12]
 8003e0c:	221f      	movs	r2, #31
 8003e0e:	4013      	ands	r3, r2
 8003e10:	2201      	movs	r2, #1
 8003e12:	409a      	lsls	r2, r3
 8003e14:	687b      	ldr	r3, [r7, #4]
 8003e16:	64da      	str	r2, [r3, #76]	@ 0x4c
}
 8003e18:	46c0      	nop			@ (mov r8, r8)
 8003e1a:	46bd      	mov	sp, r7
 8003e1c:	b004      	add	sp, #16
 8003e1e:	bd80      	pop	{r7, pc}
 8003e20:	10008200 	.word	0x10008200
 8003e24:	40020880 	.word	0x40020880

08003e28 <DMA_CalcDMAMUXRequestGenBaseAndMask>:
  *             the configuration information for the specified DMA Channel.
  * @retval None
  */

static void DMA_CalcDMAMUXRequestGenBaseAndMask(DMA_HandleTypeDef *hdma)
{
 8003e28:	b580      	push	{r7, lr}
 8003e2a:	b084      	sub	sp, #16
 8003e2c:	af00      	add	r7, sp, #0
 8003e2e:	6078      	str	r0, [r7, #4]
  uint32_t request =  hdma->Init.Request & DMAMUX_CxCR_DMAREQ_ID;
 8003e30:	687b      	ldr	r3, [r7, #4]
 8003e32:	685b      	ldr	r3, [r3, #4]
 8003e34:	223f      	movs	r2, #63	@ 0x3f
 8003e36:	4013      	ands	r3, r2
 8003e38:	60fb      	str	r3, [r7, #12]

  /* DMA Channels are connected to DMAMUX1 request generator blocks*/
  hdma->DMAmuxRequestGen = (DMAMUX_RequestGen_TypeDef *)((uint32_t)(((uint32_t)DMAMUX1_RequestGenerator0) + ((request - 1U) * 4U)));
 8003e3a:	68fb      	ldr	r3, [r7, #12]
 8003e3c:	4a0a      	ldr	r2, [pc, #40]	@ (8003e68 <DMA_CalcDMAMUXRequestGenBaseAndMask+0x40>)
 8003e3e:	4694      	mov	ip, r2
 8003e40:	4463      	add	r3, ip
 8003e42:	009b      	lsls	r3, r3, #2
 8003e44:	001a      	movs	r2, r3
 8003e46:	687b      	ldr	r3, [r7, #4]
 8003e48:	651a      	str	r2, [r3, #80]	@ 0x50

  hdma->DMAmuxRequestGenStatus = DMAMUX1_RequestGenStatus;
 8003e4a:	687b      	ldr	r3, [r7, #4]
 8003e4c:	4a07      	ldr	r2, [pc, #28]	@ (8003e6c <DMA_CalcDMAMUXRequestGenBaseAndMask+0x44>)
 8003e4e:	655a      	str	r2, [r3, #84]	@ 0x54

  /* here "Request" is either DMA_REQUEST_GENERATOR0 to DMA_REQUEST_GENERATOR3, i.e. <= 4*/
  hdma->DMAmuxRequestGenStatusMask = 1UL << ((request - 1U) & 0x3U);
 8003e50:	68fb      	ldr	r3, [r7, #12]
 8003e52:	3b01      	subs	r3, #1
 8003e54:	2203      	movs	r2, #3
 8003e56:	4013      	ands	r3, r2
 8003e58:	2201      	movs	r2, #1
 8003e5a:	409a      	lsls	r2, r3
 8003e5c:	687b      	ldr	r3, [r7, #4]
 8003e5e:	659a      	str	r2, [r3, #88]	@ 0x58
}
 8003e60:	46c0      	nop			@ (mov r8, r8)
 8003e62:	46bd      	mov	sp, r7
 8003e64:	b004      	add	sp, #16
 8003e66:	bd80      	pop	{r7, pc}
 8003e68:	1000823f 	.word	0x1000823f
 8003e6c:	40020940 	.word	0x40020940

08003e70 <HAL_GPIO_Init>:
  * @param  GPIO_Init pointer to a GPIO_InitTypeDef structure that contains
  *         the configuration information for the specified GPIO peripheral.
  * @retval None
  */
void HAL_GPIO_Init(GPIO_TypeDef  *GPIOx, GPIO_InitTypeDef *GPIO_Init)
{
 8003e70:	b580      	push	{r7, lr}
 8003e72:	b086      	sub	sp, #24
 8003e74:	af00      	add	r7, sp, #0
 8003e76:	6078      	str	r0, [r7, #4]
 8003e78:	6039      	str	r1, [r7, #0]
  uint32_t position = 0x00u;
 8003e7a:	2300      	movs	r3, #0
 8003e7c:	617b      	str	r3, [r7, #20]
  assert_param(IS_GPIO_ALL_INSTANCE(GPIOx));
  assert_param(IS_GPIO_PIN(GPIO_Init->Pin));
  assert_param(IS_GPIO_MODE(GPIO_Init->Mode));

  /* Configure the port pins */
  while (((GPIO_Init->Pin) >> position) != 0x00u)
 8003e7e:	e147      	b.n	8004110 <HAL_GPIO_Init+0x2a0>
  {
    /* Get current io position */
    iocurrent = (GPIO_Init->Pin) & (1uL << position);
 8003e80:	683b      	ldr	r3, [r7, #0]
 8003e82:	681b      	ldr	r3, [r3, #0]
 8003e84:	2101      	movs	r1, #1
 8003e86:	697a      	ldr	r2, [r7, #20]
 8003e88:	4091      	lsls	r1, r2
 8003e8a:	000a      	movs	r2, r1
 8003e8c:	4013      	ands	r3, r2
 8003e8e:	60fb      	str	r3, [r7, #12]

    if (iocurrent != 0x00u)
 8003e90:	68fb      	ldr	r3, [r7, #12]
 8003e92:	2b00      	cmp	r3, #0
 8003e94:	d100      	bne.n	8003e98 <HAL_GPIO_Init+0x28>
 8003e96:	e138      	b.n	800410a <HAL_GPIO_Init+0x29a>
    {
      /*--------------------- GPIO Mode Configuration ------------------------*/
      /* In case of Output or Alternate function mode selection */
      if (((GPIO_Init->Mode & GPIO_MODE) == MODE_OUTPUT) || ((GPIO_Init->Mode & GPIO_MODE) == MODE_AF))
 8003e98:	683b      	ldr	r3, [r7, #0]
 8003e9a:	685b      	ldr	r3, [r3, #4]
 8003e9c:	2203      	movs	r2, #3
 8003e9e:	4013      	ands	r3, r2
 8003ea0:	2b01      	cmp	r3, #1
 8003ea2:	d005      	beq.n	8003eb0 <HAL_GPIO_Init+0x40>
 8003ea4:	683b      	ldr	r3, [r7, #0]
 8003ea6:	685b      	ldr	r3, [r3, #4]
 8003ea8:	2203      	movs	r2, #3
 8003eaa:	4013      	ands	r3, r2
 8003eac:	2b02      	cmp	r3, #2
 8003eae:	d130      	bne.n	8003f12 <HAL_GPIO_Init+0xa2>
      {
        /* Check the Speed parameter */
        assert_param(IS_GPIO_SPEED(GPIO_Init->Speed));

        /* Configure the IO Speed */
        temp = GPIOx->OSPEEDR;
 8003eb0:	687b      	ldr	r3, [r7, #4]
 8003eb2:	689b      	ldr	r3, [r3, #8]
 8003eb4:	613b      	str	r3, [r7, #16]
        temp &= ~(GPIO_OSPEEDR_OSPEED0 << (position * 2u));
 8003eb6:	697b      	ldr	r3, [r7, #20]
 8003eb8:	005b      	lsls	r3, r3, #1
 8003eba:	2203      	movs	r2, #3
 8003ebc:	409a      	lsls	r2, r3
 8003ebe:	0013      	movs	r3, r2
 8003ec0:	43da      	mvns	r2, r3
 8003ec2:	693b      	ldr	r3, [r7, #16]
 8003ec4:	4013      	ands	r3, r2
 8003ec6:	613b      	str	r3, [r7, #16]
        temp |= (GPIO_Init->Speed << (position * 2u));
 8003ec8:	683b      	ldr	r3, [r7, #0]
 8003eca:	68da      	ldr	r2, [r3, #12]
 8003ecc:	697b      	ldr	r3, [r7, #20]
 8003ece:	005b      	lsls	r3, r3, #1
 8003ed0:	409a      	lsls	r2, r3
 8003ed2:	0013      	movs	r3, r2
 8003ed4:	693a      	ldr	r2, [r7, #16]
 8003ed6:	4313      	orrs	r3, r2
 8003ed8:	613b      	str	r3, [r7, #16]
        GPIOx->OSPEEDR = temp;
 8003eda:	687b      	ldr	r3, [r7, #4]
 8003edc:	693a      	ldr	r2, [r7, #16]
 8003ede:	609a      	str	r2, [r3, #8]

        /* Configure the IO Output Type */
        temp = GPIOx->OTYPER;
 8003ee0:	687b      	ldr	r3, [r7, #4]
 8003ee2:	685b      	ldr	r3, [r3, #4]
 8003ee4:	613b      	str	r3, [r7, #16]
        temp &= ~(GPIO_OTYPER_OT0 << position) ;
 8003ee6:	2201      	movs	r2, #1
 8003ee8:	697b      	ldr	r3, [r7, #20]
 8003eea:	409a      	lsls	r2, r3
 8003eec:	0013      	movs	r3, r2
 8003eee:	43da      	mvns	r2, r3
 8003ef0:	693b      	ldr	r3, [r7, #16]
 8003ef2:	4013      	ands	r3, r2
 8003ef4:	613b      	str	r3, [r7, #16]
        temp |= (((GPIO_Init->Mode & OUTPUT_TYPE) >> OUTPUT_TYPE_Pos) << position);
 8003ef6:	683b      	ldr	r3, [r7, #0]
 8003ef8:	685b      	ldr	r3, [r3, #4]
 8003efa:	091b      	lsrs	r3, r3, #4
 8003efc:	2201      	movs	r2, #1
 8003efe:	401a      	ands	r2, r3
 8003f00:	697b      	ldr	r3, [r7, #20]
 8003f02:	409a      	lsls	r2, r3
 8003f04:	0013      	movs	r3, r2
 8003f06:	693a      	ldr	r2, [r7, #16]
 8003f08:	4313      	orrs	r3, r2
 8003f0a:	613b      	str	r3, [r7, #16]
        GPIOx->OTYPER = temp;
 8003f0c:	687b      	ldr	r3, [r7, #4]
 8003f0e:	693a      	ldr	r2, [r7, #16]
 8003f10:	605a      	str	r2, [r3, #4]
      }

      if ((GPIO_Init->Mode & GPIO_MODE) != MODE_ANALOG)
 8003f12:	683b      	ldr	r3, [r7, #0]
 8003f14:	685b      	ldr	r3, [r3, #4]
 8003f16:	2203      	movs	r2, #3
 8003f18:	4013      	ands	r3, r2
 8003f1a:	2b03      	cmp	r3, #3
 8003f1c:	d017      	beq.n	8003f4e <HAL_GPIO_Init+0xde>
      {
        /* Check the Pull parameter */
        assert_param(IS_GPIO_PULL(GPIO_Init->Pull));

        /* Activate the Pull-up or Pull down resistor for the current IO */
        temp = GPIOx->PUPDR;
 8003f1e:	687b      	ldr	r3, [r7, #4]
 8003f20:	68db      	ldr	r3, [r3, #12]
 8003f22:	613b      	str	r3, [r7, #16]
        temp &= ~(GPIO_PUPDR_PUPD0 << (position * 2u));
 8003f24:	697b      	ldr	r3, [r7, #20]
 8003f26:	005b      	lsls	r3, r3, #1
 8003f28:	2203      	movs	r2, #3
 8003f2a:	409a      	lsls	r2, r3
 8003f2c:	0013      	movs	r3, r2
 8003f2e:	43da      	mvns	r2, r3
 8003f30:	693b      	ldr	r3, [r7, #16]
 8003f32:	4013      	ands	r3, r2
 8003f34:	613b      	str	r3, [r7, #16]
        temp |= ((GPIO_Init->Pull) << (position * 2u));
 8003f36:	683b      	ldr	r3, [r7, #0]
 8003f38:	689a      	ldr	r2, [r3, #8]
 8003f3a:	697b      	ldr	r3, [r7, #20]
 8003f3c:	005b      	lsls	r3, r3, #1
 8003f3e:	409a      	lsls	r2, r3
 8003f40:	0013      	movs	r3, r2
 8003f42:	693a      	ldr	r2, [r7, #16]
 8003f44:	4313      	orrs	r3, r2
 8003f46:	613b      	str	r3, [r7, #16]
        GPIOx->PUPDR = temp;
 8003f48:	687b      	ldr	r3, [r7, #4]
 8003f4a:	693a      	ldr	r2, [r7, #16]
 8003f4c:	60da      	str	r2, [r3, #12]
      }

      /* In case of Alternate function mode selection */
      if ((GPIO_Init->Mode & GPIO_MODE) == MODE_AF)
 8003f4e:	683b      	ldr	r3, [r7, #0]
 8003f50:	685b      	ldr	r3, [r3, #4]
 8003f52:	2203      	movs	r2, #3
 8003f54:	4013      	ands	r3, r2
 8003f56:	2b02      	cmp	r3, #2
 8003f58:	d123      	bne.n	8003fa2 <HAL_GPIO_Init+0x132>
        /* Check the Alternate function parameters */
        assert_param(IS_GPIO_AF_INSTANCE(GPIOx));
        assert_param(IS_GPIO_AF(GPIO_Init->Alternate));

        /* Configure Alternate function mapped with the current IO */
        temp = GPIOx->AFR[position >> 3u];
 8003f5a:	697b      	ldr	r3, [r7, #20]
 8003f5c:	08da      	lsrs	r2, r3, #3
 8003f5e:	687b      	ldr	r3, [r7, #4]
 8003f60:	3208      	adds	r2, #8
 8003f62:	0092      	lsls	r2, r2, #2
 8003f64:	58d3      	ldr	r3, [r2, r3]
 8003f66:	613b      	str	r3, [r7, #16]
        temp &= ~(0xFu << ((position & 0x07u) * 4u));
 8003f68:	697b      	ldr	r3, [r7, #20]
 8003f6a:	2207      	movs	r2, #7
 8003f6c:	4013      	ands	r3, r2
 8003f6e:	009b      	lsls	r3, r3, #2
 8003f70:	220f      	movs	r2, #15
 8003f72:	409a      	lsls	r2, r3
 8003f74:	0013      	movs	r3, r2
 8003f76:	43da      	mvns	r2, r3
 8003f78:	693b      	ldr	r3, [r7, #16]
 8003f7a:	4013      	ands	r3, r2
 8003f7c:	613b      	str	r3, [r7, #16]
        temp |= ((GPIO_Init->Alternate) << ((position & 0x07u) * 4u));
 8003f7e:	683b      	ldr	r3, [r7, #0]
 8003f80:	691a      	ldr	r2, [r3, #16]
 8003f82:	697b      	ldr	r3, [r7, #20]
 8003f84:	2107      	movs	r1, #7
 8003f86:	400b      	ands	r3, r1
 8003f88:	009b      	lsls	r3, r3, #2
 8003f8a:	409a      	lsls	r2, r3
 8003f8c:	0013      	movs	r3, r2
 8003f8e:	693a      	ldr	r2, [r7, #16]
 8003f90:	4313      	orrs	r3, r2
 8003f92:	613b      	str	r3, [r7, #16]
        GPIOx->AFR[position >> 3u] = temp;
 8003f94:	697b      	ldr	r3, [r7, #20]
 8003f96:	08da      	lsrs	r2, r3, #3
 8003f98:	687b      	ldr	r3, [r7, #4]
 8003f9a:	3208      	adds	r2, #8
 8003f9c:	0092      	lsls	r2, r2, #2
 8003f9e:	6939      	ldr	r1, [r7, #16]
 8003fa0:	50d1      	str	r1, [r2, r3]
      }

      /* Configure IO Direction mode (Input, Output, Alternate or Analog) */
      temp = GPIOx->MODER;
 8003fa2:	687b      	ldr	r3, [r7, #4]
 8003fa4:	681b      	ldr	r3, [r3, #0]
 8003fa6:	613b      	str	r3, [r7, #16]
      temp &= ~(GPIO_MODER_MODE0 << (position * 2u));
 8003fa8:	697b      	ldr	r3, [r7, #20]
 8003faa:	005b      	lsls	r3, r3, #1
 8003fac:	2203      	movs	r2, #3
 8003fae:	409a      	lsls	r2, r3
 8003fb0:	0013      	movs	r3, r2
 8003fb2:	43da      	mvns	r2, r3
 8003fb4:	693b      	ldr	r3, [r7, #16]
 8003fb6:	4013      	ands	r3, r2
 8003fb8:	613b      	str	r3, [r7, #16]
      temp |= ((GPIO_Init->Mode & GPIO_MODE) << (position * 2u));
 8003fba:	683b      	ldr	r3, [r7, #0]
 8003fbc:	685b      	ldr	r3, [r3, #4]
 8003fbe:	2203      	movs	r2, #3
 8003fc0:	401a      	ands	r2, r3
 8003fc2:	697b      	ldr	r3, [r7, #20]
 8003fc4:	005b      	lsls	r3, r3, #1
 8003fc6:	409a      	lsls	r2, r3
 8003fc8:	0013      	movs	r3, r2
 8003fca:	693a      	ldr	r2, [r7, #16]
 8003fcc:	4313      	orrs	r3, r2
 8003fce:	613b      	str	r3, [r7, #16]
      GPIOx->MODER = temp;
 8003fd0:	687b      	ldr	r3, [r7, #4]
 8003fd2:	693a      	ldr	r2, [r7, #16]
 8003fd4:	601a      	str	r2, [r3, #0]

      /*--------------------- EXTI Mode Configuration ------------------------*/
      /* Configure the External Interrupt or event for the current IO */
      if ((GPIO_Init->Mode & EXTI_MODE) != 0x00u)
 8003fd6:	683b      	ldr	r3, [r7, #0]
 8003fd8:	685a      	ldr	r2, [r3, #4]
 8003fda:	23c0      	movs	r3, #192	@ 0xc0
 8003fdc:	029b      	lsls	r3, r3, #10
 8003fde:	4013      	ands	r3, r2
 8003fe0:	d100      	bne.n	8003fe4 <HAL_GPIO_Init+0x174>
 8003fe2:	e092      	b.n	800410a <HAL_GPIO_Init+0x29a>
      {
        temp = EXTI->EXTICR[position >> 2u];
 8003fe4:	4a50      	ldr	r2, [pc, #320]	@ (8004128 <HAL_GPIO_Init+0x2b8>)
 8003fe6:	697b      	ldr	r3, [r7, #20]
 8003fe8:	089b      	lsrs	r3, r3, #2
 8003fea:	3318      	adds	r3, #24
 8003fec:	009b      	lsls	r3, r3, #2
 8003fee:	589b      	ldr	r3, [r3, r2]
 8003ff0:	613b      	str	r3, [r7, #16]
        temp &= ~(0x0FuL << (8u * (position & 0x03u)));
 8003ff2:	697b      	ldr	r3, [r7, #20]
 8003ff4:	2203      	movs	r2, #3
 8003ff6:	4013      	ands	r3, r2
 8003ff8:	00db      	lsls	r3, r3, #3
 8003ffa:	220f      	movs	r2, #15
 8003ffc:	409a      	lsls	r2, r3
 8003ffe:	0013      	movs	r3, r2
 8004000:	43da      	mvns	r2, r3
 8004002:	693b      	ldr	r3, [r7, #16]
 8004004:	4013      	ands	r3, r2
 8004006:	613b      	str	r3, [r7, #16]
        temp |= (GPIO_GET_INDEX(GPIOx) << (8u * (position & 0x03u)));
 8004008:	687a      	ldr	r2, [r7, #4]
 800400a:	23a0      	movs	r3, #160	@ 0xa0
 800400c:	05db      	lsls	r3, r3, #23
 800400e:	429a      	cmp	r2, r3
 8004010:	d013      	beq.n	800403a <HAL_GPIO_Init+0x1ca>
 8004012:	687b      	ldr	r3, [r7, #4]
 8004014:	4a45      	ldr	r2, [pc, #276]	@ (800412c <HAL_GPIO_Init+0x2bc>)
 8004016:	4293      	cmp	r3, r2
 8004018:	d00d      	beq.n	8004036 <HAL_GPIO_Init+0x1c6>
 800401a:	687b      	ldr	r3, [r7, #4]
 800401c:	4a44      	ldr	r2, [pc, #272]	@ (8004130 <HAL_GPIO_Init+0x2c0>)
 800401e:	4293      	cmp	r3, r2
 8004020:	d007      	beq.n	8004032 <HAL_GPIO_Init+0x1c2>
 8004022:	687b      	ldr	r3, [r7, #4]
 8004024:	4a43      	ldr	r2, [pc, #268]	@ (8004134 <HAL_GPIO_Init+0x2c4>)
 8004026:	4293      	cmp	r3, r2
 8004028:	d101      	bne.n	800402e <HAL_GPIO_Init+0x1be>
 800402a:	2303      	movs	r3, #3
 800402c:	e006      	b.n	800403c <HAL_GPIO_Init+0x1cc>
 800402e:	2305      	movs	r3, #5
 8004030:	e004      	b.n	800403c <HAL_GPIO_Init+0x1cc>
 8004032:	2302      	movs	r3, #2
 8004034:	e002      	b.n	800403c <HAL_GPIO_Init+0x1cc>
 8004036:	2301      	movs	r3, #1
 8004038:	e000      	b.n	800403c <HAL_GPIO_Init+0x1cc>
 800403a:	2300      	movs	r3, #0
 800403c:	697a      	ldr	r2, [r7, #20]
 800403e:	2103      	movs	r1, #3
 8004040:	400a      	ands	r2, r1
 8004042:	00d2      	lsls	r2, r2, #3
 8004044:	4093      	lsls	r3, r2
 8004046:	693a      	ldr	r2, [r7, #16]
 8004048:	4313      	orrs	r3, r2
 800404a:	613b      	str	r3, [r7, #16]
        EXTI->EXTICR[position >> 2u] = temp;
 800404c:	4936      	ldr	r1, [pc, #216]	@ (8004128 <HAL_GPIO_Init+0x2b8>)
 800404e:	697b      	ldr	r3, [r7, #20]
 8004050:	089b      	lsrs	r3, r3, #2
 8004052:	3318      	adds	r3, #24
 8004054:	009b      	lsls	r3, r3, #2
 8004056:	693a      	ldr	r2, [r7, #16]
 8004058:	505a      	str	r2, [r3, r1]

        /* Clear Rising Falling edge configuration */
        temp = EXTI->RTSR1;
 800405a:	4b33      	ldr	r3, [pc, #204]	@ (8004128 <HAL_GPIO_Init+0x2b8>)
 800405c:	681b      	ldr	r3, [r3, #0]
 800405e:	613b      	str	r3, [r7, #16]
        temp &= ~(iocurrent);
 8004060:	68fb      	ldr	r3, [r7, #12]
 8004062:	43da      	mvns	r2, r3
 8004064:	693b      	ldr	r3, [r7, #16]
 8004066:	4013      	ands	r3, r2
 8004068:	613b      	str	r3, [r7, #16]
        if ((GPIO_Init->Mode & TRIGGER_RISING) != 0x00u)
 800406a:	683b      	ldr	r3, [r7, #0]
 800406c:	685a      	ldr	r2, [r3, #4]
 800406e:	2380      	movs	r3, #128	@ 0x80
 8004070:	035b      	lsls	r3, r3, #13
 8004072:	4013      	ands	r3, r2
 8004074:	d003      	beq.n	800407e <HAL_GPIO_Init+0x20e>
        {
          temp |= iocurrent;
 8004076:	693a      	ldr	r2, [r7, #16]
 8004078:	68fb      	ldr	r3, [r7, #12]
 800407a:	4313      	orrs	r3, r2
 800407c:	613b      	str	r3, [r7, #16]
        }
        EXTI->RTSR1 = temp;
 800407e:	4b2a      	ldr	r3, [pc, #168]	@ (8004128 <HAL_GPIO_Init+0x2b8>)
 8004080:	693a      	ldr	r2, [r7, #16]
 8004082:	601a      	str	r2, [r3, #0]

        temp = EXTI->FTSR1;
 8004084:	4b28      	ldr	r3, [pc, #160]	@ (8004128 <HAL_GPIO_Init+0x2b8>)
 8004086:	685b      	ldr	r3, [r3, #4]
 8004088:	613b      	str	r3, [r7, #16]
        temp &= ~(iocurrent);
 800408a:	68fb      	ldr	r3, [r7, #12]
 800408c:	43da      	mvns	r2, r3
 800408e:	693b      	ldr	r3, [r7, #16]
 8004090:	4013      	ands	r3, r2
 8004092:	613b      	str	r3, [r7, #16]
        if ((GPIO_Init->Mode & TRIGGER_FALLING) != 0x00u)
 8004094:	683b      	ldr	r3, [r7, #0]
 8004096:	685a      	ldr	r2, [r3, #4]
 8004098:	2380      	movs	r3, #128	@ 0x80
 800409a:	039b      	lsls	r3, r3, #14
 800409c:	4013      	ands	r3, r2
 800409e:	d003      	beq.n	80040a8 <HAL_GPIO_Init+0x238>
        {
          temp |= iocurrent;
 80040a0:	693a      	ldr	r2, [r7, #16]
 80040a2:	68fb      	ldr	r3, [r7, #12]
 80040a4:	4313      	orrs	r3, r2
 80040a6:	613b      	str	r3, [r7, #16]
        }
        EXTI->FTSR1 = temp;
 80040a8:	4b1f      	ldr	r3, [pc, #124]	@ (8004128 <HAL_GPIO_Init+0x2b8>)
 80040aa:	693a      	ldr	r2, [r7, #16]
 80040ac:	605a      	str	r2, [r3, #4]

        /* Clear EXTI line configuration */
        temp = EXTI->EMR1;
 80040ae:	4a1e      	ldr	r2, [pc, #120]	@ (8004128 <HAL_GPIO_Init+0x2b8>)
 80040b0:	2384      	movs	r3, #132	@ 0x84
 80040b2:	58d3      	ldr	r3, [r2, r3]
 80040b4:	613b      	str	r3, [r7, #16]
        temp &= ~(iocurrent);
 80040b6:	68fb      	ldr	r3, [r7, #12]
 80040b8:	43da      	mvns	r2, r3
 80040ba:	693b      	ldr	r3, [r7, #16]
 80040bc:	4013      	ands	r3, r2
 80040be:	613b      	str	r3, [r7, #16]
        if ((GPIO_Init->Mode & EXTI_EVT) != 0x00u)
 80040c0:	683b      	ldr	r3, [r7, #0]
 80040c2:	685a      	ldr	r2, [r3, #4]
 80040c4:	2380      	movs	r3, #128	@ 0x80
 80040c6:	029b      	lsls	r3, r3, #10
 80040c8:	4013      	ands	r3, r2
 80040ca:	d003      	beq.n	80040d4 <HAL_GPIO_Init+0x264>
        {
          temp |= iocurrent;
 80040cc:	693a      	ldr	r2, [r7, #16]
 80040ce:	68fb      	ldr	r3, [r7, #12]
 80040d0:	4313      	orrs	r3, r2
 80040d2:	613b      	str	r3, [r7, #16]
        }
        EXTI->EMR1 = temp;
 80040d4:	4914      	ldr	r1, [pc, #80]	@ (8004128 <HAL_GPIO_Init+0x2b8>)
 80040d6:	2284      	movs	r2, #132	@ 0x84
 80040d8:	693b      	ldr	r3, [r7, #16]
 80040da:	508b      	str	r3, [r1, r2]

        temp = EXTI->IMR1;
 80040dc:	4a12      	ldr	r2, [pc, #72]	@ (8004128 <HAL_GPIO_Init+0x2b8>)
 80040de:	2380      	movs	r3, #128	@ 0x80
 80040e0:	58d3      	ldr	r3, [r2, r3]
 80040e2:	613b      	str	r3, [r7, #16]
        temp &= ~(iocurrent);
 80040e4:	68fb      	ldr	r3, [r7, #12]
 80040e6:	43da      	mvns	r2, r3
 80040e8:	693b      	ldr	r3, [r7, #16]
 80040ea:	4013      	ands	r3, r2
 80040ec:	613b      	str	r3, [r7, #16]
        if ((GPIO_Init->Mode & EXTI_IT) != 0x00u)
 80040ee:	683b      	ldr	r3, [r7, #0]
 80040f0:	685a      	ldr	r2, [r3, #4]
 80040f2:	2380      	movs	r3, #128	@ 0x80
 80040f4:	025b      	lsls	r3, r3, #9
 80040f6:	4013      	ands	r3, r2
 80040f8:	d003      	beq.n	8004102 <HAL_GPIO_Init+0x292>
        {
          temp |= iocurrent;
 80040fa:	693a      	ldr	r2, [r7, #16]
 80040fc:	68fb      	ldr	r3, [r7, #12]
 80040fe:	4313      	orrs	r3, r2
 8004100:	613b      	str	r3, [r7, #16]
        }
        EXTI->IMR1 = temp;
 8004102:	4909      	ldr	r1, [pc, #36]	@ (8004128 <HAL_GPIO_Init+0x2b8>)
 8004104:	2280      	movs	r2, #128	@ 0x80
 8004106:	693b      	ldr	r3, [r7, #16]
 8004108:	508b      	str	r3, [r1, r2]
      }
    }

    position++;
 800410a:	697b      	ldr	r3, [r7, #20]
 800410c:	3301      	adds	r3, #1
 800410e:	617b      	str	r3, [r7, #20]
  while (((GPIO_Init->Pin) >> position) != 0x00u)
 8004110:	683b      	ldr	r3, [r7, #0]
 8004112:	681a      	ldr	r2, [r3, #0]
 8004114:	697b      	ldr	r3, [r7, #20]
 8004116:	40da      	lsrs	r2, r3
 8004118:	1e13      	subs	r3, r2, #0
 800411a:	d000      	beq.n	800411e <HAL_GPIO_Init+0x2ae>
 800411c:	e6b0      	b.n	8003e80 <HAL_GPIO_Init+0x10>
  }
}
 800411e:	46c0      	nop			@ (mov r8, r8)
 8004120:	46c0      	nop			@ (mov r8, r8)
 8004122:	46bd      	mov	sp, r7
 8004124:	b006      	add	sp, #24
 8004126:	bd80      	pop	{r7, pc}
 8004128:	40021800 	.word	0x40021800
 800412c:	50000400 	.word	0x50000400
 8004130:	50000800 	.word	0x50000800
 8004134:	50000c00 	.word	0x50000c00

08004138 <HAL_GPIO_ReadPin>:
  * @param  GPIO_Pin specifies the port bit to read.
  *         This parameter can be any combination of GPIO_Pin_x where x can be (0..15).
  * @retval The input port pin value.
  */
GPIO_PinState HAL_GPIO_ReadPin(GPIO_TypeDef *GPIOx, uint16_t GPIO_Pin)
{
 8004138:	b580      	push	{r7, lr}
 800413a:	b084      	sub	sp, #16
 800413c:	af00      	add	r7, sp, #0
 800413e:	6078      	str	r0, [r7, #4]
 8004140:	000a      	movs	r2, r1
 8004142:	1cbb      	adds	r3, r7, #2
 8004144:	801a      	strh	r2, [r3, #0]
  GPIO_PinState bitstatus;

  /* Check the parameters */
  assert_param(IS_GPIO_PIN(GPIO_Pin));

  if ((GPIOx->IDR & GPIO_Pin) != 0x00u)
 8004146:	687b      	ldr	r3, [r7, #4]
 8004148:	691b      	ldr	r3, [r3, #16]
 800414a:	1cba      	adds	r2, r7, #2
 800414c:	8812      	ldrh	r2, [r2, #0]
 800414e:	4013      	ands	r3, r2
 8004150:	d004      	beq.n	800415c <HAL_GPIO_ReadPin+0x24>
  {
    bitstatus = GPIO_PIN_SET;
 8004152:	230f      	movs	r3, #15
 8004154:	18fb      	adds	r3, r7, r3
 8004156:	2201      	movs	r2, #1
 8004158:	701a      	strb	r2, [r3, #0]
 800415a:	e003      	b.n	8004164 <HAL_GPIO_ReadPin+0x2c>
  }
  else
  {
    bitstatus = GPIO_PIN_RESET;
 800415c:	230f      	movs	r3, #15
 800415e:	18fb      	adds	r3, r7, r3
 8004160:	2200      	movs	r2, #0
 8004162:	701a      	strb	r2, [r3, #0]
  }
  return bitstatus;
 8004164:	230f      	movs	r3, #15
 8004166:	18fb      	adds	r3, r7, r3
 8004168:	781b      	ldrb	r3, [r3, #0]
}
 800416a:	0018      	movs	r0, r3
 800416c:	46bd      	mov	sp, r7
 800416e:	b004      	add	sp, #16
 8004170:	bd80      	pop	{r7, pc}

08004172 <HAL_GPIO_WritePin>:
  *            @arg GPIO_PIN_RESET: to clear the port pin
  *            @arg GPIO_PIN_SET: to set the port pin
  * @retval None
  */
void HAL_GPIO_WritePin(GPIO_TypeDef *GPIOx, uint16_t GPIO_Pin, GPIO_PinState PinState)
{
 8004172:	b580      	push	{r7, lr}
 8004174:	b082      	sub	sp, #8
 8004176:	af00      	add	r7, sp, #0
 8004178:	6078      	str	r0, [r7, #4]
 800417a:	0008      	movs	r0, r1
 800417c:	0011      	movs	r1, r2
 800417e:	1cbb      	adds	r3, r7, #2
 8004180:	1c02      	adds	r2, r0, #0
 8004182:	801a      	strh	r2, [r3, #0]
 8004184:	1c7b      	adds	r3, r7, #1
 8004186:	1c0a      	adds	r2, r1, #0
 8004188:	701a      	strb	r2, [r3, #0]
  /* Check the parameters */
  assert_param(IS_GPIO_PIN(GPIO_Pin));
  assert_param(IS_GPIO_PIN_ACTION(PinState));

  if (PinState != GPIO_PIN_RESET)
 800418a:	1c7b      	adds	r3, r7, #1
 800418c:	781b      	ldrb	r3, [r3, #0]
 800418e:	2b00      	cmp	r3, #0
 8004190:	d004      	beq.n	800419c <HAL_GPIO_WritePin+0x2a>
  {
    GPIOx->BSRR = (uint32_t)GPIO_Pin;
 8004192:	1cbb      	adds	r3, r7, #2
 8004194:	881a      	ldrh	r2, [r3, #0]
 8004196:	687b      	ldr	r3, [r7, #4]
 8004198:	619a      	str	r2, [r3, #24]
  }
  else
  {
    GPIOx->BRR = (uint32_t)GPIO_Pin;
  }
}
 800419a:	e003      	b.n	80041a4 <HAL_GPIO_WritePin+0x32>
    GPIOx->BRR = (uint32_t)GPIO_Pin;
 800419c:	1cbb      	adds	r3, r7, #2
 800419e:	881a      	ldrh	r2, [r3, #0]
 80041a0:	687b      	ldr	r3, [r7, #4]
 80041a2:	629a      	str	r2, [r3, #40]	@ 0x28
}
 80041a4:	46c0      	nop			@ (mov r8, r8)
 80041a6:	46bd      	mov	sp, r7
 80041a8:	b002      	add	sp, #8
 80041aa:	bd80      	pop	{r7, pc}

080041ac <HAL_GPIO_TogglePin>:
  * @param  GPIO_Pin specifies the pin to be toggled.
  *         This parameter can be any combination of GPIO_Pin_x where x can be (0..15).
  * @retval None
  */
void HAL_GPIO_TogglePin(GPIO_TypeDef *GPIOx, uint16_t GPIO_Pin)
{
 80041ac:	b580      	push	{r7, lr}
 80041ae:	b084      	sub	sp, #16
 80041b0:	af00      	add	r7, sp, #0
 80041b2:	6078      	str	r0, [r7, #4]
 80041b4:	000a      	movs	r2, r1
 80041b6:	1cbb      	adds	r3, r7, #2
 80041b8:	801a      	strh	r2, [r3, #0]

  /* Check the parameters */
  assert_param(IS_GPIO_PIN(GPIO_Pin));

  /* get current Output Data Register value */
  odr = GPIOx->ODR;
 80041ba:	687b      	ldr	r3, [r7, #4]
 80041bc:	695b      	ldr	r3, [r3, #20]
 80041be:	60fb      	str	r3, [r7, #12]

  /* Set selected pins that were at low level, and reset ones that were high */
  GPIOx->BSRR = ((odr & GPIO_Pin) << GPIO_NUMBER) | (~odr & GPIO_Pin);
 80041c0:	1cbb      	adds	r3, r7, #2
 80041c2:	881b      	ldrh	r3, [r3, #0]
 80041c4:	68fa      	ldr	r2, [r7, #12]
 80041c6:	4013      	ands	r3, r2
 80041c8:	041a      	lsls	r2, r3, #16
 80041ca:	68fb      	ldr	r3, [r7, #12]
 80041cc:	43db      	mvns	r3, r3
 80041ce:	1cb9      	adds	r1, r7, #2
 80041d0:	8809      	ldrh	r1, [r1, #0]
 80041d2:	400b      	ands	r3, r1
 80041d4:	431a      	orrs	r2, r3
 80041d6:	687b      	ldr	r3, [r7, #4]
 80041d8:	619a      	str	r2, [r3, #24]
}
 80041da:	46c0      	nop			@ (mov r8, r8)
 80041dc:	46bd      	mov	sp, r7
 80041de:	b004      	add	sp, #16
 80041e0:	bd80      	pop	{r7, pc}
	...

080041e4 <HAL_PWREx_ControlVoltageScaling>:
  *        cleared before returning the status. If the flag is not cleared within
  *        6 microseconds, HAL_TIMEOUT status is reported.
  * @retval HAL Status
  */
HAL_StatusTypeDef HAL_PWREx_ControlVoltageScaling(uint32_t VoltageScaling)
{
 80041e4:	b580      	push	{r7, lr}
 80041e6:	b084      	sub	sp, #16
 80041e8:	af00      	add	r7, sp, #0
 80041ea:	6078      	str	r0, [r7, #4]
  uint32_t wait_loop_index;

  assert_param(IS_PWR_VOLTAGE_SCALING_RANGE(VoltageScaling));

  /* Modify voltage scaling range */
  MODIFY_REG(PWR->CR1, PWR_CR1_VOS, VoltageScaling);
 80041ec:	4b19      	ldr	r3, [pc, #100]	@ (8004254 <HAL_PWREx_ControlVoltageScaling+0x70>)
 80041ee:	681b      	ldr	r3, [r3, #0]
 80041f0:	4a19      	ldr	r2, [pc, #100]	@ (8004258 <HAL_PWREx_ControlVoltageScaling+0x74>)
 80041f2:	4013      	ands	r3, r2
 80041f4:	0019      	movs	r1, r3
 80041f6:	4b17      	ldr	r3, [pc, #92]	@ (8004254 <HAL_PWREx_ControlVoltageScaling+0x70>)
 80041f8:	687a      	ldr	r2, [r7, #4]
 80041fa:	430a      	orrs	r2, r1
 80041fc:	601a      	str	r2, [r3, #0]

  /* In case of Range 1 selected, we need to ensure that main regulator reaches new value */
  if (VoltageScaling == PWR_REGULATOR_VOLTAGE_SCALE1)
 80041fe:	687a      	ldr	r2, [r7, #4]
 8004200:	2380      	movs	r3, #128	@ 0x80
 8004202:	009b      	lsls	r3, r3, #2
 8004204:	429a      	cmp	r2, r3
 8004206:	d11f      	bne.n	8004248 <HAL_PWREx_ControlVoltageScaling+0x64>
  {
    /* Set timeout value */
    wait_loop_index = ((PWR_VOSF_SETTING_DELAY_6_US * SystemCoreClock) / 1000000U) + 1U;
 8004208:	4b14      	ldr	r3, [pc, #80]	@ (800425c <HAL_PWREx_ControlVoltageScaling+0x78>)
 800420a:	681a      	ldr	r2, [r3, #0]
 800420c:	0013      	movs	r3, r2
 800420e:	005b      	lsls	r3, r3, #1
 8004210:	189b      	adds	r3, r3, r2
 8004212:	005b      	lsls	r3, r3, #1
 8004214:	4912      	ldr	r1, [pc, #72]	@ (8004260 <HAL_PWREx_ControlVoltageScaling+0x7c>)
 8004216:	0018      	movs	r0, r3
 8004218:	f7fb ff74 	bl	8000104 <__udivsi3>
 800421c:	0003      	movs	r3, r0
 800421e:	3301      	adds	r3, #1
 8004220:	60fb      	str	r3, [r7, #12]

    /* Wait until VOSF is reset */
    while (HAL_IS_BIT_SET(PWR->SR2, PWR_SR2_VOSF))
 8004222:	e008      	b.n	8004236 <HAL_PWREx_ControlVoltageScaling+0x52>
    {
      if (wait_loop_index != 0U)
 8004224:	68fb      	ldr	r3, [r7, #12]
 8004226:	2b00      	cmp	r3, #0
 8004228:	d003      	beq.n	8004232 <HAL_PWREx_ControlVoltageScaling+0x4e>
      {
        wait_loop_index--;
 800422a:	68fb      	ldr	r3, [r7, #12]
 800422c:	3b01      	subs	r3, #1
 800422e:	60fb      	str	r3, [r7, #12]
 8004230:	e001      	b.n	8004236 <HAL_PWREx_ControlVoltageScaling+0x52>
      }
      else
      {
        return HAL_TIMEOUT;
 8004232:	2303      	movs	r3, #3
 8004234:	e009      	b.n	800424a <HAL_PWREx_ControlVoltageScaling+0x66>
    while (HAL_IS_BIT_SET(PWR->SR2, PWR_SR2_VOSF))
 8004236:	4b07      	ldr	r3, [pc, #28]	@ (8004254 <HAL_PWREx_ControlVoltageScaling+0x70>)
 8004238:	695a      	ldr	r2, [r3, #20]
 800423a:	2380      	movs	r3, #128	@ 0x80
 800423c:	00db      	lsls	r3, r3, #3
 800423e:	401a      	ands	r2, r3
 8004240:	2380      	movs	r3, #128	@ 0x80
 8004242:	00db      	lsls	r3, r3, #3
 8004244:	429a      	cmp	r2, r3
 8004246:	d0ed      	beq.n	8004224 <HAL_PWREx_ControlVoltageScaling+0x40>
      }
    }
  }

  return HAL_OK;
 8004248:	2300      	movs	r3, #0
}
 800424a:	0018      	movs	r0, r3
 800424c:	46bd      	mov	sp, r7
 800424e:	b004      	add	sp, #16
 8004250:	bd80      	pop	{r7, pc}
 8004252:	46c0      	nop			@ (mov r8, r8)
 8004254:	40007000 	.word	0x40007000
 8004258:	fffff9ff 	.word	0xfffff9ff
 800425c:	2000001c 	.word	0x2000001c
 8004260:	000f4240 	.word	0x000f4240

08004264 <LL_RCC_GetAPB1Prescaler>:
  *         @arg @ref LL_RCC_APB1_DIV_4
  *         @arg @ref LL_RCC_APB1_DIV_8
  *         @arg @ref LL_RCC_APB1_DIV_16
  */
__STATIC_INLINE uint32_t LL_RCC_GetAPB1Prescaler(void)
{
 8004264:	b580      	push	{r7, lr}
 8004266:	af00      	add	r7, sp, #0
  return (uint32_t)(READ_BIT(RCC->CFGR, RCC_CFGR_PPRE));
 8004268:	4b03      	ldr	r3, [pc, #12]	@ (8004278 <LL_RCC_GetAPB1Prescaler+0x14>)
 800426a:	689a      	ldr	r2, [r3, #8]
 800426c:	23e0      	movs	r3, #224	@ 0xe0
 800426e:	01db      	lsls	r3, r3, #7
 8004270:	4013      	ands	r3, r2
}
 8004272:	0018      	movs	r0, r3
 8004274:	46bd      	mov	sp, r7
 8004276:	bd80      	pop	{r7, pc}
 8004278:	40021000 	.word	0x40021000

0800427c <HAL_RCC_OscConfig>:
  *         supported by this function. User should request a transition to LSE Off
  *         first and then to LSE On or LSE Bypass.
  * @retval HAL status
  */
HAL_StatusTypeDef HAL_RCC_OscConfig(RCC_OscInitTypeDef  *RCC_OscInitStruct)
{
 800427c:	b580      	push	{r7, lr}
 800427e:	b088      	sub	sp, #32
 8004280:	af00      	add	r7, sp, #0
 8004282:	6078      	str	r0, [r7, #4]
  uint32_t tickstart;
  uint32_t temp_sysclksrc;
  uint32_t temp_pllckcfg;

  /* Check Null pointer */
  if (RCC_OscInitStruct == NULL)
 8004284:	687b      	ldr	r3, [r7, #4]
 8004286:	2b00      	cmp	r3, #0
 8004288:	d101      	bne.n	800428e <HAL_RCC_OscConfig+0x12>
  {
    return HAL_ERROR;
 800428a:	2301      	movs	r3, #1
 800428c:	e2fe      	b.n	800488c <HAL_RCC_OscConfig+0x610>

  /* Check the parameters */
  assert_param(IS_RCC_OSCILLATORTYPE(RCC_OscInitStruct->OscillatorType));

  /*------------------------------- HSE Configuration ------------------------*/
  if (((RCC_OscInitStruct->OscillatorType) & RCC_OSCILLATORTYPE_HSE) == RCC_OSCILLATORTYPE_HSE)
 800428e:	687b      	ldr	r3, [r7, #4]
 8004290:	681b      	ldr	r3, [r3, #0]
 8004292:	2201      	movs	r2, #1
 8004294:	4013      	ands	r3, r2
 8004296:	d100      	bne.n	800429a <HAL_RCC_OscConfig+0x1e>
 8004298:	e07c      	b.n	8004394 <HAL_RCC_OscConfig+0x118>
  {
    /* Check the parameters */
    assert_param(IS_RCC_HSE(RCC_OscInitStruct->HSEState));

    temp_sysclksrc = __HAL_RCC_GET_SYSCLK_SOURCE();
 800429a:	4bc3      	ldr	r3, [pc, #780]	@ (80045a8 <HAL_RCC_OscConfig+0x32c>)
 800429c:	689b      	ldr	r3, [r3, #8]
 800429e:	2238      	movs	r2, #56	@ 0x38
 80042a0:	4013      	ands	r3, r2
 80042a2:	61bb      	str	r3, [r7, #24]
    temp_pllckcfg = __HAL_RCC_GET_PLL_OSCSOURCE();
 80042a4:	4bc0      	ldr	r3, [pc, #768]	@ (80045a8 <HAL_RCC_OscConfig+0x32c>)
 80042a6:	68db      	ldr	r3, [r3, #12]
 80042a8:	2203      	movs	r2, #3
 80042aa:	4013      	ands	r3, r2
 80042ac:	617b      	str	r3, [r7, #20]

    /* When the HSE is used as system clock or clock source for PLL in these cases it is not allowed to be disabled */
    if (((temp_sysclksrc == RCC_SYSCLKSOURCE_STATUS_PLLCLK) && (temp_pllckcfg == RCC_PLLSOURCE_HSE))
 80042ae:	69bb      	ldr	r3, [r7, #24]
 80042b0:	2b10      	cmp	r3, #16
 80042b2:	d102      	bne.n	80042ba <HAL_RCC_OscConfig+0x3e>
 80042b4:	697b      	ldr	r3, [r7, #20]
 80042b6:	2b03      	cmp	r3, #3
 80042b8:	d002      	beq.n	80042c0 <HAL_RCC_OscConfig+0x44>
        || (temp_sysclksrc == RCC_SYSCLKSOURCE_STATUS_HSE))
 80042ba:	69bb      	ldr	r3, [r7, #24]
 80042bc:	2b08      	cmp	r3, #8
 80042be:	d10b      	bne.n	80042d8 <HAL_RCC_OscConfig+0x5c>
    {
      if ((READ_BIT(RCC->CR, RCC_CR_HSERDY) != 0U) && (RCC_OscInitStruct->HSEState == RCC_HSE_OFF))
 80042c0:	4bb9      	ldr	r3, [pc, #740]	@ (80045a8 <HAL_RCC_OscConfig+0x32c>)
 80042c2:	681a      	ldr	r2, [r3, #0]
 80042c4:	2380      	movs	r3, #128	@ 0x80
 80042c6:	029b      	lsls	r3, r3, #10
 80042c8:	4013      	ands	r3, r2
 80042ca:	d062      	beq.n	8004392 <HAL_RCC_OscConfig+0x116>
 80042cc:	687b      	ldr	r3, [r7, #4]
 80042ce:	685b      	ldr	r3, [r3, #4]
 80042d0:	2b00      	cmp	r3, #0
 80042d2:	d15e      	bne.n	8004392 <HAL_RCC_OscConfig+0x116>
      {
        return HAL_ERROR;
 80042d4:	2301      	movs	r3, #1
 80042d6:	e2d9      	b.n	800488c <HAL_RCC_OscConfig+0x610>
      }
    }
    else
    {
      /* Set the new HSE configuration ---------------------------------------*/
      __HAL_RCC_HSE_CONFIG(RCC_OscInitStruct->HSEState);
 80042d8:	687b      	ldr	r3, [r7, #4]
 80042da:	685a      	ldr	r2, [r3, #4]
 80042dc:	2380      	movs	r3, #128	@ 0x80
 80042de:	025b      	lsls	r3, r3, #9
 80042e0:	429a      	cmp	r2, r3
 80042e2:	d107      	bne.n	80042f4 <HAL_RCC_OscConfig+0x78>
 80042e4:	4bb0      	ldr	r3, [pc, #704]	@ (80045a8 <HAL_RCC_OscConfig+0x32c>)
 80042e6:	681a      	ldr	r2, [r3, #0]
 80042e8:	4baf      	ldr	r3, [pc, #700]	@ (80045a8 <HAL_RCC_OscConfig+0x32c>)
 80042ea:	2180      	movs	r1, #128	@ 0x80
 80042ec:	0249      	lsls	r1, r1, #9
 80042ee:	430a      	orrs	r2, r1
 80042f0:	601a      	str	r2, [r3, #0]
 80042f2:	e020      	b.n	8004336 <HAL_RCC_OscConfig+0xba>
 80042f4:	687b      	ldr	r3, [r7, #4]
 80042f6:	685a      	ldr	r2, [r3, #4]
 80042f8:	23a0      	movs	r3, #160	@ 0xa0
 80042fa:	02db      	lsls	r3, r3, #11
 80042fc:	429a      	cmp	r2, r3
 80042fe:	d10e      	bne.n	800431e <HAL_RCC_OscConfig+0xa2>
 8004300:	4ba9      	ldr	r3, [pc, #676]	@ (80045a8 <HAL_RCC_OscConfig+0x32c>)
 8004302:	681a      	ldr	r2, [r3, #0]
 8004304:	4ba8      	ldr	r3, [pc, #672]	@ (80045a8 <HAL_RCC_OscConfig+0x32c>)
 8004306:	2180      	movs	r1, #128	@ 0x80
 8004308:	02c9      	lsls	r1, r1, #11
 800430a:	430a      	orrs	r2, r1
 800430c:	601a      	str	r2, [r3, #0]
 800430e:	4ba6      	ldr	r3, [pc, #664]	@ (80045a8 <HAL_RCC_OscConfig+0x32c>)
 8004310:	681a      	ldr	r2, [r3, #0]
 8004312:	4ba5      	ldr	r3, [pc, #660]	@ (80045a8 <HAL_RCC_OscConfig+0x32c>)
 8004314:	2180      	movs	r1, #128	@ 0x80
 8004316:	0249      	lsls	r1, r1, #9
 8004318:	430a      	orrs	r2, r1
 800431a:	601a      	str	r2, [r3, #0]
 800431c:	e00b      	b.n	8004336 <HAL_RCC_OscConfig+0xba>
 800431e:	4ba2      	ldr	r3, [pc, #648]	@ (80045a8 <HAL_RCC_OscConfig+0x32c>)
 8004320:	681a      	ldr	r2, [r3, #0]
 8004322:	4ba1      	ldr	r3, [pc, #644]	@ (80045a8 <HAL_RCC_OscConfig+0x32c>)
 8004324:	49a1      	ldr	r1, [pc, #644]	@ (80045ac <HAL_RCC_OscConfig+0x330>)
 8004326:	400a      	ands	r2, r1
 8004328:	601a      	str	r2, [r3, #0]
 800432a:	4b9f      	ldr	r3, [pc, #636]	@ (80045a8 <HAL_RCC_OscConfig+0x32c>)
 800432c:	681a      	ldr	r2, [r3, #0]
 800432e:	4b9e      	ldr	r3, [pc, #632]	@ (80045a8 <HAL_RCC_OscConfig+0x32c>)
 8004330:	499f      	ldr	r1, [pc, #636]	@ (80045b0 <HAL_RCC_OscConfig+0x334>)
 8004332:	400a      	ands	r2, r1
 8004334:	601a      	str	r2, [r3, #0]

      /* Check the HSE State */
      if (RCC_OscInitStruct->HSEState != RCC_HSE_OFF)
 8004336:	687b      	ldr	r3, [r7, #4]
 8004338:	685b      	ldr	r3, [r3, #4]
 800433a:	2b00      	cmp	r3, #0
 800433c:	d014      	beq.n	8004368 <HAL_RCC_OscConfig+0xec>
      {
        /* Get Start Tick*/
        tickstart = HAL_GetTick();
 800433e:	f7fd fdcd 	bl	8001edc <HAL_GetTick>
 8004342:	0003      	movs	r3, r0
 8004344:	613b      	str	r3, [r7, #16]

        /* Wait till HSE is ready */
        while (READ_BIT(RCC->CR, RCC_CR_HSERDY) == 0U)
 8004346:	e008      	b.n	800435a <HAL_RCC_OscConfig+0xde>
        {
          if ((HAL_GetTick() - tickstart) > HSE_TIMEOUT_VALUE)
 8004348:	f7fd fdc8 	bl	8001edc <HAL_GetTick>
 800434c:	0002      	movs	r2, r0
 800434e:	693b      	ldr	r3, [r7, #16]
 8004350:	1ad3      	subs	r3, r2, r3
 8004352:	2b64      	cmp	r3, #100	@ 0x64
 8004354:	d901      	bls.n	800435a <HAL_RCC_OscConfig+0xde>
          {
            return HAL_TIMEOUT;
 8004356:	2303      	movs	r3, #3
 8004358:	e298      	b.n	800488c <HAL_RCC_OscConfig+0x610>
        while (READ_BIT(RCC->CR, RCC_CR_HSERDY) == 0U)
 800435a:	4b93      	ldr	r3, [pc, #588]	@ (80045a8 <HAL_RCC_OscConfig+0x32c>)
 800435c:	681a      	ldr	r2, [r3, #0]
 800435e:	2380      	movs	r3, #128	@ 0x80
 8004360:	029b      	lsls	r3, r3, #10
 8004362:	4013      	ands	r3, r2
 8004364:	d0f0      	beq.n	8004348 <HAL_RCC_OscConfig+0xcc>
 8004366:	e015      	b.n	8004394 <HAL_RCC_OscConfig+0x118>
        }
      }
      else
      {
        /* Get Start Tick*/
        tickstart = HAL_GetTick();
 8004368:	f7fd fdb8 	bl	8001edc <HAL_GetTick>
 800436c:	0003      	movs	r3, r0
 800436e:	613b      	str	r3, [r7, #16]

        /* Wait till HSE is disabled */
        while (READ_BIT(RCC->CR, RCC_CR_HSERDY) != 0U)
 8004370:	e008      	b.n	8004384 <HAL_RCC_OscConfig+0x108>
        {
          if ((HAL_GetTick() - tickstart) > HSE_TIMEOUT_VALUE)
 8004372:	f7fd fdb3 	bl	8001edc <HAL_GetTick>
 8004376:	0002      	movs	r2, r0
 8004378:	693b      	ldr	r3, [r7, #16]
 800437a:	1ad3      	subs	r3, r2, r3
 800437c:	2b64      	cmp	r3, #100	@ 0x64
 800437e:	d901      	bls.n	8004384 <HAL_RCC_OscConfig+0x108>
          {
            return HAL_TIMEOUT;
 8004380:	2303      	movs	r3, #3
 8004382:	e283      	b.n	800488c <HAL_RCC_OscConfig+0x610>
        while (READ_BIT(RCC->CR, RCC_CR_HSERDY) != 0U)
 8004384:	4b88      	ldr	r3, [pc, #544]	@ (80045a8 <HAL_RCC_OscConfig+0x32c>)
 8004386:	681a      	ldr	r2, [r3, #0]
 8004388:	2380      	movs	r3, #128	@ 0x80
 800438a:	029b      	lsls	r3, r3, #10
 800438c:	4013      	ands	r3, r2
 800438e:	d1f0      	bne.n	8004372 <HAL_RCC_OscConfig+0xf6>
 8004390:	e000      	b.n	8004394 <HAL_RCC_OscConfig+0x118>
      if ((READ_BIT(RCC->CR, RCC_CR_HSERDY) != 0U) && (RCC_OscInitStruct->HSEState == RCC_HSE_OFF))
 8004392:	46c0      	nop			@ (mov r8, r8)
        }
      }
    }
  }
  /*----------------------------- HSI Configuration --------------------------*/
  if (((RCC_OscInitStruct->OscillatorType) & RCC_OSCILLATORTYPE_HSI) == RCC_OSCILLATORTYPE_HSI)
 8004394:	687b      	ldr	r3, [r7, #4]
 8004396:	681b      	ldr	r3, [r3, #0]
 8004398:	2202      	movs	r2, #2
 800439a:	4013      	ands	r3, r2
 800439c:	d100      	bne.n	80043a0 <HAL_RCC_OscConfig+0x124>
 800439e:	e099      	b.n	80044d4 <HAL_RCC_OscConfig+0x258>
    assert_param(IS_RCC_HSI(RCC_OscInitStruct->HSIState));
    assert_param(IS_RCC_HSI_CALIBRATION_VALUE(RCC_OscInitStruct->HSICalibrationValue));
    assert_param(IS_RCC_HSIDIV(RCC_OscInitStruct->HSIDiv));

    /* Check if HSI16 is used as system clock or as PLL source when PLL is selected as system clock */
    temp_sysclksrc = __HAL_RCC_GET_SYSCLK_SOURCE();
 80043a0:	4b81      	ldr	r3, [pc, #516]	@ (80045a8 <HAL_RCC_OscConfig+0x32c>)
 80043a2:	689b      	ldr	r3, [r3, #8]
 80043a4:	2238      	movs	r2, #56	@ 0x38
 80043a6:	4013      	ands	r3, r2
 80043a8:	61bb      	str	r3, [r7, #24]
    temp_pllckcfg = __HAL_RCC_GET_PLL_OSCSOURCE();
 80043aa:	4b7f      	ldr	r3, [pc, #508]	@ (80045a8 <HAL_RCC_OscConfig+0x32c>)
 80043ac:	68db      	ldr	r3, [r3, #12]
 80043ae:	2203      	movs	r2, #3
 80043b0:	4013      	ands	r3, r2
 80043b2:	617b      	str	r3, [r7, #20]
    if (((temp_sysclksrc == RCC_SYSCLKSOURCE_STATUS_PLLCLK) && (temp_pllckcfg == RCC_PLLSOURCE_HSI))
 80043b4:	69bb      	ldr	r3, [r7, #24]
 80043b6:	2b10      	cmp	r3, #16
 80043b8:	d102      	bne.n	80043c0 <HAL_RCC_OscConfig+0x144>
 80043ba:	697b      	ldr	r3, [r7, #20]
 80043bc:	2b02      	cmp	r3, #2
 80043be:	d002      	beq.n	80043c6 <HAL_RCC_OscConfig+0x14a>
        || (temp_sysclksrc == RCC_SYSCLKSOURCE_STATUS_HSI))
 80043c0:	69bb      	ldr	r3, [r7, #24]
 80043c2:	2b00      	cmp	r3, #0
 80043c4:	d135      	bne.n	8004432 <HAL_RCC_OscConfig+0x1b6>
    {
      /* When HSI is used as system clock or as PLL input clock it can not be disabled */
      if ((READ_BIT(RCC->CR, RCC_CR_HSIRDY) != 0U) && (RCC_OscInitStruct->HSIState == RCC_HSI_OFF))
 80043c6:	4b78      	ldr	r3, [pc, #480]	@ (80045a8 <HAL_RCC_OscConfig+0x32c>)
 80043c8:	681a      	ldr	r2, [r3, #0]
 80043ca:	2380      	movs	r3, #128	@ 0x80
 80043cc:	00db      	lsls	r3, r3, #3
 80043ce:	4013      	ands	r3, r2
 80043d0:	d005      	beq.n	80043de <HAL_RCC_OscConfig+0x162>
 80043d2:	687b      	ldr	r3, [r7, #4]
 80043d4:	68db      	ldr	r3, [r3, #12]
 80043d6:	2b00      	cmp	r3, #0
 80043d8:	d101      	bne.n	80043de <HAL_RCC_OscConfig+0x162>
      {
        return HAL_ERROR;
 80043da:	2301      	movs	r3, #1
 80043dc:	e256      	b.n	800488c <HAL_RCC_OscConfig+0x610>
      }
      /* Otherwise, just the calibration is allowed */
      else
      {
        /* Adjusts the Internal High Speed oscillator (HSI) calibration value.*/
        __HAL_RCC_HSI_CALIBRATIONVALUE_ADJUST(RCC_OscInitStruct->HSICalibrationValue);
 80043de:	4b72      	ldr	r3, [pc, #456]	@ (80045a8 <HAL_RCC_OscConfig+0x32c>)
 80043e0:	685b      	ldr	r3, [r3, #4]
 80043e2:	4a74      	ldr	r2, [pc, #464]	@ (80045b4 <HAL_RCC_OscConfig+0x338>)
 80043e4:	4013      	ands	r3, r2
 80043e6:	0019      	movs	r1, r3
 80043e8:	687b      	ldr	r3, [r7, #4]
 80043ea:	695b      	ldr	r3, [r3, #20]
 80043ec:	021a      	lsls	r2, r3, #8
 80043ee:	4b6e      	ldr	r3, [pc, #440]	@ (80045a8 <HAL_RCC_OscConfig+0x32c>)
 80043f0:	430a      	orrs	r2, r1
 80043f2:	605a      	str	r2, [r3, #4]

        if (temp_sysclksrc == RCC_SYSCLKSOURCE_STATUS_HSI)
 80043f4:	69bb      	ldr	r3, [r7, #24]
 80043f6:	2b00      	cmp	r3, #0
 80043f8:	d112      	bne.n	8004420 <HAL_RCC_OscConfig+0x1a4>
        {
          /* Adjust the HSI16 division factor */
          __HAL_RCC_HSI_CONFIG(RCC_OscInitStruct->HSIDiv);
 80043fa:	4b6b      	ldr	r3, [pc, #428]	@ (80045a8 <HAL_RCC_OscConfig+0x32c>)
 80043fc:	681b      	ldr	r3, [r3, #0]
 80043fe:	4a6e      	ldr	r2, [pc, #440]	@ (80045b8 <HAL_RCC_OscConfig+0x33c>)
 8004400:	4013      	ands	r3, r2
 8004402:	0019      	movs	r1, r3
 8004404:	687b      	ldr	r3, [r7, #4]
 8004406:	691a      	ldr	r2, [r3, #16]
 8004408:	4b67      	ldr	r3, [pc, #412]	@ (80045a8 <HAL_RCC_OscConfig+0x32c>)
 800440a:	430a      	orrs	r2, r1
 800440c:	601a      	str	r2, [r3, #0]

          /* Update the SystemCoreClock global variable with HSISYS value  */
          SystemCoreClock = (HSI_VALUE / (1UL << ((READ_BIT(RCC->CR, RCC_CR_HSIDIV)) >> RCC_CR_HSIDIV_Pos)));
 800440e:	4b66      	ldr	r3, [pc, #408]	@ (80045a8 <HAL_RCC_OscConfig+0x32c>)
 8004410:	681b      	ldr	r3, [r3, #0]
 8004412:	0adb      	lsrs	r3, r3, #11
 8004414:	2207      	movs	r2, #7
 8004416:	4013      	ands	r3, r2
 8004418:	4a68      	ldr	r2, [pc, #416]	@ (80045bc <HAL_RCC_OscConfig+0x340>)
 800441a:	40da      	lsrs	r2, r3
 800441c:	4b68      	ldr	r3, [pc, #416]	@ (80045c0 <HAL_RCC_OscConfig+0x344>)
 800441e:	601a      	str	r2, [r3, #0]
        }

        /* Adapt Systick interrupt period */
        if (HAL_InitTick(uwTickPrio) != HAL_OK)
 8004420:	4b68      	ldr	r3, [pc, #416]	@ (80045c4 <HAL_RCC_OscConfig+0x348>)
 8004422:	681b      	ldr	r3, [r3, #0]
 8004424:	0018      	movs	r0, r3
 8004426:	f7fd fcfd 	bl	8001e24 <HAL_InitTick>
 800442a:	1e03      	subs	r3, r0, #0
 800442c:	d051      	beq.n	80044d2 <HAL_RCC_OscConfig+0x256>
        {
          return HAL_ERROR;
 800442e:	2301      	movs	r3, #1
 8004430:	e22c      	b.n	800488c <HAL_RCC_OscConfig+0x610>
      }
    }
    else
    {
      /* Check the HSI State */
      if (RCC_OscInitStruct->HSIState != RCC_HSI_OFF)
 8004432:	687b      	ldr	r3, [r7, #4]
 8004434:	68db      	ldr	r3, [r3, #12]
 8004436:	2b00      	cmp	r3, #0
 8004438:	d030      	beq.n	800449c <HAL_RCC_OscConfig+0x220>
      {
        /* Configure the HSI16 division factor */
        __HAL_RCC_HSI_CONFIG(RCC_OscInitStruct->HSIDiv);
 800443a:	4b5b      	ldr	r3, [pc, #364]	@ (80045a8 <HAL_RCC_OscConfig+0x32c>)
 800443c:	681b      	ldr	r3, [r3, #0]
 800443e:	4a5e      	ldr	r2, [pc, #376]	@ (80045b8 <HAL_RCC_OscConfig+0x33c>)
 8004440:	4013      	ands	r3, r2
 8004442:	0019      	movs	r1, r3
 8004444:	687b      	ldr	r3, [r7, #4]
 8004446:	691a      	ldr	r2, [r3, #16]
 8004448:	4b57      	ldr	r3, [pc, #348]	@ (80045a8 <HAL_RCC_OscConfig+0x32c>)
 800444a:	430a      	orrs	r2, r1
 800444c:	601a      	str	r2, [r3, #0]

        /* Enable the Internal High Speed oscillator (HSI16). */
        __HAL_RCC_HSI_ENABLE();
 800444e:	4b56      	ldr	r3, [pc, #344]	@ (80045a8 <HAL_RCC_OscConfig+0x32c>)
 8004450:	681a      	ldr	r2, [r3, #0]
 8004452:	4b55      	ldr	r3, [pc, #340]	@ (80045a8 <HAL_RCC_OscConfig+0x32c>)
 8004454:	2180      	movs	r1, #128	@ 0x80
 8004456:	0049      	lsls	r1, r1, #1
 8004458:	430a      	orrs	r2, r1
 800445a:	601a      	str	r2, [r3, #0]

        /* Get Start Tick*/
        tickstart = HAL_GetTick();
 800445c:	f7fd fd3e 	bl	8001edc <HAL_GetTick>
 8004460:	0003      	movs	r3, r0
 8004462:	613b      	str	r3, [r7, #16]

        /* Wait till HSI is ready */
        while (READ_BIT(RCC->CR, RCC_CR_HSIRDY) == 0U)
 8004464:	e008      	b.n	8004478 <HAL_RCC_OscConfig+0x1fc>
        {
          if ((HAL_GetTick() - tickstart) > HSI_TIMEOUT_VALUE)
 8004466:	f7fd fd39 	bl	8001edc <HAL_GetTick>
 800446a:	0002      	movs	r2, r0
 800446c:	693b      	ldr	r3, [r7, #16]
 800446e:	1ad3      	subs	r3, r2, r3
 8004470:	2b02      	cmp	r3, #2
 8004472:	d901      	bls.n	8004478 <HAL_RCC_OscConfig+0x1fc>
          {
            return HAL_TIMEOUT;
 8004474:	2303      	movs	r3, #3
 8004476:	e209      	b.n	800488c <HAL_RCC_OscConfig+0x610>
        while (READ_BIT(RCC->CR, RCC_CR_HSIRDY) == 0U)
 8004478:	4b4b      	ldr	r3, [pc, #300]	@ (80045a8 <HAL_RCC_OscConfig+0x32c>)
 800447a:	681a      	ldr	r2, [r3, #0]
 800447c:	2380      	movs	r3, #128	@ 0x80
 800447e:	00db      	lsls	r3, r3, #3
 8004480:	4013      	ands	r3, r2
 8004482:	d0f0      	beq.n	8004466 <HAL_RCC_OscConfig+0x1ea>
          }
        }

        /* Adjusts the Internal High Speed oscillator (HSI) calibration value.*/
        __HAL_RCC_HSI_CALIBRATIONVALUE_ADJUST(RCC_OscInitStruct->HSICalibrationValue);
 8004484:	4b48      	ldr	r3, [pc, #288]	@ (80045a8 <HAL_RCC_OscConfig+0x32c>)
 8004486:	685b      	ldr	r3, [r3, #4]
 8004488:	4a4a      	ldr	r2, [pc, #296]	@ (80045b4 <HAL_RCC_OscConfig+0x338>)
 800448a:	4013      	ands	r3, r2
 800448c:	0019      	movs	r1, r3
 800448e:	687b      	ldr	r3, [r7, #4]
 8004490:	695b      	ldr	r3, [r3, #20]
 8004492:	021a      	lsls	r2, r3, #8
 8004494:	4b44      	ldr	r3, [pc, #272]	@ (80045a8 <HAL_RCC_OscConfig+0x32c>)
 8004496:	430a      	orrs	r2, r1
 8004498:	605a      	str	r2, [r3, #4]
 800449a:	e01b      	b.n	80044d4 <HAL_RCC_OscConfig+0x258>
      }
      else
      {
        /* Disable the Internal High Speed oscillator (HSI16). */
        __HAL_RCC_HSI_DISABLE();
 800449c:	4b42      	ldr	r3, [pc, #264]	@ (80045a8 <HAL_RCC_OscConfig+0x32c>)
 800449e:	681a      	ldr	r2, [r3, #0]
 80044a0:	4b41      	ldr	r3, [pc, #260]	@ (80045a8 <HAL_RCC_OscConfig+0x32c>)
 80044a2:	4949      	ldr	r1, [pc, #292]	@ (80045c8 <HAL_RCC_OscConfig+0x34c>)
 80044a4:	400a      	ands	r2, r1
 80044a6:	601a      	str	r2, [r3, #0]

        /* Get Start Tick*/
        tickstart = HAL_GetTick();
 80044a8:	f7fd fd18 	bl	8001edc <HAL_GetTick>
 80044ac:	0003      	movs	r3, r0
 80044ae:	613b      	str	r3, [r7, #16]

        /* Wait till HSI is disabled */
        while (READ_BIT(RCC->CR, RCC_CR_HSIRDY) != 0U)
 80044b0:	e008      	b.n	80044c4 <HAL_RCC_OscConfig+0x248>
        {
          if ((HAL_GetTick() - tickstart) > HSI_TIMEOUT_VALUE)
 80044b2:	f7fd fd13 	bl	8001edc <HAL_GetTick>
 80044b6:	0002      	movs	r2, r0
 80044b8:	693b      	ldr	r3, [r7, #16]
 80044ba:	1ad3      	subs	r3, r2, r3
 80044bc:	2b02      	cmp	r3, #2
 80044be:	d901      	bls.n	80044c4 <HAL_RCC_OscConfig+0x248>
          {
            return HAL_TIMEOUT;
 80044c0:	2303      	movs	r3, #3
 80044c2:	e1e3      	b.n	800488c <HAL_RCC_OscConfig+0x610>
        while (READ_BIT(RCC->CR, RCC_CR_HSIRDY) != 0U)
 80044c4:	4b38      	ldr	r3, [pc, #224]	@ (80045a8 <HAL_RCC_OscConfig+0x32c>)
 80044c6:	681a      	ldr	r2, [r3, #0]
 80044c8:	2380      	movs	r3, #128	@ 0x80
 80044ca:	00db      	lsls	r3, r3, #3
 80044cc:	4013      	ands	r3, r2
 80044ce:	d1f0      	bne.n	80044b2 <HAL_RCC_OscConfig+0x236>
 80044d0:	e000      	b.n	80044d4 <HAL_RCC_OscConfig+0x258>
      if ((READ_BIT(RCC->CR, RCC_CR_HSIRDY) != 0U) && (RCC_OscInitStruct->HSIState == RCC_HSI_OFF))
 80044d2:	46c0      	nop			@ (mov r8, r8)
        }
      }
    }
  }
  /*------------------------------ LSI Configuration -------------------------*/
  if (((RCC_OscInitStruct->OscillatorType) & RCC_OSCILLATORTYPE_LSI) == RCC_OSCILLATORTYPE_LSI)
 80044d4:	687b      	ldr	r3, [r7, #4]
 80044d6:	681b      	ldr	r3, [r3, #0]
 80044d8:	2208      	movs	r2, #8
 80044da:	4013      	ands	r3, r2
 80044dc:	d047      	beq.n	800456e <HAL_RCC_OscConfig+0x2f2>
  {
    /* Check the parameters */
    assert_param(IS_RCC_LSI(RCC_OscInitStruct->LSIState));

    /* Check if LSI is used as system clock */
    if (__HAL_RCC_GET_SYSCLK_SOURCE() == RCC_SYSCLKSOURCE_STATUS_LSI)
 80044de:	4b32      	ldr	r3, [pc, #200]	@ (80045a8 <HAL_RCC_OscConfig+0x32c>)
 80044e0:	689b      	ldr	r3, [r3, #8]
 80044e2:	2238      	movs	r2, #56	@ 0x38
 80044e4:	4013      	ands	r3, r2
 80044e6:	2b18      	cmp	r3, #24
 80044e8:	d10a      	bne.n	8004500 <HAL_RCC_OscConfig+0x284>
    {
      /* When LSI is used as system clock it will not be disabled */
      if ((((RCC->CSR) & RCC_CSR_LSIRDY) != 0U) && (RCC_OscInitStruct->LSIState == RCC_LSI_OFF))
 80044ea:	4b2f      	ldr	r3, [pc, #188]	@ (80045a8 <HAL_RCC_OscConfig+0x32c>)
 80044ec:	6e1b      	ldr	r3, [r3, #96]	@ 0x60
 80044ee:	2202      	movs	r2, #2
 80044f0:	4013      	ands	r3, r2
 80044f2:	d03c      	beq.n	800456e <HAL_RCC_OscConfig+0x2f2>
 80044f4:	687b      	ldr	r3, [r7, #4]
 80044f6:	699b      	ldr	r3, [r3, #24]
 80044f8:	2b00      	cmp	r3, #0
 80044fa:	d138      	bne.n	800456e <HAL_RCC_OscConfig+0x2f2>
      {
        return HAL_ERROR;
 80044fc:	2301      	movs	r3, #1
 80044fe:	e1c5      	b.n	800488c <HAL_RCC_OscConfig+0x610>
      }
    }
    else
    {
      /* Check the LSI State */
      if (RCC_OscInitStruct->LSIState != RCC_LSI_OFF)
 8004500:	687b      	ldr	r3, [r7, #4]
 8004502:	699b      	ldr	r3, [r3, #24]
 8004504:	2b00      	cmp	r3, #0
 8004506:	d019      	beq.n	800453c <HAL_RCC_OscConfig+0x2c0>
      {
        /* Enable the Internal Low Speed oscillator (LSI). */
        __HAL_RCC_LSI_ENABLE();
 8004508:	4b27      	ldr	r3, [pc, #156]	@ (80045a8 <HAL_RCC_OscConfig+0x32c>)
 800450a:	6e1a      	ldr	r2, [r3, #96]	@ 0x60
 800450c:	4b26      	ldr	r3, [pc, #152]	@ (80045a8 <HAL_RCC_OscConfig+0x32c>)
 800450e:	2101      	movs	r1, #1
 8004510:	430a      	orrs	r2, r1
 8004512:	661a      	str	r2, [r3, #96]	@ 0x60

        /* Get Start Tick*/
        tickstart = HAL_GetTick();
 8004514:	f7fd fce2 	bl	8001edc <HAL_GetTick>
 8004518:	0003      	movs	r3, r0
 800451a:	613b      	str	r3, [r7, #16]

        /* Wait till LSI is ready */
        while (READ_BIT(RCC->CSR, RCC_CSR_LSIRDY) == 0U)
 800451c:	e008      	b.n	8004530 <HAL_RCC_OscConfig+0x2b4>
        {
          if ((HAL_GetTick() - tickstart) > LSI_TIMEOUT_VALUE)
 800451e:	f7fd fcdd 	bl	8001edc <HAL_GetTick>
 8004522:	0002      	movs	r2, r0
 8004524:	693b      	ldr	r3, [r7, #16]
 8004526:	1ad3      	subs	r3, r2, r3
 8004528:	2b02      	cmp	r3, #2
 800452a:	d901      	bls.n	8004530 <HAL_RCC_OscConfig+0x2b4>
          {
            return HAL_TIMEOUT;
 800452c:	2303      	movs	r3, #3
 800452e:	e1ad      	b.n	800488c <HAL_RCC_OscConfig+0x610>
        while (READ_BIT(RCC->CSR, RCC_CSR_LSIRDY) == 0U)
 8004530:	4b1d      	ldr	r3, [pc, #116]	@ (80045a8 <HAL_RCC_OscConfig+0x32c>)
 8004532:	6e1b      	ldr	r3, [r3, #96]	@ 0x60
 8004534:	2202      	movs	r2, #2
 8004536:	4013      	ands	r3, r2
 8004538:	d0f1      	beq.n	800451e <HAL_RCC_OscConfig+0x2a2>
 800453a:	e018      	b.n	800456e <HAL_RCC_OscConfig+0x2f2>
        }
      }
      else
      {
        /* Disable the Internal Low Speed oscillator (LSI). */
        __HAL_RCC_LSI_DISABLE();
 800453c:	4b1a      	ldr	r3, [pc, #104]	@ (80045a8 <HAL_RCC_OscConfig+0x32c>)
 800453e:	6e1a      	ldr	r2, [r3, #96]	@ 0x60
 8004540:	4b19      	ldr	r3, [pc, #100]	@ (80045a8 <HAL_RCC_OscConfig+0x32c>)
 8004542:	2101      	movs	r1, #1
 8004544:	438a      	bics	r2, r1
 8004546:	661a      	str	r2, [r3, #96]	@ 0x60

        /* Get Start Tick*/
        tickstart = HAL_GetTick();
 8004548:	f7fd fcc8 	bl	8001edc <HAL_GetTick>
 800454c:	0003      	movs	r3, r0
 800454e:	613b      	str	r3, [r7, #16]

        /* Wait till LSI is disabled */
        while (READ_BIT(RCC->CSR, RCC_CSR_LSIRDY) != 0U)
 8004550:	e008      	b.n	8004564 <HAL_RCC_OscConfig+0x2e8>
        {
          if ((HAL_GetTick() - tickstart) > LSI_TIMEOUT_VALUE)
 8004552:	f7fd fcc3 	bl	8001edc <HAL_GetTick>
 8004556:	0002      	movs	r2, r0
 8004558:	693b      	ldr	r3, [r7, #16]
 800455a:	1ad3      	subs	r3, r2, r3
 800455c:	2b02      	cmp	r3, #2
 800455e:	d901      	bls.n	8004564 <HAL_RCC_OscConfig+0x2e8>
          {
            return HAL_TIMEOUT;
 8004560:	2303      	movs	r3, #3
 8004562:	e193      	b.n	800488c <HAL_RCC_OscConfig+0x610>
        while (READ_BIT(RCC->CSR, RCC_CSR_LSIRDY) != 0U)
 8004564:	4b10      	ldr	r3, [pc, #64]	@ (80045a8 <HAL_RCC_OscConfig+0x32c>)
 8004566:	6e1b      	ldr	r3, [r3, #96]	@ 0x60
 8004568:	2202      	movs	r2, #2
 800456a:	4013      	ands	r3, r2
 800456c:	d1f1      	bne.n	8004552 <HAL_RCC_OscConfig+0x2d6>
        }
      }
    }
  }
  /*------------------------------ LSE Configuration -------------------------*/
  if (((RCC_OscInitStruct->OscillatorType) & RCC_OSCILLATORTYPE_LSE) == RCC_OSCILLATORTYPE_LSE)
 800456e:	687b      	ldr	r3, [r7, #4]
 8004570:	681b      	ldr	r3, [r3, #0]
 8004572:	2204      	movs	r2, #4
 8004574:	4013      	ands	r3, r2
 8004576:	d100      	bne.n	800457a <HAL_RCC_OscConfig+0x2fe>
 8004578:	e0c6      	b.n	8004708 <HAL_RCC_OscConfig+0x48c>
  {
    FlagStatus       pwrclkchanged = RESET;
 800457a:	231f      	movs	r3, #31
 800457c:	18fb      	adds	r3, r7, r3
 800457e:	2200      	movs	r2, #0
 8004580:	701a      	strb	r2, [r3, #0]

    /* Check the parameters */
    assert_param(IS_RCC_LSE(RCC_OscInitStruct->LSEState));

    /* When the LSE is used as system clock, it is not allowed disable it */
    if (__HAL_RCC_GET_SYSCLK_SOURCE() == RCC_SYSCLKSOURCE_STATUS_LSE)
 8004582:	4b09      	ldr	r3, [pc, #36]	@ (80045a8 <HAL_RCC_OscConfig+0x32c>)
 8004584:	689b      	ldr	r3, [r3, #8]
 8004586:	2238      	movs	r2, #56	@ 0x38
 8004588:	4013      	ands	r3, r2
 800458a:	2b20      	cmp	r3, #32
 800458c:	d11e      	bne.n	80045cc <HAL_RCC_OscConfig+0x350>
    {
      if ((((RCC->BDCR) & RCC_BDCR_LSERDY) != 0U) && (RCC_OscInitStruct->LSEState == RCC_LSE_OFF))
 800458e:	4b06      	ldr	r3, [pc, #24]	@ (80045a8 <HAL_RCC_OscConfig+0x32c>)
 8004590:	6ddb      	ldr	r3, [r3, #92]	@ 0x5c
 8004592:	2202      	movs	r2, #2
 8004594:	4013      	ands	r3, r2
 8004596:	d100      	bne.n	800459a <HAL_RCC_OscConfig+0x31e>
 8004598:	e0b6      	b.n	8004708 <HAL_RCC_OscConfig+0x48c>
 800459a:	687b      	ldr	r3, [r7, #4]
 800459c:	689b      	ldr	r3, [r3, #8]
 800459e:	2b00      	cmp	r3, #0
 80045a0:	d000      	beq.n	80045a4 <HAL_RCC_OscConfig+0x328>
 80045a2:	e0b1      	b.n	8004708 <HAL_RCC_OscConfig+0x48c>
      {
        return HAL_ERROR;
 80045a4:	2301      	movs	r3, #1
 80045a6:	e171      	b.n	800488c <HAL_RCC_OscConfig+0x610>
 80045a8:	40021000 	.word	0x40021000
 80045ac:	fffeffff 	.word	0xfffeffff
 80045b0:	fffbffff 	.word	0xfffbffff
 80045b4:	ffff80ff 	.word	0xffff80ff
 80045b8:	ffffc7ff 	.word	0xffffc7ff
 80045bc:	00f42400 	.word	0x00f42400
 80045c0:	2000001c 	.word	0x2000001c
 80045c4:	20000020 	.word	0x20000020
 80045c8:	fffffeff 	.word	0xfffffeff
    }
    else
    {
      /* Update LSE configuration in Backup Domain control register    */
      /* Requires to enable write access to Backup Domain of necessary */
      if (__HAL_RCC_PWR_IS_CLK_DISABLED() != 0U)
 80045cc:	4bb1      	ldr	r3, [pc, #708]	@ (8004894 <HAL_RCC_OscConfig+0x618>)
 80045ce:	6bda      	ldr	r2, [r3, #60]	@ 0x3c
 80045d0:	2380      	movs	r3, #128	@ 0x80
 80045d2:	055b      	lsls	r3, r3, #21
 80045d4:	4013      	ands	r3, r2
 80045d6:	d101      	bne.n	80045dc <HAL_RCC_OscConfig+0x360>
 80045d8:	2301      	movs	r3, #1
 80045da:	e000      	b.n	80045de <HAL_RCC_OscConfig+0x362>
 80045dc:	2300      	movs	r3, #0
 80045de:	2b00      	cmp	r3, #0
 80045e0:	d011      	beq.n	8004606 <HAL_RCC_OscConfig+0x38a>
      {
        __HAL_RCC_PWR_CLK_ENABLE();
 80045e2:	4bac      	ldr	r3, [pc, #688]	@ (8004894 <HAL_RCC_OscConfig+0x618>)
 80045e4:	6bda      	ldr	r2, [r3, #60]	@ 0x3c
 80045e6:	4bab      	ldr	r3, [pc, #684]	@ (8004894 <HAL_RCC_OscConfig+0x618>)
 80045e8:	2180      	movs	r1, #128	@ 0x80
 80045ea:	0549      	lsls	r1, r1, #21
 80045ec:	430a      	orrs	r2, r1
 80045ee:	63da      	str	r2, [r3, #60]	@ 0x3c
 80045f0:	4ba8      	ldr	r3, [pc, #672]	@ (8004894 <HAL_RCC_OscConfig+0x618>)
 80045f2:	6bda      	ldr	r2, [r3, #60]	@ 0x3c
 80045f4:	2380      	movs	r3, #128	@ 0x80
 80045f6:	055b      	lsls	r3, r3, #21
 80045f8:	4013      	ands	r3, r2
 80045fa:	60fb      	str	r3, [r7, #12]
 80045fc:	68fb      	ldr	r3, [r7, #12]
        pwrclkchanged = SET;
 80045fe:	231f      	movs	r3, #31
 8004600:	18fb      	adds	r3, r7, r3
 8004602:	2201      	movs	r2, #1
 8004604:	701a      	strb	r2, [r3, #0]
      }

      if (HAL_IS_BIT_CLR(PWR->CR1, PWR_CR1_DBP))
 8004606:	4ba4      	ldr	r3, [pc, #656]	@ (8004898 <HAL_RCC_OscConfig+0x61c>)
 8004608:	681a      	ldr	r2, [r3, #0]
 800460a:	2380      	movs	r3, #128	@ 0x80
 800460c:	005b      	lsls	r3, r3, #1
 800460e:	4013      	ands	r3, r2
 8004610:	d11a      	bne.n	8004648 <HAL_RCC_OscConfig+0x3cc>
      {
        /* Enable write access to Backup domain */
        SET_BIT(PWR->CR1, PWR_CR1_DBP);
 8004612:	4ba1      	ldr	r3, [pc, #644]	@ (8004898 <HAL_RCC_OscConfig+0x61c>)
 8004614:	681a      	ldr	r2, [r3, #0]
 8004616:	4ba0      	ldr	r3, [pc, #640]	@ (8004898 <HAL_RCC_OscConfig+0x61c>)
 8004618:	2180      	movs	r1, #128	@ 0x80
 800461a:	0049      	lsls	r1, r1, #1
 800461c:	430a      	orrs	r2, r1
 800461e:	601a      	str	r2, [r3, #0]

        /* Wait for Backup domain Write protection disable */
        tickstart = HAL_GetTick();
 8004620:	f7fd fc5c 	bl	8001edc <HAL_GetTick>
 8004624:	0003      	movs	r3, r0
 8004626:	613b      	str	r3, [r7, #16]

        while (HAL_IS_BIT_CLR(PWR->CR1, PWR_CR1_DBP))
 8004628:	e008      	b.n	800463c <HAL_RCC_OscConfig+0x3c0>
        {
          if ((HAL_GetTick() - tickstart) > RCC_DBP_TIMEOUT_VALUE)
 800462a:	f7fd fc57 	bl	8001edc <HAL_GetTick>
 800462e:	0002      	movs	r2, r0
 8004630:	693b      	ldr	r3, [r7, #16]
 8004632:	1ad3      	subs	r3, r2, r3
 8004634:	2b02      	cmp	r3, #2
 8004636:	d901      	bls.n	800463c <HAL_RCC_OscConfig+0x3c0>
          {
            return HAL_TIMEOUT;
 8004638:	2303      	movs	r3, #3
 800463a:	e127      	b.n	800488c <HAL_RCC_OscConfig+0x610>
        while (HAL_IS_BIT_CLR(PWR->CR1, PWR_CR1_DBP))
 800463c:	4b96      	ldr	r3, [pc, #600]	@ (8004898 <HAL_RCC_OscConfig+0x61c>)
 800463e:	681a      	ldr	r2, [r3, #0]
 8004640:	2380      	movs	r3, #128	@ 0x80
 8004642:	005b      	lsls	r3, r3, #1
 8004644:	4013      	ands	r3, r2
 8004646:	d0f0      	beq.n	800462a <HAL_RCC_OscConfig+0x3ae>
          }
        }
      }

      /* Set the new LSE configuration -----------------------------------------*/
      __HAL_RCC_LSE_CONFIG(RCC_OscInitStruct->LSEState);
 8004648:	687b      	ldr	r3, [r7, #4]
 800464a:	689b      	ldr	r3, [r3, #8]
 800464c:	2b01      	cmp	r3, #1
 800464e:	d106      	bne.n	800465e <HAL_RCC_OscConfig+0x3e2>
 8004650:	4b90      	ldr	r3, [pc, #576]	@ (8004894 <HAL_RCC_OscConfig+0x618>)
 8004652:	6dda      	ldr	r2, [r3, #92]	@ 0x5c
 8004654:	4b8f      	ldr	r3, [pc, #572]	@ (8004894 <HAL_RCC_OscConfig+0x618>)
 8004656:	2101      	movs	r1, #1
 8004658:	430a      	orrs	r2, r1
 800465a:	65da      	str	r2, [r3, #92]	@ 0x5c
 800465c:	e01c      	b.n	8004698 <HAL_RCC_OscConfig+0x41c>
 800465e:	687b      	ldr	r3, [r7, #4]
 8004660:	689b      	ldr	r3, [r3, #8]
 8004662:	2b05      	cmp	r3, #5
 8004664:	d10c      	bne.n	8004680 <HAL_RCC_OscConfig+0x404>
 8004666:	4b8b      	ldr	r3, [pc, #556]	@ (8004894 <HAL_RCC_OscConfig+0x618>)
 8004668:	6dda      	ldr	r2, [r3, #92]	@ 0x5c
 800466a:	4b8a      	ldr	r3, [pc, #552]	@ (8004894 <HAL_RCC_OscConfig+0x618>)
 800466c:	2104      	movs	r1, #4
 800466e:	430a      	orrs	r2, r1
 8004670:	65da      	str	r2, [r3, #92]	@ 0x5c
 8004672:	4b88      	ldr	r3, [pc, #544]	@ (8004894 <HAL_RCC_OscConfig+0x618>)
 8004674:	6dda      	ldr	r2, [r3, #92]	@ 0x5c
 8004676:	4b87      	ldr	r3, [pc, #540]	@ (8004894 <HAL_RCC_OscConfig+0x618>)
 8004678:	2101      	movs	r1, #1
 800467a:	430a      	orrs	r2, r1
 800467c:	65da      	str	r2, [r3, #92]	@ 0x5c
 800467e:	e00b      	b.n	8004698 <HAL_RCC_OscConfig+0x41c>
 8004680:	4b84      	ldr	r3, [pc, #528]	@ (8004894 <HAL_RCC_OscConfig+0x618>)
 8004682:	6dda      	ldr	r2, [r3, #92]	@ 0x5c
 8004684:	4b83      	ldr	r3, [pc, #524]	@ (8004894 <HAL_RCC_OscConfig+0x618>)
 8004686:	2101      	movs	r1, #1
 8004688:	438a      	bics	r2, r1
 800468a:	65da      	str	r2, [r3, #92]	@ 0x5c
 800468c:	4b81      	ldr	r3, [pc, #516]	@ (8004894 <HAL_RCC_OscConfig+0x618>)
 800468e:	6dda      	ldr	r2, [r3, #92]	@ 0x5c
 8004690:	4b80      	ldr	r3, [pc, #512]	@ (8004894 <HAL_RCC_OscConfig+0x618>)
 8004692:	2104      	movs	r1, #4
 8004694:	438a      	bics	r2, r1
 8004696:	65da      	str	r2, [r3, #92]	@ 0x5c

      /* Check the LSE State */
      if (RCC_OscInitStruct->LSEState != RCC_LSE_OFF)
 8004698:	687b      	ldr	r3, [r7, #4]
 800469a:	689b      	ldr	r3, [r3, #8]
 800469c:	2b00      	cmp	r3, #0
 800469e:	d014      	beq.n	80046ca <HAL_RCC_OscConfig+0x44e>
      {
        /* Get Start Tick*/
        tickstart = HAL_GetTick();
 80046a0:	f7fd fc1c 	bl	8001edc <HAL_GetTick>
 80046a4:	0003      	movs	r3, r0
 80046a6:	613b      	str	r3, [r7, #16]

        /* Wait till LSE is ready */
        while (READ_BIT(RCC->BDCR, RCC_BDCR_LSERDY) == 0U)
 80046a8:	e009      	b.n	80046be <HAL_RCC_OscConfig+0x442>
        {
          if ((HAL_GetTick() - tickstart) > RCC_LSE_TIMEOUT_VALUE)
 80046aa:	f7fd fc17 	bl	8001edc <HAL_GetTick>
 80046ae:	0002      	movs	r2, r0
 80046b0:	693b      	ldr	r3, [r7, #16]
 80046b2:	1ad3      	subs	r3, r2, r3
 80046b4:	4a79      	ldr	r2, [pc, #484]	@ (800489c <HAL_RCC_OscConfig+0x620>)
 80046b6:	4293      	cmp	r3, r2
 80046b8:	d901      	bls.n	80046be <HAL_RCC_OscConfig+0x442>
          {
            return HAL_TIMEOUT;
 80046ba:	2303      	movs	r3, #3
 80046bc:	e0e6      	b.n	800488c <HAL_RCC_OscConfig+0x610>
        while (READ_BIT(RCC->BDCR, RCC_BDCR_LSERDY) == 0U)
 80046be:	4b75      	ldr	r3, [pc, #468]	@ (8004894 <HAL_RCC_OscConfig+0x618>)
 80046c0:	6ddb      	ldr	r3, [r3, #92]	@ 0x5c
 80046c2:	2202      	movs	r2, #2
 80046c4:	4013      	ands	r3, r2
 80046c6:	d0f0      	beq.n	80046aa <HAL_RCC_OscConfig+0x42e>
 80046c8:	e013      	b.n	80046f2 <HAL_RCC_OscConfig+0x476>
        }
      }
      else
      {
        /* Get Start Tick*/
        tickstart = HAL_GetTick();
 80046ca:	f7fd fc07 	bl	8001edc <HAL_GetTick>
 80046ce:	0003      	movs	r3, r0
 80046d0:	613b      	str	r3, [r7, #16]

        /* Wait till LSE is disabled */
        while (READ_BIT(RCC->BDCR, RCC_BDCR_LSERDY) != 0U)
 80046d2:	e009      	b.n	80046e8 <HAL_RCC_OscConfig+0x46c>
        {
          if ((HAL_GetTick() - tickstart) > RCC_LSE_TIMEOUT_VALUE)
 80046d4:	f7fd fc02 	bl	8001edc <HAL_GetTick>
 80046d8:	0002      	movs	r2, r0
 80046da:	693b      	ldr	r3, [r7, #16]
 80046dc:	1ad3      	subs	r3, r2, r3
 80046de:	4a6f      	ldr	r2, [pc, #444]	@ (800489c <HAL_RCC_OscConfig+0x620>)
 80046e0:	4293      	cmp	r3, r2
 80046e2:	d901      	bls.n	80046e8 <HAL_RCC_OscConfig+0x46c>
          {
            return HAL_TIMEOUT;
 80046e4:	2303      	movs	r3, #3
 80046e6:	e0d1      	b.n	800488c <HAL_RCC_OscConfig+0x610>
        while (READ_BIT(RCC->BDCR, RCC_BDCR_LSERDY) != 0U)
 80046e8:	4b6a      	ldr	r3, [pc, #424]	@ (8004894 <HAL_RCC_OscConfig+0x618>)
 80046ea:	6ddb      	ldr	r3, [r3, #92]	@ 0x5c
 80046ec:	2202      	movs	r2, #2
 80046ee:	4013      	ands	r3, r2
 80046f0:	d1f0      	bne.n	80046d4 <HAL_RCC_OscConfig+0x458>
          }
        }
      }

      /* Restore clock configuration if changed */
      if (pwrclkchanged == SET)
 80046f2:	231f      	movs	r3, #31
 80046f4:	18fb      	adds	r3, r7, r3
 80046f6:	781b      	ldrb	r3, [r3, #0]
 80046f8:	2b01      	cmp	r3, #1
 80046fa:	d105      	bne.n	8004708 <HAL_RCC_OscConfig+0x48c>
      {
        __HAL_RCC_PWR_CLK_DISABLE();
 80046fc:	4b65      	ldr	r3, [pc, #404]	@ (8004894 <HAL_RCC_OscConfig+0x618>)
 80046fe:	6bda      	ldr	r2, [r3, #60]	@ 0x3c
 8004700:	4b64      	ldr	r3, [pc, #400]	@ (8004894 <HAL_RCC_OscConfig+0x618>)
 8004702:	4967      	ldr	r1, [pc, #412]	@ (80048a0 <HAL_RCC_OscConfig+0x624>)
 8004704:	400a      	ands	r2, r1
 8004706:	63da      	str	r2, [r3, #60]	@ 0x3c
#endif /* RCC_HSI48_SUPPORT */
  /*-------------------------------- PLL Configuration -----------------------*/
  /* Check the parameters */
  assert_param(IS_RCC_PLL(RCC_OscInitStruct->PLL.PLLState));

  if (RCC_OscInitStruct->PLL.PLLState != RCC_PLL_NONE)
 8004708:	687b      	ldr	r3, [r7, #4]
 800470a:	69db      	ldr	r3, [r3, #28]
 800470c:	2b00      	cmp	r3, #0
 800470e:	d100      	bne.n	8004712 <HAL_RCC_OscConfig+0x496>
 8004710:	e0bb      	b.n	800488a <HAL_RCC_OscConfig+0x60e>
  {
    /* Check if the PLL is used as system clock or not */
    if (__HAL_RCC_GET_SYSCLK_SOURCE() != RCC_SYSCLKSOURCE_STATUS_PLLCLK)
 8004712:	4b60      	ldr	r3, [pc, #384]	@ (8004894 <HAL_RCC_OscConfig+0x618>)
 8004714:	689b      	ldr	r3, [r3, #8]
 8004716:	2238      	movs	r2, #56	@ 0x38
 8004718:	4013      	ands	r3, r2
 800471a:	2b10      	cmp	r3, #16
 800471c:	d100      	bne.n	8004720 <HAL_RCC_OscConfig+0x4a4>
 800471e:	e07b      	b.n	8004818 <HAL_RCC_OscConfig+0x59c>
    {
      if (RCC_OscInitStruct->PLL.PLLState == RCC_PLL_ON)
 8004720:	687b      	ldr	r3, [r7, #4]
 8004722:	69db      	ldr	r3, [r3, #28]
 8004724:	2b02      	cmp	r3, #2
 8004726:	d156      	bne.n	80047d6 <HAL_RCC_OscConfig+0x55a>
        assert_param(IS_RCC_PLLQ_VALUE(RCC_OscInitStruct->PLL.PLLQ));
#endif /* RCC_PLLQ_SUPPORT */
        assert_param(IS_RCC_PLLR_VALUE(RCC_OscInitStruct->PLL.PLLR));

        /* Disable the main PLL. */
        __HAL_RCC_PLL_DISABLE();
 8004728:	4b5a      	ldr	r3, [pc, #360]	@ (8004894 <HAL_RCC_OscConfig+0x618>)
 800472a:	681a      	ldr	r2, [r3, #0]
 800472c:	4b59      	ldr	r3, [pc, #356]	@ (8004894 <HAL_RCC_OscConfig+0x618>)
 800472e:	495d      	ldr	r1, [pc, #372]	@ (80048a4 <HAL_RCC_OscConfig+0x628>)
 8004730:	400a      	ands	r2, r1
 8004732:	601a      	str	r2, [r3, #0]

        /* Get Start Tick*/
        tickstart = HAL_GetTick();
 8004734:	f7fd fbd2 	bl	8001edc <HAL_GetTick>
 8004738:	0003      	movs	r3, r0
 800473a:	613b      	str	r3, [r7, #16]

        /* Wait till PLL is ready */
        while (READ_BIT(RCC->CR, RCC_CR_PLLRDY) != 0U)
 800473c:	e008      	b.n	8004750 <HAL_RCC_OscConfig+0x4d4>
        {
          if ((HAL_GetTick() - tickstart) > PLL_TIMEOUT_VALUE)
 800473e:	f7fd fbcd 	bl	8001edc <HAL_GetTick>
 8004742:	0002      	movs	r2, r0
 8004744:	693b      	ldr	r3, [r7, #16]
 8004746:	1ad3      	subs	r3, r2, r3
 8004748:	2b02      	cmp	r3, #2
 800474a:	d901      	bls.n	8004750 <HAL_RCC_OscConfig+0x4d4>
          {
            return HAL_TIMEOUT;
 800474c:	2303      	movs	r3, #3
 800474e:	e09d      	b.n	800488c <HAL_RCC_OscConfig+0x610>
        while (READ_BIT(RCC->CR, RCC_CR_PLLRDY) != 0U)
 8004750:	4b50      	ldr	r3, [pc, #320]	@ (8004894 <HAL_RCC_OscConfig+0x618>)
 8004752:	681a      	ldr	r2, [r3, #0]
 8004754:	2380      	movs	r3, #128	@ 0x80
 8004756:	049b      	lsls	r3, r3, #18
 8004758:	4013      	ands	r3, r2
 800475a:	d1f0      	bne.n	800473e <HAL_RCC_OscConfig+0x4c2>
          }
        }

        /* Configure the main PLL clock source, multiplication and division factors. */
#if defined(RCC_PLLQ_SUPPORT)
        __HAL_RCC_PLL_CONFIG(RCC_OscInitStruct->PLL.PLLSource,
 800475c:	4b4d      	ldr	r3, [pc, #308]	@ (8004894 <HAL_RCC_OscConfig+0x618>)
 800475e:	68db      	ldr	r3, [r3, #12]
 8004760:	4a51      	ldr	r2, [pc, #324]	@ (80048a8 <HAL_RCC_OscConfig+0x62c>)
 8004762:	4013      	ands	r3, r2
 8004764:	0019      	movs	r1, r3
 8004766:	687b      	ldr	r3, [r7, #4]
 8004768:	6a1a      	ldr	r2, [r3, #32]
 800476a:	687b      	ldr	r3, [r7, #4]
 800476c:	6a5b      	ldr	r3, [r3, #36]	@ 0x24
 800476e:	431a      	orrs	r2, r3
 8004770:	687b      	ldr	r3, [r7, #4]
 8004772:	6a9b      	ldr	r3, [r3, #40]	@ 0x28
 8004774:	021b      	lsls	r3, r3, #8
 8004776:	431a      	orrs	r2, r3
 8004778:	687b      	ldr	r3, [r7, #4]
 800477a:	6adb      	ldr	r3, [r3, #44]	@ 0x2c
 800477c:	431a      	orrs	r2, r3
 800477e:	687b      	ldr	r3, [r7, #4]
 8004780:	6b1b      	ldr	r3, [r3, #48]	@ 0x30
 8004782:	431a      	orrs	r2, r3
 8004784:	687b      	ldr	r3, [r7, #4]
 8004786:	6b5b      	ldr	r3, [r3, #52]	@ 0x34
 8004788:	431a      	orrs	r2, r3
 800478a:	4b42      	ldr	r3, [pc, #264]	@ (8004894 <HAL_RCC_OscConfig+0x618>)
 800478c:	430a      	orrs	r2, r1
 800478e:	60da      	str	r2, [r3, #12]
                             RCC_OscInitStruct->PLL.PLLP,
                             RCC_OscInitStruct->PLL.PLLR);
#endif /* RCC_PLLQ_SUPPORT */

        /* Enable the main PLL. */
        __HAL_RCC_PLL_ENABLE();
 8004790:	4b40      	ldr	r3, [pc, #256]	@ (8004894 <HAL_RCC_OscConfig+0x618>)
 8004792:	681a      	ldr	r2, [r3, #0]
 8004794:	4b3f      	ldr	r3, [pc, #252]	@ (8004894 <HAL_RCC_OscConfig+0x618>)
 8004796:	2180      	movs	r1, #128	@ 0x80
 8004798:	0449      	lsls	r1, r1, #17
 800479a:	430a      	orrs	r2, r1
 800479c:	601a      	str	r2, [r3, #0]

        /* Enable PLLR Clock output. */
        __HAL_RCC_PLLCLKOUT_ENABLE(RCC_PLLRCLK);
 800479e:	4b3d      	ldr	r3, [pc, #244]	@ (8004894 <HAL_RCC_OscConfig+0x618>)
 80047a0:	68da      	ldr	r2, [r3, #12]
 80047a2:	4b3c      	ldr	r3, [pc, #240]	@ (8004894 <HAL_RCC_OscConfig+0x618>)
 80047a4:	2180      	movs	r1, #128	@ 0x80
 80047a6:	0549      	lsls	r1, r1, #21
 80047a8:	430a      	orrs	r2, r1
 80047aa:	60da      	str	r2, [r3, #12]

        /* Get Start Tick*/
        tickstart = HAL_GetTick();
 80047ac:	f7fd fb96 	bl	8001edc <HAL_GetTick>
 80047b0:	0003      	movs	r3, r0
 80047b2:	613b      	str	r3, [r7, #16]

        /* Wait till PLL is ready */
        while (READ_BIT(RCC->CR, RCC_CR_PLLRDY) == 0U)
 80047b4:	e008      	b.n	80047c8 <HAL_RCC_OscConfig+0x54c>
        {
          if ((HAL_GetTick() - tickstart) > PLL_TIMEOUT_VALUE)
 80047b6:	f7fd fb91 	bl	8001edc <HAL_GetTick>
 80047ba:	0002      	movs	r2, r0
 80047bc:	693b      	ldr	r3, [r7, #16]
 80047be:	1ad3      	subs	r3, r2, r3
 80047c0:	2b02      	cmp	r3, #2
 80047c2:	d901      	bls.n	80047c8 <HAL_RCC_OscConfig+0x54c>
          {
            return HAL_TIMEOUT;
 80047c4:	2303      	movs	r3, #3
 80047c6:	e061      	b.n	800488c <HAL_RCC_OscConfig+0x610>
        while (READ_BIT(RCC->CR, RCC_CR_PLLRDY) == 0U)
 80047c8:	4b32      	ldr	r3, [pc, #200]	@ (8004894 <HAL_RCC_OscConfig+0x618>)
 80047ca:	681a      	ldr	r2, [r3, #0]
 80047cc:	2380      	movs	r3, #128	@ 0x80
 80047ce:	049b      	lsls	r3, r3, #18
 80047d0:	4013      	ands	r3, r2
 80047d2:	d0f0      	beq.n	80047b6 <HAL_RCC_OscConfig+0x53a>
 80047d4:	e059      	b.n	800488a <HAL_RCC_OscConfig+0x60e>
        }
      }
      else
      {
        /* Disable the main PLL. */
        __HAL_RCC_PLL_DISABLE();
 80047d6:	4b2f      	ldr	r3, [pc, #188]	@ (8004894 <HAL_RCC_OscConfig+0x618>)
 80047d8:	681a      	ldr	r2, [r3, #0]
 80047da:	4b2e      	ldr	r3, [pc, #184]	@ (8004894 <HAL_RCC_OscConfig+0x618>)
 80047dc:	4931      	ldr	r1, [pc, #196]	@ (80048a4 <HAL_RCC_OscConfig+0x628>)
 80047de:	400a      	ands	r2, r1
 80047e0:	601a      	str	r2, [r3, #0]

        /* Get Start Tick*/
        tickstart = HAL_GetTick();
 80047e2:	f7fd fb7b 	bl	8001edc <HAL_GetTick>
 80047e6:	0003      	movs	r3, r0
 80047e8:	613b      	str	r3, [r7, #16]

        /* Wait till PLL is disabled */
        while (READ_BIT(RCC->CR, RCC_CR_PLLRDY) != 0U)
 80047ea:	e008      	b.n	80047fe <HAL_RCC_OscConfig+0x582>
        {
          if ((HAL_GetTick() - tickstart) > PLL_TIMEOUT_VALUE)
 80047ec:	f7fd fb76 	bl	8001edc <HAL_GetTick>
 80047f0:	0002      	movs	r2, r0
 80047f2:	693b      	ldr	r3, [r7, #16]
 80047f4:	1ad3      	subs	r3, r2, r3
 80047f6:	2b02      	cmp	r3, #2
 80047f8:	d901      	bls.n	80047fe <HAL_RCC_OscConfig+0x582>
          {
            return HAL_TIMEOUT;
 80047fa:	2303      	movs	r3, #3
 80047fc:	e046      	b.n	800488c <HAL_RCC_OscConfig+0x610>
        while (READ_BIT(RCC->CR, RCC_CR_PLLRDY) != 0U)
 80047fe:	4b25      	ldr	r3, [pc, #148]	@ (8004894 <HAL_RCC_OscConfig+0x618>)
 8004800:	681a      	ldr	r2, [r3, #0]
 8004802:	2380      	movs	r3, #128	@ 0x80
 8004804:	049b      	lsls	r3, r3, #18
 8004806:	4013      	ands	r3, r2
 8004808:	d1f0      	bne.n	80047ec <HAL_RCC_OscConfig+0x570>
          }
        }
        /* Unselect main PLL clock source and disable main PLL outputs to save power */
#if defined(RCC_PLLQ_SUPPORT)
        RCC->PLLCFGR &= ~(RCC_PLLCFGR_PLLSRC | RCC_PLLCFGR_PLLPEN | RCC_PLLCFGR_PLLQEN | RCC_PLLCFGR_PLLREN);
 800480a:	4b22      	ldr	r3, [pc, #136]	@ (8004894 <HAL_RCC_OscConfig+0x618>)
 800480c:	68da      	ldr	r2, [r3, #12]
 800480e:	4b21      	ldr	r3, [pc, #132]	@ (8004894 <HAL_RCC_OscConfig+0x618>)
 8004810:	4926      	ldr	r1, [pc, #152]	@ (80048ac <HAL_RCC_OscConfig+0x630>)
 8004812:	400a      	ands	r2, r1
 8004814:	60da      	str	r2, [r3, #12]
 8004816:	e038      	b.n	800488a <HAL_RCC_OscConfig+0x60e>
      }
    }
    else
    {
      /* Check if there is a request to disable the PLL used as System clock source */
      if ((RCC_OscInitStruct->PLL.PLLState) == RCC_PLL_OFF)
 8004818:	687b      	ldr	r3, [r7, #4]
 800481a:	69db      	ldr	r3, [r3, #28]
 800481c:	2b01      	cmp	r3, #1
 800481e:	d101      	bne.n	8004824 <HAL_RCC_OscConfig+0x5a8>
      {
        return HAL_ERROR;
 8004820:	2301      	movs	r3, #1
 8004822:	e033      	b.n	800488c <HAL_RCC_OscConfig+0x610>
      }
      else
      {
        /* Do not return HAL_ERROR if request repeats the current configuration */
        temp_pllckcfg = RCC->PLLCFGR;
 8004824:	4b1b      	ldr	r3, [pc, #108]	@ (8004894 <HAL_RCC_OscConfig+0x618>)
 8004826:	68db      	ldr	r3, [r3, #12]
 8004828:	617b      	str	r3, [r7, #20]
        if ((READ_BIT(temp_pllckcfg, RCC_PLLCFGR_PLLSRC) != RCC_OscInitStruct->PLL.PLLSource) ||
 800482a:	697b      	ldr	r3, [r7, #20]
 800482c:	2203      	movs	r2, #3
 800482e:	401a      	ands	r2, r3
 8004830:	687b      	ldr	r3, [r7, #4]
 8004832:	6a1b      	ldr	r3, [r3, #32]
 8004834:	429a      	cmp	r2, r3
 8004836:	d126      	bne.n	8004886 <HAL_RCC_OscConfig+0x60a>
            (READ_BIT(temp_pllckcfg, RCC_PLLCFGR_PLLM) != RCC_OscInitStruct->PLL.PLLM) ||
 8004838:	697b      	ldr	r3, [r7, #20]
 800483a:	2270      	movs	r2, #112	@ 0x70
 800483c:	401a      	ands	r2, r3
 800483e:	687b      	ldr	r3, [r7, #4]
 8004840:	6a5b      	ldr	r3, [r3, #36]	@ 0x24
        if ((READ_BIT(temp_pllckcfg, RCC_PLLCFGR_PLLSRC) != RCC_OscInitStruct->PLL.PLLSource) ||
 8004842:	429a      	cmp	r2, r3
 8004844:	d11f      	bne.n	8004886 <HAL_RCC_OscConfig+0x60a>
            (READ_BIT(temp_pllckcfg, RCC_PLLCFGR_PLLN) != (RCC_OscInitStruct->PLL.PLLN << RCC_PLLCFGR_PLLN_Pos)) ||
 8004846:	697a      	ldr	r2, [r7, #20]
 8004848:	23fe      	movs	r3, #254	@ 0xfe
 800484a:	01db      	lsls	r3, r3, #7
 800484c:	401a      	ands	r2, r3
 800484e:	687b      	ldr	r3, [r7, #4]
 8004850:	6a9b      	ldr	r3, [r3, #40]	@ 0x28
 8004852:	021b      	lsls	r3, r3, #8
            (READ_BIT(temp_pllckcfg, RCC_PLLCFGR_PLLM) != RCC_OscInitStruct->PLL.PLLM) ||
 8004854:	429a      	cmp	r2, r3
 8004856:	d116      	bne.n	8004886 <HAL_RCC_OscConfig+0x60a>
            (READ_BIT(temp_pllckcfg, RCC_PLLCFGR_PLLP) != RCC_OscInitStruct->PLL.PLLP) ||
 8004858:	697a      	ldr	r2, [r7, #20]
 800485a:	23f8      	movs	r3, #248	@ 0xf8
 800485c:	039b      	lsls	r3, r3, #14
 800485e:	401a      	ands	r2, r3
 8004860:	687b      	ldr	r3, [r7, #4]
 8004862:	6adb      	ldr	r3, [r3, #44]	@ 0x2c
            (READ_BIT(temp_pllckcfg, RCC_PLLCFGR_PLLN) != (RCC_OscInitStruct->PLL.PLLN << RCC_PLLCFGR_PLLN_Pos)) ||
 8004864:	429a      	cmp	r2, r3
 8004866:	d10e      	bne.n	8004886 <HAL_RCC_OscConfig+0x60a>
#if defined (RCC_PLLQ_SUPPORT)
            (READ_BIT(temp_pllckcfg, RCC_PLLCFGR_PLLQ) != RCC_OscInitStruct->PLL.PLLQ) ||
 8004868:	697a      	ldr	r2, [r7, #20]
 800486a:	23e0      	movs	r3, #224	@ 0xe0
 800486c:	051b      	lsls	r3, r3, #20
 800486e:	401a      	ands	r2, r3
 8004870:	687b      	ldr	r3, [r7, #4]
 8004872:	6b1b      	ldr	r3, [r3, #48]	@ 0x30
            (READ_BIT(temp_pllckcfg, RCC_PLLCFGR_PLLP) != RCC_OscInitStruct->PLL.PLLP) ||
 8004874:	429a      	cmp	r2, r3
 8004876:	d106      	bne.n	8004886 <HAL_RCC_OscConfig+0x60a>
#endif /* RCC_PLLQ_SUPPORT */
            (READ_BIT(temp_pllckcfg, RCC_PLLCFGR_PLLR) != RCC_OscInitStruct->PLL.PLLR))
 8004878:	697b      	ldr	r3, [r7, #20]
 800487a:	0f5b      	lsrs	r3, r3, #29
 800487c:	075a      	lsls	r2, r3, #29
 800487e:	687b      	ldr	r3, [r7, #4]
 8004880:	6b5b      	ldr	r3, [r3, #52]	@ 0x34
            (READ_BIT(temp_pllckcfg, RCC_PLLCFGR_PLLQ) != RCC_OscInitStruct->PLL.PLLQ) ||
 8004882:	429a      	cmp	r2, r3
 8004884:	d001      	beq.n	800488a <HAL_RCC_OscConfig+0x60e>
        {
          return HAL_ERROR;
 8004886:	2301      	movs	r3, #1
 8004888:	e000      	b.n	800488c <HAL_RCC_OscConfig+0x610>
        }
      }
    }
  }
  return HAL_OK;
 800488a:	2300      	movs	r3, #0
}
 800488c:	0018      	movs	r0, r3
 800488e:	46bd      	mov	sp, r7
 8004890:	b008      	add	sp, #32
 8004892:	bd80      	pop	{r7, pc}
 8004894:	40021000 	.word	0x40021000
 8004898:	40007000 	.word	0x40007000
 800489c:	00001388 	.word	0x00001388
 80048a0:	efffffff 	.word	0xefffffff
 80048a4:	feffffff 	.word	0xfeffffff
 80048a8:	11c1808c 	.word	0x11c1808c
 80048ac:	eefefffc 	.word	0xeefefffc

080048b0 <HAL_RCC_ClockConfig>:
  *         HPRE[3:0] bits to ensure that HCLK not exceed the maximum allowed frequency
  *         (for more details refer to section above "Initialization/de-initialization functions")
  * @retval None
  */
HAL_StatusTypeDef HAL_RCC_ClockConfig(RCC_ClkInitTypeDef  *RCC_ClkInitStruct, uint32_t FLatency)
{
 80048b0:	b580      	push	{r7, lr}
 80048b2:	b084      	sub	sp, #16
 80048b4:	af00      	add	r7, sp, #0
 80048b6:	6078      	str	r0, [r7, #4]
 80048b8:	6039      	str	r1, [r7, #0]
  uint32_t tickstart;

  /* Check Null pointer */
  if (RCC_ClkInitStruct == NULL)
 80048ba:	687b      	ldr	r3, [r7, #4]
 80048bc:	2b00      	cmp	r3, #0
 80048be:	d101      	bne.n	80048c4 <HAL_RCC_ClockConfig+0x14>
  {
    return HAL_ERROR;
 80048c0:	2301      	movs	r3, #1
 80048c2:	e0e9      	b.n	8004a98 <HAL_RCC_ClockConfig+0x1e8>
  /* To correctly read data from FLASH memory, the number of wait states (LATENCY)
    must be correctly programmed according to the frequency of the FLASH clock
    (HCLK) and the supply voltage of the device. */

  /* Increasing the number of wait states because of higher CPU frequency */
  if (FLatency > __HAL_FLASH_GET_LATENCY())
 80048c4:	4b76      	ldr	r3, [pc, #472]	@ (8004aa0 <HAL_RCC_ClockConfig+0x1f0>)
 80048c6:	681b      	ldr	r3, [r3, #0]
 80048c8:	2207      	movs	r2, #7
 80048ca:	4013      	ands	r3, r2
 80048cc:	683a      	ldr	r2, [r7, #0]
 80048ce:	429a      	cmp	r2, r3
 80048d0:	d91e      	bls.n	8004910 <HAL_RCC_ClockConfig+0x60>
  {
    /* Program the new number of wait states to the LATENCY bits in the FLASH_ACR register */
    __HAL_FLASH_SET_LATENCY(FLatency);
 80048d2:	4b73      	ldr	r3, [pc, #460]	@ (8004aa0 <HAL_RCC_ClockConfig+0x1f0>)
 80048d4:	681b      	ldr	r3, [r3, #0]
 80048d6:	2207      	movs	r2, #7
 80048d8:	4393      	bics	r3, r2
 80048da:	0019      	movs	r1, r3
 80048dc:	4b70      	ldr	r3, [pc, #448]	@ (8004aa0 <HAL_RCC_ClockConfig+0x1f0>)
 80048de:	683a      	ldr	r2, [r7, #0]
 80048e0:	430a      	orrs	r2, r1
 80048e2:	601a      	str	r2, [r3, #0]

    /* Check that the new number of wait states is taken into account to access the Flash
    memory by polling the FLASH_ACR register */
    tickstart = HAL_GetTick();
 80048e4:	f7fd fafa 	bl	8001edc <HAL_GetTick>
 80048e8:	0003      	movs	r3, r0
 80048ea:	60fb      	str	r3, [r7, #12]

    while ((FLASH->ACR & FLASH_ACR_LATENCY) != FLatency)
 80048ec:	e009      	b.n	8004902 <HAL_RCC_ClockConfig+0x52>
    {
      if ((HAL_GetTick() - tickstart) > CLOCKSWITCH_TIMEOUT_VALUE)
 80048ee:	f7fd faf5 	bl	8001edc <HAL_GetTick>
 80048f2:	0002      	movs	r2, r0
 80048f4:	68fb      	ldr	r3, [r7, #12]
 80048f6:	1ad3      	subs	r3, r2, r3
 80048f8:	4a6a      	ldr	r2, [pc, #424]	@ (8004aa4 <HAL_RCC_ClockConfig+0x1f4>)
 80048fa:	4293      	cmp	r3, r2
 80048fc:	d901      	bls.n	8004902 <HAL_RCC_ClockConfig+0x52>
      {
        return HAL_TIMEOUT;
 80048fe:	2303      	movs	r3, #3
 8004900:	e0ca      	b.n	8004a98 <HAL_RCC_ClockConfig+0x1e8>
    while ((FLASH->ACR & FLASH_ACR_LATENCY) != FLatency)
 8004902:	4b67      	ldr	r3, [pc, #412]	@ (8004aa0 <HAL_RCC_ClockConfig+0x1f0>)
 8004904:	681b      	ldr	r3, [r3, #0]
 8004906:	2207      	movs	r2, #7
 8004908:	4013      	ands	r3, r2
 800490a:	683a      	ldr	r2, [r7, #0]
 800490c:	429a      	cmp	r2, r3
 800490e:	d1ee      	bne.n	80048ee <HAL_RCC_ClockConfig+0x3e>
      }
    }
  }

  /*-------------------------- HCLK Configuration --------------------------*/
  if (((RCC_ClkInitStruct->ClockType) & RCC_CLOCKTYPE_HCLK) == RCC_CLOCKTYPE_HCLK)
 8004910:	687b      	ldr	r3, [r7, #4]
 8004912:	681b      	ldr	r3, [r3, #0]
 8004914:	2202      	movs	r2, #2
 8004916:	4013      	ands	r3, r2
 8004918:	d015      	beq.n	8004946 <HAL_RCC_ClockConfig+0x96>
  {
    /* Set the highest APB divider in order to ensure that we do not go through
       a non-spec phase whatever we decrease or increase HCLK. */
    if (((RCC_ClkInitStruct->ClockType) & RCC_CLOCKTYPE_PCLK1) == RCC_CLOCKTYPE_PCLK1)
 800491a:	687b      	ldr	r3, [r7, #4]
 800491c:	681b      	ldr	r3, [r3, #0]
 800491e:	2204      	movs	r2, #4
 8004920:	4013      	ands	r3, r2
 8004922:	d006      	beq.n	8004932 <HAL_RCC_ClockConfig+0x82>
    {
      MODIFY_REG(RCC->CFGR, RCC_CFGR_PPRE, RCC_HCLK_DIV16);
 8004924:	4b60      	ldr	r3, [pc, #384]	@ (8004aa8 <HAL_RCC_ClockConfig+0x1f8>)
 8004926:	689a      	ldr	r2, [r3, #8]
 8004928:	4b5f      	ldr	r3, [pc, #380]	@ (8004aa8 <HAL_RCC_ClockConfig+0x1f8>)
 800492a:	21e0      	movs	r1, #224	@ 0xe0
 800492c:	01c9      	lsls	r1, r1, #7
 800492e:	430a      	orrs	r2, r1
 8004930:	609a      	str	r2, [r3, #8]
    }

    /* Set the new HCLK clock divider */
    assert_param(IS_RCC_HCLK(RCC_ClkInitStruct->AHBCLKDivider));
    MODIFY_REG(RCC->CFGR, RCC_CFGR_HPRE, RCC_ClkInitStruct->AHBCLKDivider);
 8004932:	4b5d      	ldr	r3, [pc, #372]	@ (8004aa8 <HAL_RCC_ClockConfig+0x1f8>)
 8004934:	689b      	ldr	r3, [r3, #8]
 8004936:	4a5d      	ldr	r2, [pc, #372]	@ (8004aac <HAL_RCC_ClockConfig+0x1fc>)
 8004938:	4013      	ands	r3, r2
 800493a:	0019      	movs	r1, r3
 800493c:	687b      	ldr	r3, [r7, #4]
 800493e:	689a      	ldr	r2, [r3, #8]
 8004940:	4b59      	ldr	r3, [pc, #356]	@ (8004aa8 <HAL_RCC_ClockConfig+0x1f8>)
 8004942:	430a      	orrs	r2, r1
 8004944:	609a      	str	r2, [r3, #8]
  }

  /*------------------------- SYSCLK Configuration ---------------------------*/
  if (((RCC_ClkInitStruct->ClockType) & RCC_CLOCKTYPE_SYSCLK) == RCC_CLOCKTYPE_SYSCLK)
 8004946:	687b      	ldr	r3, [r7, #4]
 8004948:	681b      	ldr	r3, [r3, #0]
 800494a:	2201      	movs	r2, #1
 800494c:	4013      	ands	r3, r2
 800494e:	d057      	beq.n	8004a00 <HAL_RCC_ClockConfig+0x150>
  {
    assert_param(IS_RCC_SYSCLKSOURCE(RCC_ClkInitStruct->SYSCLKSource));

    /* HSE is selected as System Clock Source */
    if (RCC_ClkInitStruct->SYSCLKSource == RCC_SYSCLKSOURCE_HSE)
 8004950:	687b      	ldr	r3, [r7, #4]
 8004952:	685b      	ldr	r3, [r3, #4]
 8004954:	2b01      	cmp	r3, #1
 8004956:	d107      	bne.n	8004968 <HAL_RCC_ClockConfig+0xb8>
    {
      /* Check the HSE ready flag */
      if (READ_BIT(RCC->CR, RCC_CR_HSERDY) == 0U)
 8004958:	4b53      	ldr	r3, [pc, #332]	@ (8004aa8 <HAL_RCC_ClockConfig+0x1f8>)
 800495a:	681a      	ldr	r2, [r3, #0]
 800495c:	2380      	movs	r3, #128	@ 0x80
 800495e:	029b      	lsls	r3, r3, #10
 8004960:	4013      	ands	r3, r2
 8004962:	d12b      	bne.n	80049bc <HAL_RCC_ClockConfig+0x10c>
      {
        return HAL_ERROR;
 8004964:	2301      	movs	r3, #1
 8004966:	e097      	b.n	8004a98 <HAL_RCC_ClockConfig+0x1e8>
      }
    }
    /* PLL is selected as System Clock Source */
    else if (RCC_ClkInitStruct->SYSCLKSource == RCC_SYSCLKSOURCE_PLLCLK)
 8004968:	687b      	ldr	r3, [r7, #4]
 800496a:	685b      	ldr	r3, [r3, #4]
 800496c:	2b02      	cmp	r3, #2
 800496e:	d107      	bne.n	8004980 <HAL_RCC_ClockConfig+0xd0>
    {
      /* Check the PLL ready flag */
      if (READ_BIT(RCC->CR, RCC_CR_PLLRDY) == 0U)
 8004970:	4b4d      	ldr	r3, [pc, #308]	@ (8004aa8 <HAL_RCC_ClockConfig+0x1f8>)
 8004972:	681a      	ldr	r2, [r3, #0]
 8004974:	2380      	movs	r3, #128	@ 0x80
 8004976:	049b      	lsls	r3, r3, #18
 8004978:	4013      	ands	r3, r2
 800497a:	d11f      	bne.n	80049bc <HAL_RCC_ClockConfig+0x10c>
      {
        return HAL_ERROR;
 800497c:	2301      	movs	r3, #1
 800497e:	e08b      	b.n	8004a98 <HAL_RCC_ClockConfig+0x1e8>
      }
    }
    /* HSI is selected as System Clock Source */
    else if (RCC_ClkInitStruct->SYSCLKSource == RCC_SYSCLKSOURCE_HSI)
 8004980:	687b      	ldr	r3, [r7, #4]
 8004982:	685b      	ldr	r3, [r3, #4]
 8004984:	2b00      	cmp	r3, #0
 8004986:	d107      	bne.n	8004998 <HAL_RCC_ClockConfig+0xe8>
    {
      /* Check the HSI ready flag */
      if (READ_BIT(RCC->CR, RCC_CR_HSIRDY) == 0U)
 8004988:	4b47      	ldr	r3, [pc, #284]	@ (8004aa8 <HAL_RCC_ClockConfig+0x1f8>)
 800498a:	681a      	ldr	r2, [r3, #0]
 800498c:	2380      	movs	r3, #128	@ 0x80
 800498e:	00db      	lsls	r3, r3, #3
 8004990:	4013      	ands	r3, r2
 8004992:	d113      	bne.n	80049bc <HAL_RCC_ClockConfig+0x10c>
      {
        return HAL_ERROR;
 8004994:	2301      	movs	r3, #1
 8004996:	e07f      	b.n	8004a98 <HAL_RCC_ClockConfig+0x1e8>
      }
    }
    /* LSI is selected as System Clock Source */
    else if (RCC_ClkInitStruct->SYSCLKSource == RCC_SYSCLKSOURCE_LSI)
 8004998:	687b      	ldr	r3, [r7, #4]
 800499a:	685b      	ldr	r3, [r3, #4]
 800499c:	2b03      	cmp	r3, #3
 800499e:	d106      	bne.n	80049ae <HAL_RCC_ClockConfig+0xfe>
    {
      /* Check the LSI ready flag */
      if (READ_BIT(RCC->CSR, RCC_CSR_LSIRDY) == 0U)
 80049a0:	4b41      	ldr	r3, [pc, #260]	@ (8004aa8 <HAL_RCC_ClockConfig+0x1f8>)
 80049a2:	6e1b      	ldr	r3, [r3, #96]	@ 0x60
 80049a4:	2202      	movs	r2, #2
 80049a6:	4013      	ands	r3, r2
 80049a8:	d108      	bne.n	80049bc <HAL_RCC_ClockConfig+0x10c>
      {
        return HAL_ERROR;
 80049aa:	2301      	movs	r3, #1
 80049ac:	e074      	b.n	8004a98 <HAL_RCC_ClockConfig+0x1e8>
    }
    /* LSE is selected as System Clock Source */
    else
    {
      /* Check the LSE ready flag */
      if (READ_BIT(RCC->BDCR, RCC_BDCR_LSERDY) == 0U)
 80049ae:	4b3e      	ldr	r3, [pc, #248]	@ (8004aa8 <HAL_RCC_ClockConfig+0x1f8>)
 80049b0:	6ddb      	ldr	r3, [r3, #92]	@ 0x5c
 80049b2:	2202      	movs	r2, #2
 80049b4:	4013      	ands	r3, r2
 80049b6:	d101      	bne.n	80049bc <HAL_RCC_ClockConfig+0x10c>
      {
        return HAL_ERROR;
 80049b8:	2301      	movs	r3, #1
 80049ba:	e06d      	b.n	8004a98 <HAL_RCC_ClockConfig+0x1e8>
      }
    }
    MODIFY_REG(RCC->CFGR, RCC_CFGR_SW, RCC_ClkInitStruct->SYSCLKSource);
 80049bc:	4b3a      	ldr	r3, [pc, #232]	@ (8004aa8 <HAL_RCC_ClockConfig+0x1f8>)
 80049be:	689b      	ldr	r3, [r3, #8]
 80049c0:	2207      	movs	r2, #7
 80049c2:	4393      	bics	r3, r2
 80049c4:	0019      	movs	r1, r3
 80049c6:	687b      	ldr	r3, [r7, #4]
 80049c8:	685a      	ldr	r2, [r3, #4]
 80049ca:	4b37      	ldr	r3, [pc, #220]	@ (8004aa8 <HAL_RCC_ClockConfig+0x1f8>)
 80049cc:	430a      	orrs	r2, r1
 80049ce:	609a      	str	r2, [r3, #8]

    /* Get Start Tick*/
    tickstart = HAL_GetTick();
 80049d0:	f7fd fa84 	bl	8001edc <HAL_GetTick>
 80049d4:	0003      	movs	r3, r0
 80049d6:	60fb      	str	r3, [r7, #12]

    while (__HAL_RCC_GET_SYSCLK_SOURCE() != (RCC_ClkInitStruct->SYSCLKSource << RCC_CFGR_SWS_Pos))
 80049d8:	e009      	b.n	80049ee <HAL_RCC_ClockConfig+0x13e>
    {
      if ((HAL_GetTick() - tickstart) > CLOCKSWITCH_TIMEOUT_VALUE)
 80049da:	f7fd fa7f 	bl	8001edc <HAL_GetTick>
 80049de:	0002      	movs	r2, r0
 80049e0:	68fb      	ldr	r3, [r7, #12]
 80049e2:	1ad3      	subs	r3, r2, r3
 80049e4:	4a2f      	ldr	r2, [pc, #188]	@ (8004aa4 <HAL_RCC_ClockConfig+0x1f4>)
 80049e6:	4293      	cmp	r3, r2
 80049e8:	d901      	bls.n	80049ee <HAL_RCC_ClockConfig+0x13e>
      {
        return HAL_TIMEOUT;
 80049ea:	2303      	movs	r3, #3
 80049ec:	e054      	b.n	8004a98 <HAL_RCC_ClockConfig+0x1e8>
    while (__HAL_RCC_GET_SYSCLK_SOURCE() != (RCC_ClkInitStruct->SYSCLKSource << RCC_CFGR_SWS_Pos))
 80049ee:	4b2e      	ldr	r3, [pc, #184]	@ (8004aa8 <HAL_RCC_ClockConfig+0x1f8>)
 80049f0:	689b      	ldr	r3, [r3, #8]
 80049f2:	2238      	movs	r2, #56	@ 0x38
 80049f4:	401a      	ands	r2, r3
 80049f6:	687b      	ldr	r3, [r7, #4]
 80049f8:	685b      	ldr	r3, [r3, #4]
 80049fa:	00db      	lsls	r3, r3, #3
 80049fc:	429a      	cmp	r2, r3
 80049fe:	d1ec      	bne.n	80049da <HAL_RCC_ClockConfig+0x12a>
      }
    }
  }

  /* Decreasing the number of wait states because of lower CPU frequency */
  if (FLatency < __HAL_FLASH_GET_LATENCY())
 8004a00:	4b27      	ldr	r3, [pc, #156]	@ (8004aa0 <HAL_RCC_ClockConfig+0x1f0>)
 8004a02:	681b      	ldr	r3, [r3, #0]
 8004a04:	2207      	movs	r2, #7
 8004a06:	4013      	ands	r3, r2
 8004a08:	683a      	ldr	r2, [r7, #0]
 8004a0a:	429a      	cmp	r2, r3
 8004a0c:	d21e      	bcs.n	8004a4c <HAL_RCC_ClockConfig+0x19c>
  {
    /* Program the new number of wait states to the LATENCY bits in the FLASH_ACR register */
    __HAL_FLASH_SET_LATENCY(FLatency);
 8004a0e:	4b24      	ldr	r3, [pc, #144]	@ (8004aa0 <HAL_RCC_ClockConfig+0x1f0>)
 8004a10:	681b      	ldr	r3, [r3, #0]
 8004a12:	2207      	movs	r2, #7
 8004a14:	4393      	bics	r3, r2
 8004a16:	0019      	movs	r1, r3
 8004a18:	4b21      	ldr	r3, [pc, #132]	@ (8004aa0 <HAL_RCC_ClockConfig+0x1f0>)
 8004a1a:	683a      	ldr	r2, [r7, #0]
 8004a1c:	430a      	orrs	r2, r1
 8004a1e:	601a      	str	r2, [r3, #0]

    /* Check that the new number of wait states is taken into account to access the Flash
    memory by polling the FLASH_ACR register */
    tickstart = HAL_GetTick();
 8004a20:	f7fd fa5c 	bl	8001edc <HAL_GetTick>
 8004a24:	0003      	movs	r3, r0
 8004a26:	60fb      	str	r3, [r7, #12]

    while ((FLASH->ACR & FLASH_ACR_LATENCY) != FLatency)
 8004a28:	e009      	b.n	8004a3e <HAL_RCC_ClockConfig+0x18e>
    {
      if ((HAL_GetTick() - tickstart) > CLOCKSWITCH_TIMEOUT_VALUE)
 8004a2a:	f7fd fa57 	bl	8001edc <HAL_GetTick>
 8004a2e:	0002      	movs	r2, r0
 8004a30:	68fb      	ldr	r3, [r7, #12]
 8004a32:	1ad3      	subs	r3, r2, r3
 8004a34:	4a1b      	ldr	r2, [pc, #108]	@ (8004aa4 <HAL_RCC_ClockConfig+0x1f4>)
 8004a36:	4293      	cmp	r3, r2
 8004a38:	d901      	bls.n	8004a3e <HAL_RCC_ClockConfig+0x18e>
      {
        return HAL_TIMEOUT;
 8004a3a:	2303      	movs	r3, #3
 8004a3c:	e02c      	b.n	8004a98 <HAL_RCC_ClockConfig+0x1e8>
    while ((FLASH->ACR & FLASH_ACR_LATENCY) != FLatency)
 8004a3e:	4b18      	ldr	r3, [pc, #96]	@ (8004aa0 <HAL_RCC_ClockConfig+0x1f0>)
 8004a40:	681b      	ldr	r3, [r3, #0]
 8004a42:	2207      	movs	r2, #7
 8004a44:	4013      	ands	r3, r2
 8004a46:	683a      	ldr	r2, [r7, #0]
 8004a48:	429a      	cmp	r2, r3
 8004a4a:	d1ee      	bne.n	8004a2a <HAL_RCC_ClockConfig+0x17a>
      }
    }
  }

  /*-------------------------- PCLK1 Configuration ---------------------------*/
  if (((RCC_ClkInitStruct->ClockType) & RCC_CLOCKTYPE_PCLK1) == RCC_CLOCKTYPE_PCLK1)
 8004a4c:	687b      	ldr	r3, [r7, #4]
 8004a4e:	681b      	ldr	r3, [r3, #0]
 8004a50:	2204      	movs	r2, #4
 8004a52:	4013      	ands	r3, r2
 8004a54:	d009      	beq.n	8004a6a <HAL_RCC_ClockConfig+0x1ba>
  {
    assert_param(IS_RCC_PCLK(RCC_ClkInitStruct->APB1CLKDivider));
    MODIFY_REG(RCC->CFGR, RCC_CFGR_PPRE, RCC_ClkInitStruct->APB1CLKDivider);
 8004a56:	4b14      	ldr	r3, [pc, #80]	@ (8004aa8 <HAL_RCC_ClockConfig+0x1f8>)
 8004a58:	689b      	ldr	r3, [r3, #8]
 8004a5a:	4a15      	ldr	r2, [pc, #84]	@ (8004ab0 <HAL_RCC_ClockConfig+0x200>)
 8004a5c:	4013      	ands	r3, r2
 8004a5e:	0019      	movs	r1, r3
 8004a60:	687b      	ldr	r3, [r7, #4]
 8004a62:	68da      	ldr	r2, [r3, #12]
 8004a64:	4b10      	ldr	r3, [pc, #64]	@ (8004aa8 <HAL_RCC_ClockConfig+0x1f8>)
 8004a66:	430a      	orrs	r2, r1
 8004a68:	609a      	str	r2, [r3, #8]
  }

  /* Update the SystemCoreClock global variable */
  SystemCoreClock = (HAL_RCC_GetSysClockFreq() >> ((AHBPrescTable[(RCC->CFGR & RCC_CFGR_HPRE) >> RCC_CFGR_HPRE_Pos]) & 0x1FU));
 8004a6a:	f000 f829 	bl	8004ac0 <HAL_RCC_GetSysClockFreq>
 8004a6e:	0001      	movs	r1, r0
 8004a70:	4b0d      	ldr	r3, [pc, #52]	@ (8004aa8 <HAL_RCC_ClockConfig+0x1f8>)
 8004a72:	689b      	ldr	r3, [r3, #8]
 8004a74:	0a1b      	lsrs	r3, r3, #8
 8004a76:	220f      	movs	r2, #15
 8004a78:	401a      	ands	r2, r3
 8004a7a:	4b0e      	ldr	r3, [pc, #56]	@ (8004ab4 <HAL_RCC_ClockConfig+0x204>)
 8004a7c:	0092      	lsls	r2, r2, #2
 8004a7e:	58d3      	ldr	r3, [r2, r3]
 8004a80:	221f      	movs	r2, #31
 8004a82:	4013      	ands	r3, r2
 8004a84:	000a      	movs	r2, r1
 8004a86:	40da      	lsrs	r2, r3
 8004a88:	4b0b      	ldr	r3, [pc, #44]	@ (8004ab8 <HAL_RCC_ClockConfig+0x208>)
 8004a8a:	601a      	str	r2, [r3, #0]

  /* Configure the source of time base considering new system clocks settings*/
  return HAL_InitTick(uwTickPrio);
 8004a8c:	4b0b      	ldr	r3, [pc, #44]	@ (8004abc <HAL_RCC_ClockConfig+0x20c>)
 8004a8e:	681b      	ldr	r3, [r3, #0]
 8004a90:	0018      	movs	r0, r3
 8004a92:	f7fd f9c7 	bl	8001e24 <HAL_InitTick>
 8004a96:	0003      	movs	r3, r0
}
 8004a98:	0018      	movs	r0, r3
 8004a9a:	46bd      	mov	sp, r7
 8004a9c:	b004      	add	sp, #16
 8004a9e:	bd80      	pop	{r7, pc}
 8004aa0:	40022000 	.word	0x40022000
 8004aa4:	00001388 	.word	0x00001388
 8004aa8:	40021000 	.word	0x40021000
 8004aac:	fffff0ff 	.word	0xfffff0ff
 8004ab0:	ffff8fff 	.word	0xffff8fff
 8004ab4:	08007784 	.word	0x08007784
 8004ab8:	2000001c 	.word	0x2000001c
 8004abc:	20000020 	.word	0x20000020

08004ac0 <HAL_RCC_GetSysClockFreq>:
  *
  *
  * @retval SYSCLK frequency
  */
uint32_t HAL_RCC_GetSysClockFreq(void)
{
 8004ac0:	b580      	push	{r7, lr}
 8004ac2:	b086      	sub	sp, #24
 8004ac4:	af00      	add	r7, sp, #0
  uint32_t pllvco, pllsource, pllr, pllm, hsidiv;
  uint32_t sysclockfreq;

  if (__HAL_RCC_GET_SYSCLK_SOURCE() == RCC_SYSCLKSOURCE_STATUS_HSI)
 8004ac6:	4b3c      	ldr	r3, [pc, #240]	@ (8004bb8 <HAL_RCC_GetSysClockFreq+0xf8>)
 8004ac8:	689b      	ldr	r3, [r3, #8]
 8004aca:	2238      	movs	r2, #56	@ 0x38
 8004acc:	4013      	ands	r3, r2
 8004ace:	d10f      	bne.n	8004af0 <HAL_RCC_GetSysClockFreq+0x30>
  {
    /* HSISYS can be derived for HSI16 */
    hsidiv = (1UL << ((READ_BIT(RCC->CR, RCC_CR_HSIDIV)) >> RCC_CR_HSIDIV_Pos));
 8004ad0:	4b39      	ldr	r3, [pc, #228]	@ (8004bb8 <HAL_RCC_GetSysClockFreq+0xf8>)
 8004ad2:	681b      	ldr	r3, [r3, #0]
 8004ad4:	0adb      	lsrs	r3, r3, #11
 8004ad6:	2207      	movs	r2, #7
 8004ad8:	4013      	ands	r3, r2
 8004ada:	2201      	movs	r2, #1
 8004adc:	409a      	lsls	r2, r3
 8004ade:	0013      	movs	r3, r2
 8004ae0:	603b      	str	r3, [r7, #0]

    /* HSI used as system clock source */
    sysclockfreq = (HSI_VALUE / hsidiv);
 8004ae2:	6839      	ldr	r1, [r7, #0]
 8004ae4:	4835      	ldr	r0, [pc, #212]	@ (8004bbc <HAL_RCC_GetSysClockFreq+0xfc>)
 8004ae6:	f7fb fb0d 	bl	8000104 <__udivsi3>
 8004aea:	0003      	movs	r3, r0
 8004aec:	613b      	str	r3, [r7, #16]
 8004aee:	e05d      	b.n	8004bac <HAL_RCC_GetSysClockFreq+0xec>
  }
  else if (__HAL_RCC_GET_SYSCLK_SOURCE() == RCC_SYSCLKSOURCE_STATUS_HSE)
 8004af0:	4b31      	ldr	r3, [pc, #196]	@ (8004bb8 <HAL_RCC_GetSysClockFreq+0xf8>)
 8004af2:	689b      	ldr	r3, [r3, #8]
 8004af4:	2238      	movs	r2, #56	@ 0x38
 8004af6:	4013      	ands	r3, r2
 8004af8:	2b08      	cmp	r3, #8
 8004afa:	d102      	bne.n	8004b02 <HAL_RCC_GetSysClockFreq+0x42>
  {
    /* HSE used as system clock source */
    sysclockfreq = HSE_VALUE;
 8004afc:	4b30      	ldr	r3, [pc, #192]	@ (8004bc0 <HAL_RCC_GetSysClockFreq+0x100>)
 8004afe:	613b      	str	r3, [r7, #16]
 8004b00:	e054      	b.n	8004bac <HAL_RCC_GetSysClockFreq+0xec>
  }
  else if (__HAL_RCC_GET_SYSCLK_SOURCE() == RCC_SYSCLKSOURCE_STATUS_PLLCLK)
 8004b02:	4b2d      	ldr	r3, [pc, #180]	@ (8004bb8 <HAL_RCC_GetSysClockFreq+0xf8>)
 8004b04:	689b      	ldr	r3, [r3, #8]
 8004b06:	2238      	movs	r2, #56	@ 0x38
 8004b08:	4013      	ands	r3, r2
 8004b0a:	2b10      	cmp	r3, #16
 8004b0c:	d138      	bne.n	8004b80 <HAL_RCC_GetSysClockFreq+0xc0>
    /* PLL used as system clock  source */

    /* PLL_VCO = ((HSE_VALUE or HSI_VALUE)/ PLLM) * PLLN
    SYSCLK = PLL_VCO / PLLR
    */
    pllsource = (RCC->PLLCFGR & RCC_PLLCFGR_PLLSRC);
 8004b0e:	4b2a      	ldr	r3, [pc, #168]	@ (8004bb8 <HAL_RCC_GetSysClockFreq+0xf8>)
 8004b10:	68db      	ldr	r3, [r3, #12]
 8004b12:	2203      	movs	r2, #3
 8004b14:	4013      	ands	r3, r2
 8004b16:	60fb      	str	r3, [r7, #12]
    pllm = ((RCC->PLLCFGR & RCC_PLLCFGR_PLLM) >> RCC_PLLCFGR_PLLM_Pos) + 1U ;
 8004b18:	4b27      	ldr	r3, [pc, #156]	@ (8004bb8 <HAL_RCC_GetSysClockFreq+0xf8>)
 8004b1a:	68db      	ldr	r3, [r3, #12]
 8004b1c:	091b      	lsrs	r3, r3, #4
 8004b1e:	2207      	movs	r2, #7
 8004b20:	4013      	ands	r3, r2
 8004b22:	3301      	adds	r3, #1
 8004b24:	60bb      	str	r3, [r7, #8]

    switch (pllsource)
 8004b26:	68fb      	ldr	r3, [r7, #12]
 8004b28:	2b03      	cmp	r3, #3
 8004b2a:	d10d      	bne.n	8004b48 <HAL_RCC_GetSysClockFreq+0x88>
    {
      case RCC_PLLSOURCE_HSE:  /* HSE used as PLL clock source */
        pllvco = (HSE_VALUE / pllm) * ((RCC->PLLCFGR & RCC_PLLCFGR_PLLN) >> RCC_PLLCFGR_PLLN_Pos);
 8004b2c:	68b9      	ldr	r1, [r7, #8]
 8004b2e:	4824      	ldr	r0, [pc, #144]	@ (8004bc0 <HAL_RCC_GetSysClockFreq+0x100>)
 8004b30:	f7fb fae8 	bl	8000104 <__udivsi3>
 8004b34:	0003      	movs	r3, r0
 8004b36:	0019      	movs	r1, r3
 8004b38:	4b1f      	ldr	r3, [pc, #124]	@ (8004bb8 <HAL_RCC_GetSysClockFreq+0xf8>)
 8004b3a:	68db      	ldr	r3, [r3, #12]
 8004b3c:	0a1b      	lsrs	r3, r3, #8
 8004b3e:	227f      	movs	r2, #127	@ 0x7f
 8004b40:	4013      	ands	r3, r2
 8004b42:	434b      	muls	r3, r1
 8004b44:	617b      	str	r3, [r7, #20]
        break;
 8004b46:	e00d      	b.n	8004b64 <HAL_RCC_GetSysClockFreq+0xa4>

      case RCC_PLLSOURCE_HSI:  /* HSI16 used as PLL clock source */
      default:                 /* HSI16 used as PLL clock source */
        pllvco = (HSI_VALUE / pllm) * ((RCC->PLLCFGR & RCC_PLLCFGR_PLLN) >> RCC_PLLCFGR_PLLN_Pos) ;
 8004b48:	68b9      	ldr	r1, [r7, #8]
 8004b4a:	481c      	ldr	r0, [pc, #112]	@ (8004bbc <HAL_RCC_GetSysClockFreq+0xfc>)
 8004b4c:	f7fb fada 	bl	8000104 <__udivsi3>
 8004b50:	0003      	movs	r3, r0
 8004b52:	0019      	movs	r1, r3
 8004b54:	4b18      	ldr	r3, [pc, #96]	@ (8004bb8 <HAL_RCC_GetSysClockFreq+0xf8>)
 8004b56:	68db      	ldr	r3, [r3, #12]
 8004b58:	0a1b      	lsrs	r3, r3, #8
 8004b5a:	227f      	movs	r2, #127	@ 0x7f
 8004b5c:	4013      	ands	r3, r2
 8004b5e:	434b      	muls	r3, r1
 8004b60:	617b      	str	r3, [r7, #20]
        break;
 8004b62:	46c0      	nop			@ (mov r8, r8)
    }
    pllr = (((RCC->PLLCFGR & RCC_PLLCFGR_PLLR) >> RCC_PLLCFGR_PLLR_Pos) + 1U);
 8004b64:	4b14      	ldr	r3, [pc, #80]	@ (8004bb8 <HAL_RCC_GetSysClockFreq+0xf8>)
 8004b66:	68db      	ldr	r3, [r3, #12]
 8004b68:	0f5b      	lsrs	r3, r3, #29
 8004b6a:	2207      	movs	r2, #7
 8004b6c:	4013      	ands	r3, r2
 8004b6e:	3301      	adds	r3, #1
 8004b70:	607b      	str	r3, [r7, #4]
    sysclockfreq = pllvco / pllr;
 8004b72:	6879      	ldr	r1, [r7, #4]
 8004b74:	6978      	ldr	r0, [r7, #20]
 8004b76:	f7fb fac5 	bl	8000104 <__udivsi3>
 8004b7a:	0003      	movs	r3, r0
 8004b7c:	613b      	str	r3, [r7, #16]
 8004b7e:	e015      	b.n	8004bac <HAL_RCC_GetSysClockFreq+0xec>
  }
  else if (__HAL_RCC_GET_SYSCLK_SOURCE() == RCC_SYSCLKSOURCE_STATUS_LSE)
 8004b80:	4b0d      	ldr	r3, [pc, #52]	@ (8004bb8 <HAL_RCC_GetSysClockFreq+0xf8>)
 8004b82:	689b      	ldr	r3, [r3, #8]
 8004b84:	2238      	movs	r2, #56	@ 0x38
 8004b86:	4013      	ands	r3, r2
 8004b88:	2b20      	cmp	r3, #32
 8004b8a:	d103      	bne.n	8004b94 <HAL_RCC_GetSysClockFreq+0xd4>
  {
    /* LSE used as system clock source */
    sysclockfreq = LSE_VALUE;
 8004b8c:	2380      	movs	r3, #128	@ 0x80
 8004b8e:	021b      	lsls	r3, r3, #8
 8004b90:	613b      	str	r3, [r7, #16]
 8004b92:	e00b      	b.n	8004bac <HAL_RCC_GetSysClockFreq+0xec>
  }
  else if (__HAL_RCC_GET_SYSCLK_SOURCE() == RCC_SYSCLKSOURCE_STATUS_LSI)
 8004b94:	4b08      	ldr	r3, [pc, #32]	@ (8004bb8 <HAL_RCC_GetSysClockFreq+0xf8>)
 8004b96:	689b      	ldr	r3, [r3, #8]
 8004b98:	2238      	movs	r2, #56	@ 0x38
 8004b9a:	4013      	ands	r3, r2
 8004b9c:	2b18      	cmp	r3, #24
 8004b9e:	d103      	bne.n	8004ba8 <HAL_RCC_GetSysClockFreq+0xe8>
  {
    /* LSI used as system clock source */
    sysclockfreq = LSI_VALUE;
 8004ba0:	23fa      	movs	r3, #250	@ 0xfa
 8004ba2:	01db      	lsls	r3, r3, #7
 8004ba4:	613b      	str	r3, [r7, #16]
 8004ba6:	e001      	b.n	8004bac <HAL_RCC_GetSysClockFreq+0xec>
  }
  else
  {
    sysclockfreq = 0U;
 8004ba8:	2300      	movs	r3, #0
 8004baa:	613b      	str	r3, [r7, #16]
  }

  return sysclockfreq;
 8004bac:	693b      	ldr	r3, [r7, #16]
}
 8004bae:	0018      	movs	r0, r3
 8004bb0:	46bd      	mov	sp, r7
 8004bb2:	b006      	add	sp, #24
 8004bb4:	bd80      	pop	{r7, pc}
 8004bb6:	46c0      	nop			@ (mov r8, r8)
 8004bb8:	40021000 	.word	0x40021000
 8004bbc:	00f42400 	.word	0x00f42400
 8004bc0:	007a1200 	.word	0x007a1200

08004bc4 <HAL_RCC_GetHCLKFreq>:
  *
  * @note   The SystemCoreClock CMSIS variable is used to store System Clock Frequency.
  * @retval HCLK frequency in Hz
  */
uint32_t HAL_RCC_GetHCLKFreq(void)
{
 8004bc4:	b580      	push	{r7, lr}
 8004bc6:	af00      	add	r7, sp, #0
  return SystemCoreClock;
 8004bc8:	4b02      	ldr	r3, [pc, #8]	@ (8004bd4 <HAL_RCC_GetHCLKFreq+0x10>)
 8004bca:	681b      	ldr	r3, [r3, #0]
}
 8004bcc:	0018      	movs	r0, r3
 8004bce:	46bd      	mov	sp, r7
 8004bd0:	bd80      	pop	{r7, pc}
 8004bd2:	46c0      	nop			@ (mov r8, r8)
 8004bd4:	2000001c 	.word	0x2000001c

08004bd8 <HAL_RCC_GetPCLK1Freq>:
  * @note   Each time PCLK1 changes, this function must be called to update the
  *         right PCLK1 value. Otherwise, any configuration based on this function will be incorrect.
  * @retval PCLK1 frequency in Hz
  */
uint32_t HAL_RCC_GetPCLK1Freq(void)
{
 8004bd8:	b5b0      	push	{r4, r5, r7, lr}
 8004bda:	af00      	add	r7, sp, #0
  /* Get HCLK source and Compute PCLK1 frequency ---------------------------*/
  return ((uint32_t)(__LL_RCC_CALC_PCLK1_FREQ(HAL_RCC_GetHCLKFreq(), LL_RCC_GetAPB1Prescaler())));
 8004bdc:	f7ff fff2 	bl	8004bc4 <HAL_RCC_GetHCLKFreq>
 8004be0:	0004      	movs	r4, r0
 8004be2:	f7ff fb3f 	bl	8004264 <LL_RCC_GetAPB1Prescaler>
 8004be6:	0003      	movs	r3, r0
 8004be8:	0b1a      	lsrs	r2, r3, #12
 8004bea:	4b05      	ldr	r3, [pc, #20]	@ (8004c00 <HAL_RCC_GetPCLK1Freq+0x28>)
 8004bec:	0092      	lsls	r2, r2, #2
 8004bee:	58d3      	ldr	r3, [r2, r3]
 8004bf0:	221f      	movs	r2, #31
 8004bf2:	4013      	ands	r3, r2
 8004bf4:	40dc      	lsrs	r4, r3
 8004bf6:	0023      	movs	r3, r4
}
 8004bf8:	0018      	movs	r0, r3
 8004bfa:	46bd      	mov	sp, r7
 8004bfc:	bdb0      	pop	{r4, r5, r7, pc}
 8004bfe:	46c0      	nop			@ (mov r8, r8)
 8004c00:	080077c4 	.word	0x080077c4

08004c04 <HAL_RCCEx_PeriphCLKConfig>:
  *         the RTC clock source: in this case the access to Backup domain is enabled.
  *
  * @retval HAL status
  */
HAL_StatusTypeDef HAL_RCCEx_PeriphCLKConfig(RCC_PeriphCLKInitTypeDef  *PeriphClkInit)
{
 8004c04:	b580      	push	{r7, lr}
 8004c06:	b086      	sub	sp, #24
 8004c08:	af00      	add	r7, sp, #0
 8004c0a:	6078      	str	r0, [r7, #4]
  uint32_t tmpregister;
  uint32_t tickstart;
  HAL_StatusTypeDef ret    = HAL_OK;   /* Intermediate status */
 8004c0c:	2313      	movs	r3, #19
 8004c0e:	18fb      	adds	r3, r7, r3
 8004c10:	2200      	movs	r2, #0
 8004c12:	701a      	strb	r2, [r3, #0]
  HAL_StatusTypeDef status = HAL_OK;   /* Final status */
 8004c14:	2312      	movs	r3, #18
 8004c16:	18fb      	adds	r3, r7, r3
 8004c18:	2200      	movs	r2, #0
 8004c1a:	701a      	strb	r2, [r3, #0]

  /* Check the parameters */
  assert_param(IS_RCC_PERIPHCLOCK(PeriphClkInit->PeriphClockSelection));

  /*-------------------------- RTC clock source configuration ----------------------*/
  if ((PeriphClkInit->PeriphClockSelection & RCC_PERIPHCLK_RTC) == RCC_PERIPHCLK_RTC)
 8004c1c:	687b      	ldr	r3, [r7, #4]
 8004c1e:	681a      	ldr	r2, [r3, #0]
 8004c20:	2380      	movs	r3, #128	@ 0x80
 8004c22:	029b      	lsls	r3, r3, #10
 8004c24:	4013      	ands	r3, r2
 8004c26:	d100      	bne.n	8004c2a <HAL_RCCEx_PeriphCLKConfig+0x26>
 8004c28:	e0a3      	b.n	8004d72 <HAL_RCCEx_PeriphCLKConfig+0x16e>
  {
    FlagStatus       pwrclkchanged = RESET;
 8004c2a:	2011      	movs	r0, #17
 8004c2c:	183b      	adds	r3, r7, r0
 8004c2e:	2200      	movs	r2, #0
 8004c30:	701a      	strb	r2, [r3, #0]

    /* Check for RTC Parameters used to output RTCCLK */
    assert_param(IS_RCC_RTCCLKSOURCE(PeriphClkInit->RTCClockSelection));

    /* Enable Power Clock */
    if (__HAL_RCC_PWR_IS_CLK_DISABLED())
 8004c32:	4bc3      	ldr	r3, [pc, #780]	@ (8004f40 <HAL_RCCEx_PeriphCLKConfig+0x33c>)
 8004c34:	6bda      	ldr	r2, [r3, #60]	@ 0x3c
 8004c36:	2380      	movs	r3, #128	@ 0x80
 8004c38:	055b      	lsls	r3, r3, #21
 8004c3a:	4013      	ands	r3, r2
 8004c3c:	d110      	bne.n	8004c60 <HAL_RCCEx_PeriphCLKConfig+0x5c>
    {
      __HAL_RCC_PWR_CLK_ENABLE();
 8004c3e:	4bc0      	ldr	r3, [pc, #768]	@ (8004f40 <HAL_RCCEx_PeriphCLKConfig+0x33c>)
 8004c40:	6bda      	ldr	r2, [r3, #60]	@ 0x3c
 8004c42:	4bbf      	ldr	r3, [pc, #764]	@ (8004f40 <HAL_RCCEx_PeriphCLKConfig+0x33c>)
 8004c44:	2180      	movs	r1, #128	@ 0x80
 8004c46:	0549      	lsls	r1, r1, #21
 8004c48:	430a      	orrs	r2, r1
 8004c4a:	63da      	str	r2, [r3, #60]	@ 0x3c
 8004c4c:	4bbc      	ldr	r3, [pc, #752]	@ (8004f40 <HAL_RCCEx_PeriphCLKConfig+0x33c>)
 8004c4e:	6bda      	ldr	r2, [r3, #60]	@ 0x3c
 8004c50:	2380      	movs	r3, #128	@ 0x80
 8004c52:	055b      	lsls	r3, r3, #21
 8004c54:	4013      	ands	r3, r2
 8004c56:	60bb      	str	r3, [r7, #8]
 8004c58:	68bb      	ldr	r3, [r7, #8]
      pwrclkchanged = SET;
 8004c5a:	183b      	adds	r3, r7, r0
 8004c5c:	2201      	movs	r2, #1
 8004c5e:	701a      	strb	r2, [r3, #0]
    }

    /* Enable write access to Backup domain */
    SET_BIT(PWR->CR1, PWR_CR1_DBP);
 8004c60:	4bb8      	ldr	r3, [pc, #736]	@ (8004f44 <HAL_RCCEx_PeriphCLKConfig+0x340>)
 8004c62:	681a      	ldr	r2, [r3, #0]
 8004c64:	4bb7      	ldr	r3, [pc, #732]	@ (8004f44 <HAL_RCCEx_PeriphCLKConfig+0x340>)
 8004c66:	2180      	movs	r1, #128	@ 0x80
 8004c68:	0049      	lsls	r1, r1, #1
 8004c6a:	430a      	orrs	r2, r1
 8004c6c:	601a      	str	r2, [r3, #0]

    /* Wait for Backup domain Write protection disable */
    tickstart = HAL_GetTick();
 8004c6e:	f7fd f935 	bl	8001edc <HAL_GetTick>
 8004c72:	0003      	movs	r3, r0
 8004c74:	60fb      	str	r3, [r7, #12]

    while ((PWR->CR1 & PWR_CR1_DBP) == 0U)
 8004c76:	e00b      	b.n	8004c90 <HAL_RCCEx_PeriphCLKConfig+0x8c>
    {
      if ((HAL_GetTick() - tickstart) > RCC_DBP_TIMEOUT_VALUE)
 8004c78:	f7fd f930 	bl	8001edc <HAL_GetTick>
 8004c7c:	0002      	movs	r2, r0
 8004c7e:	68fb      	ldr	r3, [r7, #12]
 8004c80:	1ad3      	subs	r3, r2, r3
 8004c82:	2b02      	cmp	r3, #2
 8004c84:	d904      	bls.n	8004c90 <HAL_RCCEx_PeriphCLKConfig+0x8c>
      {
        ret = HAL_TIMEOUT;
 8004c86:	2313      	movs	r3, #19
 8004c88:	18fb      	adds	r3, r7, r3
 8004c8a:	2203      	movs	r2, #3
 8004c8c:	701a      	strb	r2, [r3, #0]
        break;
 8004c8e:	e005      	b.n	8004c9c <HAL_RCCEx_PeriphCLKConfig+0x98>
    while ((PWR->CR1 & PWR_CR1_DBP) == 0U)
 8004c90:	4bac      	ldr	r3, [pc, #688]	@ (8004f44 <HAL_RCCEx_PeriphCLKConfig+0x340>)
 8004c92:	681a      	ldr	r2, [r3, #0]
 8004c94:	2380      	movs	r3, #128	@ 0x80
 8004c96:	005b      	lsls	r3, r3, #1
 8004c98:	4013      	ands	r3, r2
 8004c9a:	d0ed      	beq.n	8004c78 <HAL_RCCEx_PeriphCLKConfig+0x74>
      }
    }

    if (ret == HAL_OK)
 8004c9c:	2313      	movs	r3, #19
 8004c9e:	18fb      	adds	r3, r7, r3
 8004ca0:	781b      	ldrb	r3, [r3, #0]
 8004ca2:	2b00      	cmp	r3, #0
 8004ca4:	d154      	bne.n	8004d50 <HAL_RCCEx_PeriphCLKConfig+0x14c>
    {
      /* Reset the Backup domain only if the RTC Clock source selection is modified from default */
      tmpregister = READ_BIT(RCC->BDCR, RCC_BDCR_RTCSEL);
 8004ca6:	4ba6      	ldr	r3, [pc, #664]	@ (8004f40 <HAL_RCCEx_PeriphCLKConfig+0x33c>)
 8004ca8:	6dda      	ldr	r2, [r3, #92]	@ 0x5c
 8004caa:	23c0      	movs	r3, #192	@ 0xc0
 8004cac:	009b      	lsls	r3, r3, #2
 8004cae:	4013      	ands	r3, r2
 8004cb0:	617b      	str	r3, [r7, #20]

      /* Reset the Backup domain only if the RTC Clock source selection is modified */
      if ((tmpregister != RCC_RTCCLKSOURCE_NONE) && (tmpregister != PeriphClkInit->RTCClockSelection))
 8004cb2:	697b      	ldr	r3, [r7, #20]
 8004cb4:	2b00      	cmp	r3, #0
 8004cb6:	d019      	beq.n	8004cec <HAL_RCCEx_PeriphCLKConfig+0xe8>
 8004cb8:	687b      	ldr	r3, [r7, #4]
 8004cba:	6b1b      	ldr	r3, [r3, #48]	@ 0x30
 8004cbc:	697a      	ldr	r2, [r7, #20]
 8004cbe:	429a      	cmp	r2, r3
 8004cc0:	d014      	beq.n	8004cec <HAL_RCCEx_PeriphCLKConfig+0xe8>
      {
        /* Store the content of BDCR register before the reset of Backup Domain */
        tmpregister = READ_BIT(RCC->BDCR, ~(RCC_BDCR_RTCSEL));
 8004cc2:	4b9f      	ldr	r3, [pc, #636]	@ (8004f40 <HAL_RCCEx_PeriphCLKConfig+0x33c>)
 8004cc4:	6ddb      	ldr	r3, [r3, #92]	@ 0x5c
 8004cc6:	4aa0      	ldr	r2, [pc, #640]	@ (8004f48 <HAL_RCCEx_PeriphCLKConfig+0x344>)
 8004cc8:	4013      	ands	r3, r2
 8004cca:	617b      	str	r3, [r7, #20]
        /* RTC Clock selection can be changed only if the Backup Domain is reset */
        __HAL_RCC_BACKUPRESET_FORCE();
 8004ccc:	4b9c      	ldr	r3, [pc, #624]	@ (8004f40 <HAL_RCCEx_PeriphCLKConfig+0x33c>)
 8004cce:	6dda      	ldr	r2, [r3, #92]	@ 0x5c
 8004cd0:	4b9b      	ldr	r3, [pc, #620]	@ (8004f40 <HAL_RCCEx_PeriphCLKConfig+0x33c>)
 8004cd2:	2180      	movs	r1, #128	@ 0x80
 8004cd4:	0249      	lsls	r1, r1, #9
 8004cd6:	430a      	orrs	r2, r1
 8004cd8:	65da      	str	r2, [r3, #92]	@ 0x5c
        __HAL_RCC_BACKUPRESET_RELEASE();
 8004cda:	4b99      	ldr	r3, [pc, #612]	@ (8004f40 <HAL_RCCEx_PeriphCLKConfig+0x33c>)
 8004cdc:	6dda      	ldr	r2, [r3, #92]	@ 0x5c
 8004cde:	4b98      	ldr	r3, [pc, #608]	@ (8004f40 <HAL_RCCEx_PeriphCLKConfig+0x33c>)
 8004ce0:	499a      	ldr	r1, [pc, #616]	@ (8004f4c <HAL_RCCEx_PeriphCLKConfig+0x348>)
 8004ce2:	400a      	ands	r2, r1
 8004ce4:	65da      	str	r2, [r3, #92]	@ 0x5c
        /* Restore the Content of BDCR register */
        RCC->BDCR = tmpregister;
 8004ce6:	4b96      	ldr	r3, [pc, #600]	@ (8004f40 <HAL_RCCEx_PeriphCLKConfig+0x33c>)
 8004ce8:	697a      	ldr	r2, [r7, #20]
 8004cea:	65da      	str	r2, [r3, #92]	@ 0x5c
      }

      /* Wait for LSE reactivation if LSE was enable prior to Backup Domain reset */
      if (HAL_IS_BIT_SET(tmpregister, RCC_BDCR_LSEON))
 8004cec:	697b      	ldr	r3, [r7, #20]
 8004cee:	2201      	movs	r2, #1
 8004cf0:	4013      	ands	r3, r2
 8004cf2:	d016      	beq.n	8004d22 <HAL_RCCEx_PeriphCLKConfig+0x11e>
      {
        /* Get Start Tick*/
        tickstart = HAL_GetTick();
 8004cf4:	f7fd f8f2 	bl	8001edc <HAL_GetTick>
 8004cf8:	0003      	movs	r3, r0
 8004cfa:	60fb      	str	r3, [r7, #12]

        /* Wait till LSE is ready */
        while (READ_BIT(RCC->BDCR, RCC_BDCR_LSERDY) == 0U)
 8004cfc:	e00c      	b.n	8004d18 <HAL_RCCEx_PeriphCLKConfig+0x114>
        {
          if ((HAL_GetTick() - tickstart) > RCC_LSE_TIMEOUT_VALUE)
 8004cfe:	f7fd f8ed 	bl	8001edc <HAL_GetTick>
 8004d02:	0002      	movs	r2, r0
 8004d04:	68fb      	ldr	r3, [r7, #12]
 8004d06:	1ad3      	subs	r3, r2, r3
 8004d08:	4a91      	ldr	r2, [pc, #580]	@ (8004f50 <HAL_RCCEx_PeriphCLKConfig+0x34c>)
 8004d0a:	4293      	cmp	r3, r2
 8004d0c:	d904      	bls.n	8004d18 <HAL_RCCEx_PeriphCLKConfig+0x114>
          {
            ret = HAL_TIMEOUT;
 8004d0e:	2313      	movs	r3, #19
 8004d10:	18fb      	adds	r3, r7, r3
 8004d12:	2203      	movs	r2, #3
 8004d14:	701a      	strb	r2, [r3, #0]
            break;
 8004d16:	e004      	b.n	8004d22 <HAL_RCCEx_PeriphCLKConfig+0x11e>
        while (READ_BIT(RCC->BDCR, RCC_BDCR_LSERDY) == 0U)
 8004d18:	4b89      	ldr	r3, [pc, #548]	@ (8004f40 <HAL_RCCEx_PeriphCLKConfig+0x33c>)
 8004d1a:	6ddb      	ldr	r3, [r3, #92]	@ 0x5c
 8004d1c:	2202      	movs	r2, #2
 8004d1e:	4013      	ands	r3, r2
 8004d20:	d0ed      	beq.n	8004cfe <HAL_RCCEx_PeriphCLKConfig+0xfa>
          }
        }
      }

      if (ret == HAL_OK)
 8004d22:	2313      	movs	r3, #19
 8004d24:	18fb      	adds	r3, r7, r3
 8004d26:	781b      	ldrb	r3, [r3, #0]
 8004d28:	2b00      	cmp	r3, #0
 8004d2a:	d10a      	bne.n	8004d42 <HAL_RCCEx_PeriphCLKConfig+0x13e>
      {
        /* Apply new RTC clock source selection */
        __HAL_RCC_RTC_CONFIG(PeriphClkInit->RTCClockSelection);
 8004d2c:	4b84      	ldr	r3, [pc, #528]	@ (8004f40 <HAL_RCCEx_PeriphCLKConfig+0x33c>)
 8004d2e:	6ddb      	ldr	r3, [r3, #92]	@ 0x5c
 8004d30:	4a85      	ldr	r2, [pc, #532]	@ (8004f48 <HAL_RCCEx_PeriphCLKConfig+0x344>)
 8004d32:	4013      	ands	r3, r2
 8004d34:	0019      	movs	r1, r3
 8004d36:	687b      	ldr	r3, [r7, #4]
 8004d38:	6b1a      	ldr	r2, [r3, #48]	@ 0x30
 8004d3a:	4b81      	ldr	r3, [pc, #516]	@ (8004f40 <HAL_RCCEx_PeriphCLKConfig+0x33c>)
 8004d3c:	430a      	orrs	r2, r1
 8004d3e:	65da      	str	r2, [r3, #92]	@ 0x5c
 8004d40:	e00c      	b.n	8004d5c <HAL_RCCEx_PeriphCLKConfig+0x158>
      }
      else
      {
        /* set overall return value */
        status = ret;
 8004d42:	2312      	movs	r3, #18
 8004d44:	18fb      	adds	r3, r7, r3
 8004d46:	2213      	movs	r2, #19
 8004d48:	18ba      	adds	r2, r7, r2
 8004d4a:	7812      	ldrb	r2, [r2, #0]
 8004d4c:	701a      	strb	r2, [r3, #0]
 8004d4e:	e005      	b.n	8004d5c <HAL_RCCEx_PeriphCLKConfig+0x158>
      }
    }
    else
    {
      /* set overall return value */
      status = ret;
 8004d50:	2312      	movs	r3, #18
 8004d52:	18fb      	adds	r3, r7, r3
 8004d54:	2213      	movs	r2, #19
 8004d56:	18ba      	adds	r2, r7, r2
 8004d58:	7812      	ldrb	r2, [r2, #0]
 8004d5a:	701a      	strb	r2, [r3, #0]
    }

    /* Restore clock configuration if changed */
    if (pwrclkchanged == SET)
 8004d5c:	2311      	movs	r3, #17
 8004d5e:	18fb      	adds	r3, r7, r3
 8004d60:	781b      	ldrb	r3, [r3, #0]
 8004d62:	2b01      	cmp	r3, #1
 8004d64:	d105      	bne.n	8004d72 <HAL_RCCEx_PeriphCLKConfig+0x16e>
    {
      __HAL_RCC_PWR_CLK_DISABLE();
 8004d66:	4b76      	ldr	r3, [pc, #472]	@ (8004f40 <HAL_RCCEx_PeriphCLKConfig+0x33c>)
 8004d68:	6bda      	ldr	r2, [r3, #60]	@ 0x3c
 8004d6a:	4b75      	ldr	r3, [pc, #468]	@ (8004f40 <HAL_RCCEx_PeriphCLKConfig+0x33c>)
 8004d6c:	4979      	ldr	r1, [pc, #484]	@ (8004f54 <HAL_RCCEx_PeriphCLKConfig+0x350>)
 8004d6e:	400a      	ands	r2, r1
 8004d70:	63da      	str	r2, [r3, #60]	@ 0x3c
    }
  }

  /*-------------------------- USART1 clock source configuration -------------------*/
  if (((PeriphClkInit->PeriphClockSelection) & RCC_PERIPHCLK_USART1) == RCC_PERIPHCLK_USART1)
 8004d72:	687b      	ldr	r3, [r7, #4]
 8004d74:	681b      	ldr	r3, [r3, #0]
 8004d76:	2201      	movs	r2, #1
 8004d78:	4013      	ands	r3, r2
 8004d7a:	d009      	beq.n	8004d90 <HAL_RCCEx_PeriphCLKConfig+0x18c>
  {
    /* Check the parameters */
    assert_param(IS_RCC_USART1CLKSOURCE(PeriphClkInit->Usart1ClockSelection));

    /* Configure the USART1 clock source */
    __HAL_RCC_USART1_CONFIG(PeriphClkInit->Usart1ClockSelection);
 8004d7c:	4b70      	ldr	r3, [pc, #448]	@ (8004f40 <HAL_RCCEx_PeriphCLKConfig+0x33c>)
 8004d7e:	6d5b      	ldr	r3, [r3, #84]	@ 0x54
 8004d80:	2203      	movs	r2, #3
 8004d82:	4393      	bics	r3, r2
 8004d84:	0019      	movs	r1, r3
 8004d86:	687b      	ldr	r3, [r7, #4]
 8004d88:	685a      	ldr	r2, [r3, #4]
 8004d8a:	4b6d      	ldr	r3, [pc, #436]	@ (8004f40 <HAL_RCCEx_PeriphCLKConfig+0x33c>)
 8004d8c:	430a      	orrs	r2, r1
 8004d8e:	655a      	str	r2, [r3, #84]	@ 0x54
  }

#if defined(RCC_CCIPR_USART2SEL)
  /*-------------------------- USART2 clock source configuration -------------------*/
  if (((PeriphClkInit->PeriphClockSelection) & RCC_PERIPHCLK_USART2) == RCC_PERIPHCLK_USART2)
 8004d90:	687b      	ldr	r3, [r7, #4]
 8004d92:	681b      	ldr	r3, [r3, #0]
 8004d94:	2202      	movs	r2, #2
 8004d96:	4013      	ands	r3, r2
 8004d98:	d009      	beq.n	8004dae <HAL_RCCEx_PeriphCLKConfig+0x1aa>
  {
    /* Check the parameters */
    assert_param(IS_RCC_USART2CLKSOURCE(PeriphClkInit->Usart2ClockSelection));

    /* Configure the USART2 clock source */
    __HAL_RCC_USART2_CONFIG(PeriphClkInit->Usart2ClockSelection);
 8004d9a:	4b69      	ldr	r3, [pc, #420]	@ (8004f40 <HAL_RCCEx_PeriphCLKConfig+0x33c>)
 8004d9c:	6d5b      	ldr	r3, [r3, #84]	@ 0x54
 8004d9e:	220c      	movs	r2, #12
 8004da0:	4393      	bics	r3, r2
 8004da2:	0019      	movs	r1, r3
 8004da4:	687b      	ldr	r3, [r7, #4]
 8004da6:	689a      	ldr	r2, [r3, #8]
 8004da8:	4b65      	ldr	r3, [pc, #404]	@ (8004f40 <HAL_RCCEx_PeriphCLKConfig+0x33c>)
 8004daa:	430a      	orrs	r2, r1
 8004dac:	655a      	str	r2, [r3, #84]	@ 0x54
  }
#endif /* RCC_CCIPR_USART3SEL */

#if defined(LPUART1)
  /*-------------------------- LPUART1 clock source configuration ------------------*/
  if (((PeriphClkInit->PeriphClockSelection) & RCC_PERIPHCLK_LPUART1) == RCC_PERIPHCLK_LPUART1)
 8004dae:	687b      	ldr	r3, [r7, #4]
 8004db0:	681b      	ldr	r3, [r3, #0]
 8004db2:	2210      	movs	r2, #16
 8004db4:	4013      	ands	r3, r2
 8004db6:	d009      	beq.n	8004dcc <HAL_RCCEx_PeriphCLKConfig+0x1c8>
  {
    /* Check the parameters */
    assert_param(IS_RCC_LPUART1CLKSOURCE(PeriphClkInit->Lpuart1ClockSelection));

    /* Configure the LPUART1 clock source */
    __HAL_RCC_LPUART1_CONFIG(PeriphClkInit->Lpuart1ClockSelection);
 8004db8:	4b61      	ldr	r3, [pc, #388]	@ (8004f40 <HAL_RCCEx_PeriphCLKConfig+0x33c>)
 8004dba:	6d5b      	ldr	r3, [r3, #84]	@ 0x54
 8004dbc:	4a66      	ldr	r2, [pc, #408]	@ (8004f58 <HAL_RCCEx_PeriphCLKConfig+0x354>)
 8004dbe:	4013      	ands	r3, r2
 8004dc0:	0019      	movs	r1, r3
 8004dc2:	687b      	ldr	r3, [r7, #4]
 8004dc4:	68da      	ldr	r2, [r3, #12]
 8004dc6:	4b5e      	ldr	r3, [pc, #376]	@ (8004f40 <HAL_RCCEx_PeriphCLKConfig+0x33c>)
 8004dc8:	430a      	orrs	r2, r1
 8004dca:	655a      	str	r2, [r3, #84]	@ 0x54
  }
#endif /* LPUART2 */

#if defined(RCC_CCIPR_LPTIM1SEL)
  /*-------------------------- LPTIM1 clock source configuration -------------------*/
  if (((PeriphClkInit->PeriphClockSelection) & RCC_PERIPHCLK_LPTIM1) == (RCC_PERIPHCLK_LPTIM1))
 8004dcc:	687b      	ldr	r3, [r7, #4]
 8004dce:	681a      	ldr	r2, [r3, #0]
 8004dd0:	2380      	movs	r3, #128	@ 0x80
 8004dd2:	009b      	lsls	r3, r3, #2
 8004dd4:	4013      	ands	r3, r2
 8004dd6:	d009      	beq.n	8004dec <HAL_RCCEx_PeriphCLKConfig+0x1e8>
  {
    assert_param(IS_RCC_LPTIM1CLKSOURCE(PeriphClkInit->Lptim1ClockSelection));
    __HAL_RCC_LPTIM1_CONFIG(PeriphClkInit->Lptim1ClockSelection);
 8004dd8:	4b59      	ldr	r3, [pc, #356]	@ (8004f40 <HAL_RCCEx_PeriphCLKConfig+0x33c>)
 8004dda:	6d5b      	ldr	r3, [r3, #84]	@ 0x54
 8004ddc:	4a5f      	ldr	r2, [pc, #380]	@ (8004f5c <HAL_RCCEx_PeriphCLKConfig+0x358>)
 8004dde:	4013      	ands	r3, r2
 8004de0:	0019      	movs	r1, r3
 8004de2:	687b      	ldr	r3, [r7, #4]
 8004de4:	699a      	ldr	r2, [r3, #24]
 8004de6:	4b56      	ldr	r3, [pc, #344]	@ (8004f40 <HAL_RCCEx_PeriphCLKConfig+0x33c>)
 8004de8:	430a      	orrs	r2, r1
 8004dea:	655a      	str	r2, [r3, #84]	@ 0x54
  }
#endif /* RCC_CCIPR_LPTIM1SEL */

#if defined(RCC_CCIPR_LPTIM2SEL)
  /*-------------------------- LPTIM2 clock source configuration -------------------*/
  if (((PeriphClkInit->PeriphClockSelection) & RCC_PERIPHCLK_LPTIM2) == (RCC_PERIPHCLK_LPTIM2))
 8004dec:	687b      	ldr	r3, [r7, #4]
 8004dee:	681a      	ldr	r2, [r3, #0]
 8004df0:	2380      	movs	r3, #128	@ 0x80
 8004df2:	00db      	lsls	r3, r3, #3
 8004df4:	4013      	ands	r3, r2
 8004df6:	d009      	beq.n	8004e0c <HAL_RCCEx_PeriphCLKConfig+0x208>
  {
    assert_param(IS_RCC_LPTIM2CLKSOURCE(PeriphClkInit->Lptim2ClockSelection));
    __HAL_RCC_LPTIM2_CONFIG(PeriphClkInit->Lptim2ClockSelection);
 8004df8:	4b51      	ldr	r3, [pc, #324]	@ (8004f40 <HAL_RCCEx_PeriphCLKConfig+0x33c>)
 8004dfa:	6d5b      	ldr	r3, [r3, #84]	@ 0x54
 8004dfc:	4a58      	ldr	r2, [pc, #352]	@ (8004f60 <HAL_RCCEx_PeriphCLKConfig+0x35c>)
 8004dfe:	4013      	ands	r3, r2
 8004e00:	0019      	movs	r1, r3
 8004e02:	687b      	ldr	r3, [r7, #4]
 8004e04:	69da      	ldr	r2, [r3, #28]
 8004e06:	4b4e      	ldr	r3, [pc, #312]	@ (8004f40 <HAL_RCCEx_PeriphCLKConfig+0x33c>)
 8004e08:	430a      	orrs	r2, r1
 8004e0a:	655a      	str	r2, [r3, #84]	@ 0x54
  }
#endif /* RCC_CCIPR_LPTIM2SEL */

  /*-------------------------- I2C1 clock source configuration ---------------------*/
  if (((PeriphClkInit->PeriphClockSelection) & RCC_PERIPHCLK_I2C1) == RCC_PERIPHCLK_I2C1)
 8004e0c:	687b      	ldr	r3, [r7, #4]
 8004e0e:	681b      	ldr	r3, [r3, #0]
 8004e10:	2220      	movs	r2, #32
 8004e12:	4013      	ands	r3, r2
 8004e14:	d009      	beq.n	8004e2a <HAL_RCCEx_PeriphCLKConfig+0x226>
  {
    /* Check the parameters */
    assert_param(IS_RCC_I2C1CLKSOURCE(PeriphClkInit->I2c1ClockSelection));

    /* Configure the I2C1 clock source */
    __HAL_RCC_I2C1_CONFIG(PeriphClkInit->I2c1ClockSelection);
 8004e16:	4b4a      	ldr	r3, [pc, #296]	@ (8004f40 <HAL_RCCEx_PeriphCLKConfig+0x33c>)
 8004e18:	6d5b      	ldr	r3, [r3, #84]	@ 0x54
 8004e1a:	4a52      	ldr	r2, [pc, #328]	@ (8004f64 <HAL_RCCEx_PeriphCLKConfig+0x360>)
 8004e1c:	4013      	ands	r3, r2
 8004e1e:	0019      	movs	r1, r3
 8004e20:	687b      	ldr	r3, [r7, #4]
 8004e22:	691a      	ldr	r2, [r3, #16]
 8004e24:	4b46      	ldr	r3, [pc, #280]	@ (8004f40 <HAL_RCCEx_PeriphCLKConfig+0x33c>)
 8004e26:	430a      	orrs	r2, r1
 8004e28:	655a      	str	r2, [r3, #84]	@ 0x54
      __HAL_RCC_PLLCLKOUT_ENABLE(RCC_PLLQCLK);
    }
  }
#endif /* RNG */
  /*-------------------------- ADC clock source configuration ----------------------*/
  if (((PeriphClkInit->PeriphClockSelection) & RCC_PERIPHCLK_ADC) == RCC_PERIPHCLK_ADC)
 8004e2a:	687b      	ldr	r3, [r7, #4]
 8004e2c:	681a      	ldr	r2, [r3, #0]
 8004e2e:	2380      	movs	r3, #128	@ 0x80
 8004e30:	01db      	lsls	r3, r3, #7
 8004e32:	4013      	ands	r3, r2
 8004e34:	d015      	beq.n	8004e62 <HAL_RCCEx_PeriphCLKConfig+0x25e>
  {
    /* Check the parameters */
    assert_param(IS_RCC_ADCCLKSOURCE(PeriphClkInit->AdcClockSelection));

    /* Configure the ADC interface clock source */
    __HAL_RCC_ADC_CONFIG(PeriphClkInit->AdcClockSelection);
 8004e36:	4b42      	ldr	r3, [pc, #264]	@ (8004f40 <HAL_RCCEx_PeriphCLKConfig+0x33c>)
 8004e38:	6d5b      	ldr	r3, [r3, #84]	@ 0x54
 8004e3a:	009b      	lsls	r3, r3, #2
 8004e3c:	0899      	lsrs	r1, r3, #2
 8004e3e:	687b      	ldr	r3, [r7, #4]
 8004e40:	6a1a      	ldr	r2, [r3, #32]
 8004e42:	4b3f      	ldr	r3, [pc, #252]	@ (8004f40 <HAL_RCCEx_PeriphCLKConfig+0x33c>)
 8004e44:	430a      	orrs	r2, r1
 8004e46:	655a      	str	r2, [r3, #84]	@ 0x54

    if (PeriphClkInit->AdcClockSelection == RCC_ADCCLKSOURCE_PLLADC)
 8004e48:	687b      	ldr	r3, [r7, #4]
 8004e4a:	6a1a      	ldr	r2, [r3, #32]
 8004e4c:	2380      	movs	r3, #128	@ 0x80
 8004e4e:	05db      	lsls	r3, r3, #23
 8004e50:	429a      	cmp	r2, r3
 8004e52:	d106      	bne.n	8004e62 <HAL_RCCEx_PeriphCLKConfig+0x25e>
    {
      /* Enable PLLPCLK output */
      __HAL_RCC_PLLCLKOUT_ENABLE(RCC_PLLPCLK);
 8004e54:	4b3a      	ldr	r3, [pc, #232]	@ (8004f40 <HAL_RCCEx_PeriphCLKConfig+0x33c>)
 8004e56:	68da      	ldr	r2, [r3, #12]
 8004e58:	4b39      	ldr	r3, [pc, #228]	@ (8004f40 <HAL_RCCEx_PeriphCLKConfig+0x33c>)
 8004e5a:	2180      	movs	r1, #128	@ 0x80
 8004e5c:	0249      	lsls	r1, r1, #9
 8004e5e:	430a      	orrs	r2, r1
 8004e60:	60da      	str	r2, [r3, #12]
    }
  }

#if defined(CEC)
  /*-------------------------- CEC clock source configuration ---------------------*/
  if (((PeriphClkInit->PeriphClockSelection) & RCC_PERIPHCLK_CEC) == RCC_PERIPHCLK_CEC)
 8004e62:	687b      	ldr	r3, [r7, #4]
 8004e64:	681a      	ldr	r2, [r3, #0]
 8004e66:	2380      	movs	r3, #128	@ 0x80
 8004e68:	031b      	lsls	r3, r3, #12
 8004e6a:	4013      	ands	r3, r2
 8004e6c:	d009      	beq.n	8004e82 <HAL_RCCEx_PeriphCLKConfig+0x27e>
  {
    /* Check the parameters */
    assert_param(IS_RCC_CECCLKSOURCE(PeriphClkInit->CecClockSelection));

    /* Configure the CEC clock source */
    __HAL_RCC_CEC_CONFIG(PeriphClkInit->CecClockSelection);
 8004e6e:	4b34      	ldr	r3, [pc, #208]	@ (8004f40 <HAL_RCCEx_PeriphCLKConfig+0x33c>)
 8004e70:	6d5b      	ldr	r3, [r3, #84]	@ 0x54
 8004e72:	2240      	movs	r2, #64	@ 0x40
 8004e74:	4393      	bics	r3, r2
 8004e76:	0019      	movs	r1, r3
 8004e78:	687b      	ldr	r3, [r7, #4]
 8004e7a:	6a5a      	ldr	r2, [r3, #36]	@ 0x24
 8004e7c:	4b30      	ldr	r3, [pc, #192]	@ (8004f40 <HAL_RCCEx_PeriphCLKConfig+0x33c>)
 8004e7e:	430a      	orrs	r2, r1
 8004e80:	655a      	str	r2, [r3, #84]	@ 0x54
  }
#endif /* CEC */

#if defined(RCC_CCIPR_TIM1SEL)
  /*-------------------------- TIM1 clock source configuration ---------------------*/
  if (((PeriphClkInit->PeriphClockSelection) & RCC_PERIPHCLK_TIM1) == RCC_PERIPHCLK_TIM1)
 8004e82:	687b      	ldr	r3, [r7, #4]
 8004e84:	681a      	ldr	r2, [r3, #0]
 8004e86:	2380      	movs	r3, #128	@ 0x80
 8004e88:	039b      	lsls	r3, r3, #14
 8004e8a:	4013      	ands	r3, r2
 8004e8c:	d016      	beq.n	8004ebc <HAL_RCCEx_PeriphCLKConfig+0x2b8>
  {
    /* Check the parameters */
    assert_param(IS_RCC_TIM1CLKSOURCE(PeriphClkInit->Tim1ClockSelection));

    /* Configure the TIM1 clock source */
    __HAL_RCC_TIM1_CONFIG(PeriphClkInit->Tim1ClockSelection);
 8004e8e:	4b2c      	ldr	r3, [pc, #176]	@ (8004f40 <HAL_RCCEx_PeriphCLKConfig+0x33c>)
 8004e90:	6d5b      	ldr	r3, [r3, #84]	@ 0x54
 8004e92:	4a35      	ldr	r2, [pc, #212]	@ (8004f68 <HAL_RCCEx_PeriphCLKConfig+0x364>)
 8004e94:	4013      	ands	r3, r2
 8004e96:	0019      	movs	r1, r3
 8004e98:	687b      	ldr	r3, [r7, #4]
 8004e9a:	6a9a      	ldr	r2, [r3, #40]	@ 0x28
 8004e9c:	4b28      	ldr	r3, [pc, #160]	@ (8004f40 <HAL_RCCEx_PeriphCLKConfig+0x33c>)
 8004e9e:	430a      	orrs	r2, r1
 8004ea0:	655a      	str	r2, [r3, #84]	@ 0x54

    if (PeriphClkInit->Tim1ClockSelection == RCC_TIM1CLKSOURCE_PLL)
 8004ea2:	687b      	ldr	r3, [r7, #4]
 8004ea4:	6a9a      	ldr	r2, [r3, #40]	@ 0x28
 8004ea6:	2380      	movs	r3, #128	@ 0x80
 8004ea8:	03db      	lsls	r3, r3, #15
 8004eaa:	429a      	cmp	r2, r3
 8004eac:	d106      	bne.n	8004ebc <HAL_RCCEx_PeriphCLKConfig+0x2b8>
    {
      /* Enable PLLQCLK output */
      __HAL_RCC_PLLCLKOUT_ENABLE(RCC_PLLQCLK);
 8004eae:	4b24      	ldr	r3, [pc, #144]	@ (8004f40 <HAL_RCCEx_PeriphCLKConfig+0x33c>)
 8004eb0:	68da      	ldr	r2, [r3, #12]
 8004eb2:	4b23      	ldr	r3, [pc, #140]	@ (8004f40 <HAL_RCCEx_PeriphCLKConfig+0x33c>)
 8004eb4:	2180      	movs	r1, #128	@ 0x80
 8004eb6:	0449      	lsls	r1, r1, #17
 8004eb8:	430a      	orrs	r2, r1
 8004eba:	60da      	str	r2, [r3, #12]
  }
#endif /* RCC_CCIPR_TIM1SEL */

#if defined(RCC_CCIPR_TIM15SEL)
  /*-------------------------- TIM15 clock source configuration ---------------------*/
  if (((PeriphClkInit->PeriphClockSelection) & RCC_PERIPHCLK_TIM15) == RCC_PERIPHCLK_TIM15)
 8004ebc:	687b      	ldr	r3, [r7, #4]
 8004ebe:	681a      	ldr	r2, [r3, #0]
 8004ec0:	2380      	movs	r3, #128	@ 0x80
 8004ec2:	03db      	lsls	r3, r3, #15
 8004ec4:	4013      	ands	r3, r2
 8004ec6:	d016      	beq.n	8004ef6 <HAL_RCCEx_PeriphCLKConfig+0x2f2>
  {
    /* Check the parameters */
    assert_param(IS_RCC_TIM15CLKSOURCE(PeriphClkInit->Tim15ClockSelection));

    /* Configure the TIM15 clock source */
    __HAL_RCC_TIM15_CONFIG(PeriphClkInit->Tim15ClockSelection);
 8004ec8:	4b1d      	ldr	r3, [pc, #116]	@ (8004f40 <HAL_RCCEx_PeriphCLKConfig+0x33c>)
 8004eca:	6d5b      	ldr	r3, [r3, #84]	@ 0x54
 8004ecc:	4a27      	ldr	r2, [pc, #156]	@ (8004f6c <HAL_RCCEx_PeriphCLKConfig+0x368>)
 8004ece:	4013      	ands	r3, r2
 8004ed0:	0019      	movs	r1, r3
 8004ed2:	687b      	ldr	r3, [r7, #4]
 8004ed4:	6ada      	ldr	r2, [r3, #44]	@ 0x2c
 8004ed6:	4b1a      	ldr	r3, [pc, #104]	@ (8004f40 <HAL_RCCEx_PeriphCLKConfig+0x33c>)
 8004ed8:	430a      	orrs	r2, r1
 8004eda:	655a      	str	r2, [r3, #84]	@ 0x54

    if (PeriphClkInit->Tim15ClockSelection == RCC_TIM15CLKSOURCE_PLL)
 8004edc:	687b      	ldr	r3, [r7, #4]
 8004ede:	6ada      	ldr	r2, [r3, #44]	@ 0x2c
 8004ee0:	2380      	movs	r3, #128	@ 0x80
 8004ee2:	045b      	lsls	r3, r3, #17
 8004ee4:	429a      	cmp	r2, r3
 8004ee6:	d106      	bne.n	8004ef6 <HAL_RCCEx_PeriphCLKConfig+0x2f2>
    {
      /* Enable PLLQCLK output */
      __HAL_RCC_PLLCLKOUT_ENABLE(RCC_PLLQCLK);
 8004ee8:	4b15      	ldr	r3, [pc, #84]	@ (8004f40 <HAL_RCCEx_PeriphCLKConfig+0x33c>)
 8004eea:	68da      	ldr	r2, [r3, #12]
 8004eec:	4b14      	ldr	r3, [pc, #80]	@ (8004f40 <HAL_RCCEx_PeriphCLKConfig+0x33c>)
 8004eee:	2180      	movs	r1, #128	@ 0x80
 8004ef0:	0449      	lsls	r1, r1, #17
 8004ef2:	430a      	orrs	r2, r1
 8004ef4:	60da      	str	r2, [r3, #12]
    }
  }
#endif /* RCC_CCIPR_TIM15SEL */

  /*-------------------------- I2S1 clock source configuration ---------------------*/
  if (((PeriphClkInit->PeriphClockSelection) & RCC_PERIPHCLK_I2S1) == RCC_PERIPHCLK_I2S1)
 8004ef6:	687b      	ldr	r3, [r7, #4]
 8004ef8:	681a      	ldr	r2, [r3, #0]
 8004efa:	2380      	movs	r3, #128	@ 0x80
 8004efc:	011b      	lsls	r3, r3, #4
 8004efe:	4013      	ands	r3, r2
 8004f00:	d016      	beq.n	8004f30 <HAL_RCCEx_PeriphCLKConfig+0x32c>
  {
    /* Check the parameters */
    assert_param(IS_RCC_I2S1CLKSOURCE(PeriphClkInit->I2s1ClockSelection));

    /* Configure the I2S1 clock source */
    __HAL_RCC_I2S1_CONFIG(PeriphClkInit->I2s1ClockSelection);
 8004f02:	4b0f      	ldr	r3, [pc, #60]	@ (8004f40 <HAL_RCCEx_PeriphCLKConfig+0x33c>)
 8004f04:	6d5b      	ldr	r3, [r3, #84]	@ 0x54
 8004f06:	4a1a      	ldr	r2, [pc, #104]	@ (8004f70 <HAL_RCCEx_PeriphCLKConfig+0x36c>)
 8004f08:	4013      	ands	r3, r2
 8004f0a:	0019      	movs	r1, r3
 8004f0c:	687b      	ldr	r3, [r7, #4]
 8004f0e:	695a      	ldr	r2, [r3, #20]
 8004f10:	4b0b      	ldr	r3, [pc, #44]	@ (8004f40 <HAL_RCCEx_PeriphCLKConfig+0x33c>)
 8004f12:	430a      	orrs	r2, r1
 8004f14:	655a      	str	r2, [r3, #84]	@ 0x54

    if (PeriphClkInit->I2s1ClockSelection == RCC_I2S1CLKSOURCE_PLL)
 8004f16:	687b      	ldr	r3, [r7, #4]
 8004f18:	695a      	ldr	r2, [r3, #20]
 8004f1a:	2380      	movs	r3, #128	@ 0x80
 8004f1c:	01db      	lsls	r3, r3, #7
 8004f1e:	429a      	cmp	r2, r3
 8004f20:	d106      	bne.n	8004f30 <HAL_RCCEx_PeriphCLKConfig+0x32c>
    {
      /* Enable PLLPCLK output */
      __HAL_RCC_PLLCLKOUT_ENABLE(RCC_PLLPCLK);
 8004f22:	4b07      	ldr	r3, [pc, #28]	@ (8004f40 <HAL_RCCEx_PeriphCLKConfig+0x33c>)
 8004f24:	68da      	ldr	r2, [r3, #12]
 8004f26:	4b06      	ldr	r3, [pc, #24]	@ (8004f40 <HAL_RCCEx_PeriphCLKConfig+0x33c>)
 8004f28:	2180      	movs	r1, #128	@ 0x80
 8004f2a:	0249      	lsls	r1, r1, #9
 8004f2c:	430a      	orrs	r2, r1
 8004f2e:	60da      	str	r2, [r3, #12]
      __HAL_RCC_PLLCLKOUT_ENABLE(RCC_PLLQCLK);
    }
  }
#endif /* FDCAN1 || FDCAN2 */

  return status;
 8004f30:	2312      	movs	r3, #18
 8004f32:	18fb      	adds	r3, r7, r3
 8004f34:	781b      	ldrb	r3, [r3, #0]
}
 8004f36:	0018      	movs	r0, r3
 8004f38:	46bd      	mov	sp, r7
 8004f3a:	b006      	add	sp, #24
 8004f3c:	bd80      	pop	{r7, pc}
 8004f3e:	46c0      	nop			@ (mov r8, r8)
 8004f40:	40021000 	.word	0x40021000
 8004f44:	40007000 	.word	0x40007000
 8004f48:	fffffcff 	.word	0xfffffcff
 8004f4c:	fffeffff 	.word	0xfffeffff
 8004f50:	00001388 	.word	0x00001388
 8004f54:	efffffff 	.word	0xefffffff
 8004f58:	fffff3ff 	.word	0xfffff3ff
 8004f5c:	fff3ffff 	.word	0xfff3ffff
 8004f60:	ffcfffff 	.word	0xffcfffff
 8004f64:	ffffcfff 	.word	0xffffcfff
 8004f68:	ffbfffff 	.word	0xffbfffff
 8004f6c:	feffffff 	.word	0xfeffffff
 8004f70:	ffff3fff 	.word	0xffff3fff

08004f74 <HAL_TIM_Base_Init>:
  *         Ex: call @ref HAL_TIM_Base_DeInit() before HAL_TIM_Base_Init()
  * @param  htim TIM Base handle
  * @retval HAL status
  */
HAL_StatusTypeDef HAL_TIM_Base_Init(TIM_HandleTypeDef *htim)
{
 8004f74:	b580      	push	{r7, lr}
 8004f76:	b082      	sub	sp, #8
 8004f78:	af00      	add	r7, sp, #0
 8004f7a:	6078      	str	r0, [r7, #4]
  /* Check the TIM handle allocation */
  if (htim == NULL)
 8004f7c:	687b      	ldr	r3, [r7, #4]
 8004f7e:	2b00      	cmp	r3, #0
 8004f80:	d101      	bne.n	8004f86 <HAL_TIM_Base_Init+0x12>
  {
    return HAL_ERROR;
 8004f82:	2301      	movs	r3, #1
 8004f84:	e04a      	b.n	800501c <HAL_TIM_Base_Init+0xa8>
  assert_param(IS_TIM_COUNTER_MODE(htim->Init.CounterMode));
  assert_param(IS_TIM_CLOCKDIVISION_DIV(htim->Init.ClockDivision));
  assert_param(IS_TIM_PERIOD(htim, htim->Init.Period));
  assert_param(IS_TIM_AUTORELOAD_PRELOAD(htim->Init.AutoReloadPreload));

  if (htim->State == HAL_TIM_STATE_RESET)
 8004f86:	687b      	ldr	r3, [r7, #4]
 8004f88:	223d      	movs	r2, #61	@ 0x3d
 8004f8a:	5c9b      	ldrb	r3, [r3, r2]
 8004f8c:	b2db      	uxtb	r3, r3
 8004f8e:	2b00      	cmp	r3, #0
 8004f90:	d107      	bne.n	8004fa2 <HAL_TIM_Base_Init+0x2e>
  {
    /* Allocate lock resource and initialize it */
    htim->Lock = HAL_UNLOCKED;
 8004f92:	687b      	ldr	r3, [r7, #4]
 8004f94:	223c      	movs	r2, #60	@ 0x3c
 8004f96:	2100      	movs	r1, #0
 8004f98:	5499      	strb	r1, [r3, r2]
    }
    /* Init the low level hardware : GPIO, CLOCK, NVIC */
    htim->Base_MspInitCallback(htim);
#else
    /* Init the low level hardware : GPIO, CLOCK, NVIC */
    HAL_TIM_Base_MspInit(htim);
 8004f9a:	687b      	ldr	r3, [r7, #4]
 8004f9c:	0018      	movs	r0, r3
 8004f9e:	f7fc fcc3 	bl	8001928 <HAL_TIM_Base_MspInit>
#endif /* USE_HAL_TIM_REGISTER_CALLBACKS */
  }

  /* Set the TIM state */
  htim->State = HAL_TIM_STATE_BUSY;
 8004fa2:	687b      	ldr	r3, [r7, #4]
 8004fa4:	223d      	movs	r2, #61	@ 0x3d
 8004fa6:	2102      	movs	r1, #2
 8004fa8:	5499      	strb	r1, [r3, r2]

  /* Set the Time Base configuration */
  TIM_Base_SetConfig(htim->Instance, &htim->Init);
 8004faa:	687b      	ldr	r3, [r7, #4]
 8004fac:	681a      	ldr	r2, [r3, #0]
 8004fae:	687b      	ldr	r3, [r7, #4]
 8004fb0:	3304      	adds	r3, #4
 8004fb2:	0019      	movs	r1, r3
 8004fb4:	0010      	movs	r0, r2
 8004fb6:	f000 fe6f 	bl	8005c98 <TIM_Base_SetConfig>

  /* Initialize the DMA burst operation state */
  htim->DMABurstState = HAL_DMA_BURST_STATE_READY;
 8004fba:	687b      	ldr	r3, [r7, #4]
 8004fbc:	2248      	movs	r2, #72	@ 0x48
 8004fbe:	2101      	movs	r1, #1
 8004fc0:	5499      	strb	r1, [r3, r2]

  /* Initialize the TIM channels state */
  TIM_CHANNEL_STATE_SET_ALL(htim, HAL_TIM_CHANNEL_STATE_READY);
 8004fc2:	687b      	ldr	r3, [r7, #4]
 8004fc4:	223e      	movs	r2, #62	@ 0x3e
 8004fc6:	2101      	movs	r1, #1
 8004fc8:	5499      	strb	r1, [r3, r2]
 8004fca:	687b      	ldr	r3, [r7, #4]
 8004fcc:	223f      	movs	r2, #63	@ 0x3f
 8004fce:	2101      	movs	r1, #1
 8004fd0:	5499      	strb	r1, [r3, r2]
 8004fd2:	687b      	ldr	r3, [r7, #4]
 8004fd4:	2240      	movs	r2, #64	@ 0x40
 8004fd6:	2101      	movs	r1, #1
 8004fd8:	5499      	strb	r1, [r3, r2]
 8004fda:	687b      	ldr	r3, [r7, #4]
 8004fdc:	2241      	movs	r2, #65	@ 0x41
 8004fde:	2101      	movs	r1, #1
 8004fe0:	5499      	strb	r1, [r3, r2]
 8004fe2:	687b      	ldr	r3, [r7, #4]
 8004fe4:	2242      	movs	r2, #66	@ 0x42
 8004fe6:	2101      	movs	r1, #1
 8004fe8:	5499      	strb	r1, [r3, r2]
 8004fea:	687b      	ldr	r3, [r7, #4]
 8004fec:	2243      	movs	r2, #67	@ 0x43
 8004fee:	2101      	movs	r1, #1
 8004ff0:	5499      	strb	r1, [r3, r2]
  TIM_CHANNEL_N_STATE_SET_ALL(htim, HAL_TIM_CHANNEL_STATE_READY);
 8004ff2:	687b      	ldr	r3, [r7, #4]
 8004ff4:	2244      	movs	r2, #68	@ 0x44
 8004ff6:	2101      	movs	r1, #1
 8004ff8:	5499      	strb	r1, [r3, r2]
 8004ffa:	687b      	ldr	r3, [r7, #4]
 8004ffc:	2245      	movs	r2, #69	@ 0x45
 8004ffe:	2101      	movs	r1, #1
 8005000:	5499      	strb	r1, [r3, r2]
 8005002:	687b      	ldr	r3, [r7, #4]
 8005004:	2246      	movs	r2, #70	@ 0x46
 8005006:	2101      	movs	r1, #1
 8005008:	5499      	strb	r1, [r3, r2]
 800500a:	687b      	ldr	r3, [r7, #4]
 800500c:	2247      	movs	r2, #71	@ 0x47
 800500e:	2101      	movs	r1, #1
 8005010:	5499      	strb	r1, [r3, r2]

  /* Initialize the TIM state*/
  htim->State = HAL_TIM_STATE_READY;
 8005012:	687b      	ldr	r3, [r7, #4]
 8005014:	223d      	movs	r2, #61	@ 0x3d
 8005016:	2101      	movs	r1, #1
 8005018:	5499      	strb	r1, [r3, r2]

  return HAL_OK;
 800501a:	2300      	movs	r3, #0
}
 800501c:	0018      	movs	r0, r3
 800501e:	46bd      	mov	sp, r7
 8005020:	b002      	add	sp, #8
 8005022:	bd80      	pop	{r7, pc}

08005024 <HAL_TIM_Base_Start_IT>:
  * @brief  Starts the TIM Base generation in interrupt mode.
  * @param  htim TIM Base handle
  * @retval HAL status
  */
HAL_StatusTypeDef HAL_TIM_Base_Start_IT(TIM_HandleTypeDef *htim)
{
 8005024:	b580      	push	{r7, lr}
 8005026:	b084      	sub	sp, #16
 8005028:	af00      	add	r7, sp, #0
 800502a:	6078      	str	r0, [r7, #4]

  /* Check the parameters */
  assert_param(IS_TIM_INSTANCE(htim->Instance));

  /* Check the TIM state */
  if (htim->State != HAL_TIM_STATE_READY)
 800502c:	687b      	ldr	r3, [r7, #4]
 800502e:	223d      	movs	r2, #61	@ 0x3d
 8005030:	5c9b      	ldrb	r3, [r3, r2]
 8005032:	b2db      	uxtb	r3, r3
 8005034:	2b01      	cmp	r3, #1
 8005036:	d001      	beq.n	800503c <HAL_TIM_Base_Start_IT+0x18>
  {
    return HAL_ERROR;
 8005038:	2301      	movs	r3, #1
 800503a:	e042      	b.n	80050c2 <HAL_TIM_Base_Start_IT+0x9e>
  }

  /* Set the TIM state */
  htim->State = HAL_TIM_STATE_BUSY;
 800503c:	687b      	ldr	r3, [r7, #4]
 800503e:	223d      	movs	r2, #61	@ 0x3d
 8005040:	2102      	movs	r1, #2
 8005042:	5499      	strb	r1, [r3, r2]

  /* Enable the TIM Update interrupt */
  __HAL_TIM_ENABLE_IT(htim, TIM_IT_UPDATE);
 8005044:	687b      	ldr	r3, [r7, #4]
 8005046:	681b      	ldr	r3, [r3, #0]
 8005048:	68da      	ldr	r2, [r3, #12]
 800504a:	687b      	ldr	r3, [r7, #4]
 800504c:	681b      	ldr	r3, [r3, #0]
 800504e:	2101      	movs	r1, #1
 8005050:	430a      	orrs	r2, r1
 8005052:	60da      	str	r2, [r3, #12]

  /* Enable the Peripheral, except in trigger mode where enable is automatically done with trigger */
  if (IS_TIM_SLAVE_INSTANCE(htim->Instance))
 8005054:	687b      	ldr	r3, [r7, #4]
 8005056:	681b      	ldr	r3, [r3, #0]
 8005058:	4a1c      	ldr	r2, [pc, #112]	@ (80050cc <HAL_TIM_Base_Start_IT+0xa8>)
 800505a:	4293      	cmp	r3, r2
 800505c:	d00f      	beq.n	800507e <HAL_TIM_Base_Start_IT+0x5a>
 800505e:	687b      	ldr	r3, [r7, #4]
 8005060:	681a      	ldr	r2, [r3, #0]
 8005062:	2380      	movs	r3, #128	@ 0x80
 8005064:	05db      	lsls	r3, r3, #23
 8005066:	429a      	cmp	r2, r3
 8005068:	d009      	beq.n	800507e <HAL_TIM_Base_Start_IT+0x5a>
 800506a:	687b      	ldr	r3, [r7, #4]
 800506c:	681b      	ldr	r3, [r3, #0]
 800506e:	4a18      	ldr	r2, [pc, #96]	@ (80050d0 <HAL_TIM_Base_Start_IT+0xac>)
 8005070:	4293      	cmp	r3, r2
 8005072:	d004      	beq.n	800507e <HAL_TIM_Base_Start_IT+0x5a>
 8005074:	687b      	ldr	r3, [r7, #4]
 8005076:	681b      	ldr	r3, [r3, #0]
 8005078:	4a16      	ldr	r2, [pc, #88]	@ (80050d4 <HAL_TIM_Base_Start_IT+0xb0>)
 800507a:	4293      	cmp	r3, r2
 800507c:	d116      	bne.n	80050ac <HAL_TIM_Base_Start_IT+0x88>
  {
    tmpsmcr = htim->Instance->SMCR & TIM_SMCR_SMS;
 800507e:	687b      	ldr	r3, [r7, #4]
 8005080:	681b      	ldr	r3, [r3, #0]
 8005082:	689b      	ldr	r3, [r3, #8]
 8005084:	4a14      	ldr	r2, [pc, #80]	@ (80050d8 <HAL_TIM_Base_Start_IT+0xb4>)
 8005086:	4013      	ands	r3, r2
 8005088:	60fb      	str	r3, [r7, #12]
    if (!IS_TIM_SLAVEMODE_TRIGGER_ENABLED(tmpsmcr))
 800508a:	68fb      	ldr	r3, [r7, #12]
 800508c:	2b06      	cmp	r3, #6
 800508e:	d016      	beq.n	80050be <HAL_TIM_Base_Start_IT+0x9a>
 8005090:	68fa      	ldr	r2, [r7, #12]
 8005092:	2380      	movs	r3, #128	@ 0x80
 8005094:	025b      	lsls	r3, r3, #9
 8005096:	429a      	cmp	r2, r3
 8005098:	d011      	beq.n	80050be <HAL_TIM_Base_Start_IT+0x9a>
    {
      __HAL_TIM_ENABLE(htim);
 800509a:	687b      	ldr	r3, [r7, #4]
 800509c:	681b      	ldr	r3, [r3, #0]
 800509e:	681a      	ldr	r2, [r3, #0]
 80050a0:	687b      	ldr	r3, [r7, #4]
 80050a2:	681b      	ldr	r3, [r3, #0]
 80050a4:	2101      	movs	r1, #1
 80050a6:	430a      	orrs	r2, r1
 80050a8:	601a      	str	r2, [r3, #0]
    if (!IS_TIM_SLAVEMODE_TRIGGER_ENABLED(tmpsmcr))
 80050aa:	e008      	b.n	80050be <HAL_TIM_Base_Start_IT+0x9a>
    }
  }
  else
  {
    __HAL_TIM_ENABLE(htim);
 80050ac:	687b      	ldr	r3, [r7, #4]
 80050ae:	681b      	ldr	r3, [r3, #0]
 80050b0:	681a      	ldr	r2, [r3, #0]
 80050b2:	687b      	ldr	r3, [r7, #4]
 80050b4:	681b      	ldr	r3, [r3, #0]
 80050b6:	2101      	movs	r1, #1
 80050b8:	430a      	orrs	r2, r1
 80050ba:	601a      	str	r2, [r3, #0]
 80050bc:	e000      	b.n	80050c0 <HAL_TIM_Base_Start_IT+0x9c>
    if (!IS_TIM_SLAVEMODE_TRIGGER_ENABLED(tmpsmcr))
 80050be:	46c0      	nop			@ (mov r8, r8)
  }

  /* Return function status */
  return HAL_OK;
 80050c0:	2300      	movs	r3, #0
}
 80050c2:	0018      	movs	r0, r3
 80050c4:	46bd      	mov	sp, r7
 80050c6:	b004      	add	sp, #16
 80050c8:	bd80      	pop	{r7, pc}
 80050ca:	46c0      	nop			@ (mov r8, r8)
 80050cc:	40012c00 	.word	0x40012c00
 80050d0:	40000400 	.word	0x40000400
 80050d4:	40014000 	.word	0x40014000
 80050d8:	00010007 	.word	0x00010007

080050dc <HAL_TIM_PWM_Init>:
  *         Ex: call @ref HAL_TIM_PWM_DeInit() before HAL_TIM_PWM_Init()
  * @param  htim TIM PWM handle
  * @retval HAL status
  */
HAL_StatusTypeDef HAL_TIM_PWM_Init(TIM_HandleTypeDef *htim)
{
 80050dc:	b580      	push	{r7, lr}
 80050de:	b082      	sub	sp, #8
 80050e0:	af00      	add	r7, sp, #0
 80050e2:	6078      	str	r0, [r7, #4]
  /* Check the TIM handle allocation */
  if (htim == NULL)
 80050e4:	687b      	ldr	r3, [r7, #4]
 80050e6:	2b00      	cmp	r3, #0
 80050e8:	d101      	bne.n	80050ee <HAL_TIM_PWM_Init+0x12>
  {
    return HAL_ERROR;
 80050ea:	2301      	movs	r3, #1
 80050ec:	e04a      	b.n	8005184 <HAL_TIM_PWM_Init+0xa8>
  assert_param(IS_TIM_COUNTER_MODE(htim->Init.CounterMode));
  assert_param(IS_TIM_CLOCKDIVISION_DIV(htim->Init.ClockDivision));
  assert_param(IS_TIM_PERIOD(htim, htim->Init.Period));
  assert_param(IS_TIM_AUTORELOAD_PRELOAD(htim->Init.AutoReloadPreload));

  if (htim->State == HAL_TIM_STATE_RESET)
 80050ee:	687b      	ldr	r3, [r7, #4]
 80050f0:	223d      	movs	r2, #61	@ 0x3d
 80050f2:	5c9b      	ldrb	r3, [r3, r2]
 80050f4:	b2db      	uxtb	r3, r3
 80050f6:	2b00      	cmp	r3, #0
 80050f8:	d107      	bne.n	800510a <HAL_TIM_PWM_Init+0x2e>
  {
    /* Allocate lock resource and initialize it */
    htim->Lock = HAL_UNLOCKED;
 80050fa:	687b      	ldr	r3, [r7, #4]
 80050fc:	223c      	movs	r2, #60	@ 0x3c
 80050fe:	2100      	movs	r1, #0
 8005100:	5499      	strb	r1, [r3, r2]
    }
    /* Init the low level hardware : GPIO, CLOCK, NVIC */
    htim->PWM_MspInitCallback(htim);
#else
    /* Init the low level hardware : GPIO, CLOCK, NVIC and DMA */
    HAL_TIM_PWM_MspInit(htim);
 8005102:	687b      	ldr	r3, [r7, #4]
 8005104:	0018      	movs	r0, r3
 8005106:	f7fc fb51 	bl	80017ac <HAL_TIM_PWM_MspInit>
#endif /* USE_HAL_TIM_REGISTER_CALLBACKS */
  }

  /* Set the TIM state */
  htim->State = HAL_TIM_STATE_BUSY;
 800510a:	687b      	ldr	r3, [r7, #4]
 800510c:	223d      	movs	r2, #61	@ 0x3d
 800510e:	2102      	movs	r1, #2
 8005110:	5499      	strb	r1, [r3, r2]

  /* Init the base time for the PWM */
  TIM_Base_SetConfig(htim->Instance, &htim->Init);
 8005112:	687b      	ldr	r3, [r7, #4]
 8005114:	681a      	ldr	r2, [r3, #0]
 8005116:	687b      	ldr	r3, [r7, #4]
 8005118:	3304      	adds	r3, #4
 800511a:	0019      	movs	r1, r3
 800511c:	0010      	movs	r0, r2
 800511e:	f000 fdbb 	bl	8005c98 <TIM_Base_SetConfig>

  /* Initialize the DMA burst operation state */
  htim->DMABurstState = HAL_DMA_BURST_STATE_READY;
 8005122:	687b      	ldr	r3, [r7, #4]
 8005124:	2248      	movs	r2, #72	@ 0x48
 8005126:	2101      	movs	r1, #1
 8005128:	5499      	strb	r1, [r3, r2]

  /* Initialize the TIM channels state */
  TIM_CHANNEL_STATE_SET_ALL(htim, HAL_TIM_CHANNEL_STATE_READY);
 800512a:	687b      	ldr	r3, [r7, #4]
 800512c:	223e      	movs	r2, #62	@ 0x3e
 800512e:	2101      	movs	r1, #1
 8005130:	5499      	strb	r1, [r3, r2]
 8005132:	687b      	ldr	r3, [r7, #4]
 8005134:	223f      	movs	r2, #63	@ 0x3f
 8005136:	2101      	movs	r1, #1
 8005138:	5499      	strb	r1, [r3, r2]
 800513a:	687b      	ldr	r3, [r7, #4]
 800513c:	2240      	movs	r2, #64	@ 0x40
 800513e:	2101      	movs	r1, #1
 8005140:	5499      	strb	r1, [r3, r2]
 8005142:	687b      	ldr	r3, [r7, #4]
 8005144:	2241      	movs	r2, #65	@ 0x41
 8005146:	2101      	movs	r1, #1
 8005148:	5499      	strb	r1, [r3, r2]
 800514a:	687b      	ldr	r3, [r7, #4]
 800514c:	2242      	movs	r2, #66	@ 0x42
 800514e:	2101      	movs	r1, #1
 8005150:	5499      	strb	r1, [r3, r2]
 8005152:	687b      	ldr	r3, [r7, #4]
 8005154:	2243      	movs	r2, #67	@ 0x43
 8005156:	2101      	movs	r1, #1
 8005158:	5499      	strb	r1, [r3, r2]
  TIM_CHANNEL_N_STATE_SET_ALL(htim, HAL_TIM_CHANNEL_STATE_READY);
 800515a:	687b      	ldr	r3, [r7, #4]
 800515c:	2244      	movs	r2, #68	@ 0x44
 800515e:	2101      	movs	r1, #1
 8005160:	5499      	strb	r1, [r3, r2]
 8005162:	687b      	ldr	r3, [r7, #4]
 8005164:	2245      	movs	r2, #69	@ 0x45
 8005166:	2101      	movs	r1, #1
 8005168:	5499      	strb	r1, [r3, r2]
 800516a:	687b      	ldr	r3, [r7, #4]
 800516c:	2246      	movs	r2, #70	@ 0x46
 800516e:	2101      	movs	r1, #1
 8005170:	5499      	strb	r1, [r3, r2]
 8005172:	687b      	ldr	r3, [r7, #4]
 8005174:	2247      	movs	r2, #71	@ 0x47
 8005176:	2101      	movs	r1, #1
 8005178:	5499      	strb	r1, [r3, r2]

  /* Initialize the TIM state*/
  htim->State = HAL_TIM_STATE_READY;
 800517a:	687b      	ldr	r3, [r7, #4]
 800517c:	223d      	movs	r2, #61	@ 0x3d
 800517e:	2101      	movs	r1, #1
 8005180:	5499      	strb	r1, [r3, r2]

  return HAL_OK;
 8005182:	2300      	movs	r3, #0
}
 8005184:	0018      	movs	r0, r3
 8005186:	46bd      	mov	sp, r7
 8005188:	b002      	add	sp, #8
 800518a:	bd80      	pop	{r7, pc}

0800518c <HAL_TIM_PWM_Start>:
  *            @arg TIM_CHANNEL_5: TIM Channel 5 selected
  *            @arg TIM_CHANNEL_6: TIM Channel 6 selected
  * @retval HAL status
  */
HAL_StatusTypeDef HAL_TIM_PWM_Start(TIM_HandleTypeDef *htim, uint32_t Channel)
{
 800518c:	b580      	push	{r7, lr}
 800518e:	b084      	sub	sp, #16
 8005190:	af00      	add	r7, sp, #0
 8005192:	6078      	str	r0, [r7, #4]
 8005194:	6039      	str	r1, [r7, #0]

  /* Check the parameters */
  assert_param(IS_TIM_CCX_INSTANCE(htim->Instance, Channel));

  /* Check the TIM channel state */
  if (TIM_CHANNEL_STATE_GET(htim, Channel) != HAL_TIM_CHANNEL_STATE_READY)
 8005196:	683b      	ldr	r3, [r7, #0]
 8005198:	2b00      	cmp	r3, #0
 800519a:	d108      	bne.n	80051ae <HAL_TIM_PWM_Start+0x22>
 800519c:	687b      	ldr	r3, [r7, #4]
 800519e:	223e      	movs	r2, #62	@ 0x3e
 80051a0:	5c9b      	ldrb	r3, [r3, r2]
 80051a2:	b2db      	uxtb	r3, r3
 80051a4:	3b01      	subs	r3, #1
 80051a6:	1e5a      	subs	r2, r3, #1
 80051a8:	4193      	sbcs	r3, r2
 80051aa:	b2db      	uxtb	r3, r3
 80051ac:	e037      	b.n	800521e <HAL_TIM_PWM_Start+0x92>
 80051ae:	683b      	ldr	r3, [r7, #0]
 80051b0:	2b04      	cmp	r3, #4
 80051b2:	d108      	bne.n	80051c6 <HAL_TIM_PWM_Start+0x3a>
 80051b4:	687b      	ldr	r3, [r7, #4]
 80051b6:	223f      	movs	r2, #63	@ 0x3f
 80051b8:	5c9b      	ldrb	r3, [r3, r2]
 80051ba:	b2db      	uxtb	r3, r3
 80051bc:	3b01      	subs	r3, #1
 80051be:	1e5a      	subs	r2, r3, #1
 80051c0:	4193      	sbcs	r3, r2
 80051c2:	b2db      	uxtb	r3, r3
 80051c4:	e02b      	b.n	800521e <HAL_TIM_PWM_Start+0x92>
 80051c6:	683b      	ldr	r3, [r7, #0]
 80051c8:	2b08      	cmp	r3, #8
 80051ca:	d108      	bne.n	80051de <HAL_TIM_PWM_Start+0x52>
 80051cc:	687b      	ldr	r3, [r7, #4]
 80051ce:	2240      	movs	r2, #64	@ 0x40
 80051d0:	5c9b      	ldrb	r3, [r3, r2]
 80051d2:	b2db      	uxtb	r3, r3
 80051d4:	3b01      	subs	r3, #1
 80051d6:	1e5a      	subs	r2, r3, #1
 80051d8:	4193      	sbcs	r3, r2
 80051da:	b2db      	uxtb	r3, r3
 80051dc:	e01f      	b.n	800521e <HAL_TIM_PWM_Start+0x92>
 80051de:	683b      	ldr	r3, [r7, #0]
 80051e0:	2b0c      	cmp	r3, #12
 80051e2:	d108      	bne.n	80051f6 <HAL_TIM_PWM_Start+0x6a>
 80051e4:	687b      	ldr	r3, [r7, #4]
 80051e6:	2241      	movs	r2, #65	@ 0x41
 80051e8:	5c9b      	ldrb	r3, [r3, r2]
 80051ea:	b2db      	uxtb	r3, r3
 80051ec:	3b01      	subs	r3, #1
 80051ee:	1e5a      	subs	r2, r3, #1
 80051f0:	4193      	sbcs	r3, r2
 80051f2:	b2db      	uxtb	r3, r3
 80051f4:	e013      	b.n	800521e <HAL_TIM_PWM_Start+0x92>
 80051f6:	683b      	ldr	r3, [r7, #0]
 80051f8:	2b10      	cmp	r3, #16
 80051fa:	d108      	bne.n	800520e <HAL_TIM_PWM_Start+0x82>
 80051fc:	687b      	ldr	r3, [r7, #4]
 80051fe:	2242      	movs	r2, #66	@ 0x42
 8005200:	5c9b      	ldrb	r3, [r3, r2]
 8005202:	b2db      	uxtb	r3, r3
 8005204:	3b01      	subs	r3, #1
 8005206:	1e5a      	subs	r2, r3, #1
 8005208:	4193      	sbcs	r3, r2
 800520a:	b2db      	uxtb	r3, r3
 800520c:	e007      	b.n	800521e <HAL_TIM_PWM_Start+0x92>
 800520e:	687b      	ldr	r3, [r7, #4]
 8005210:	2243      	movs	r2, #67	@ 0x43
 8005212:	5c9b      	ldrb	r3, [r3, r2]
 8005214:	b2db      	uxtb	r3, r3
 8005216:	3b01      	subs	r3, #1
 8005218:	1e5a      	subs	r2, r3, #1
 800521a:	4193      	sbcs	r3, r2
 800521c:	b2db      	uxtb	r3, r3
 800521e:	2b00      	cmp	r3, #0
 8005220:	d001      	beq.n	8005226 <HAL_TIM_PWM_Start+0x9a>
  {
    return HAL_ERROR;
 8005222:	2301      	movs	r3, #1
 8005224:	e08b      	b.n	800533e <HAL_TIM_PWM_Start+0x1b2>
  }

  /* Set the TIM channel state */
  TIM_CHANNEL_STATE_SET(htim, Channel, HAL_TIM_CHANNEL_STATE_BUSY);
 8005226:	683b      	ldr	r3, [r7, #0]
 8005228:	2b00      	cmp	r3, #0
 800522a:	d104      	bne.n	8005236 <HAL_TIM_PWM_Start+0xaa>
 800522c:	687b      	ldr	r3, [r7, #4]
 800522e:	223e      	movs	r2, #62	@ 0x3e
 8005230:	2102      	movs	r1, #2
 8005232:	5499      	strb	r1, [r3, r2]
 8005234:	e023      	b.n	800527e <HAL_TIM_PWM_Start+0xf2>
 8005236:	683b      	ldr	r3, [r7, #0]
 8005238:	2b04      	cmp	r3, #4
 800523a:	d104      	bne.n	8005246 <HAL_TIM_PWM_Start+0xba>
 800523c:	687b      	ldr	r3, [r7, #4]
 800523e:	223f      	movs	r2, #63	@ 0x3f
 8005240:	2102      	movs	r1, #2
 8005242:	5499      	strb	r1, [r3, r2]
 8005244:	e01b      	b.n	800527e <HAL_TIM_PWM_Start+0xf2>
 8005246:	683b      	ldr	r3, [r7, #0]
 8005248:	2b08      	cmp	r3, #8
 800524a:	d104      	bne.n	8005256 <HAL_TIM_PWM_Start+0xca>
 800524c:	687b      	ldr	r3, [r7, #4]
 800524e:	2240      	movs	r2, #64	@ 0x40
 8005250:	2102      	movs	r1, #2
 8005252:	5499      	strb	r1, [r3, r2]
 8005254:	e013      	b.n	800527e <HAL_TIM_PWM_Start+0xf2>
 8005256:	683b      	ldr	r3, [r7, #0]
 8005258:	2b0c      	cmp	r3, #12
 800525a:	d104      	bne.n	8005266 <HAL_TIM_PWM_Start+0xda>
 800525c:	687b      	ldr	r3, [r7, #4]
 800525e:	2241      	movs	r2, #65	@ 0x41
 8005260:	2102      	movs	r1, #2
 8005262:	5499      	strb	r1, [r3, r2]
 8005264:	e00b      	b.n	800527e <HAL_TIM_PWM_Start+0xf2>
 8005266:	683b      	ldr	r3, [r7, #0]
 8005268:	2b10      	cmp	r3, #16
 800526a:	d104      	bne.n	8005276 <HAL_TIM_PWM_Start+0xea>
 800526c:	687b      	ldr	r3, [r7, #4]
 800526e:	2242      	movs	r2, #66	@ 0x42
 8005270:	2102      	movs	r1, #2
 8005272:	5499      	strb	r1, [r3, r2]
 8005274:	e003      	b.n	800527e <HAL_TIM_PWM_Start+0xf2>
 8005276:	687b      	ldr	r3, [r7, #4]
 8005278:	2243      	movs	r2, #67	@ 0x43
 800527a:	2102      	movs	r1, #2
 800527c:	5499      	strb	r1, [r3, r2]

  /* Enable the Capture compare channel */
  TIM_CCxChannelCmd(htim->Instance, Channel, TIM_CCx_ENABLE);
 800527e:	687b      	ldr	r3, [r7, #4]
 8005280:	681b      	ldr	r3, [r3, #0]
 8005282:	6839      	ldr	r1, [r7, #0]
 8005284:	2201      	movs	r2, #1
 8005286:	0018      	movs	r0, r3
 8005288:	f001 fa92 	bl	80067b0 <TIM_CCxChannelCmd>

  if (IS_TIM_BREAK_INSTANCE(htim->Instance) != RESET)
 800528c:	687b      	ldr	r3, [r7, #4]
 800528e:	681b      	ldr	r3, [r3, #0]
 8005290:	4a2d      	ldr	r2, [pc, #180]	@ (8005348 <HAL_TIM_PWM_Start+0x1bc>)
 8005292:	4293      	cmp	r3, r2
 8005294:	d00e      	beq.n	80052b4 <HAL_TIM_PWM_Start+0x128>
 8005296:	687b      	ldr	r3, [r7, #4]
 8005298:	681b      	ldr	r3, [r3, #0]
 800529a:	4a2c      	ldr	r2, [pc, #176]	@ (800534c <HAL_TIM_PWM_Start+0x1c0>)
 800529c:	4293      	cmp	r3, r2
 800529e:	d009      	beq.n	80052b4 <HAL_TIM_PWM_Start+0x128>
 80052a0:	687b      	ldr	r3, [r7, #4]
 80052a2:	681b      	ldr	r3, [r3, #0]
 80052a4:	4a2a      	ldr	r2, [pc, #168]	@ (8005350 <HAL_TIM_PWM_Start+0x1c4>)
 80052a6:	4293      	cmp	r3, r2
 80052a8:	d004      	beq.n	80052b4 <HAL_TIM_PWM_Start+0x128>
 80052aa:	687b      	ldr	r3, [r7, #4]
 80052ac:	681b      	ldr	r3, [r3, #0]
 80052ae:	4a29      	ldr	r2, [pc, #164]	@ (8005354 <HAL_TIM_PWM_Start+0x1c8>)
 80052b0:	4293      	cmp	r3, r2
 80052b2:	d101      	bne.n	80052b8 <HAL_TIM_PWM_Start+0x12c>
 80052b4:	2301      	movs	r3, #1
 80052b6:	e000      	b.n	80052ba <HAL_TIM_PWM_Start+0x12e>
 80052b8:	2300      	movs	r3, #0
 80052ba:	2b00      	cmp	r3, #0
 80052bc:	d008      	beq.n	80052d0 <HAL_TIM_PWM_Start+0x144>
  {
    /* Enable the main output */
    __HAL_TIM_MOE_ENABLE(htim);
 80052be:	687b      	ldr	r3, [r7, #4]
 80052c0:	681b      	ldr	r3, [r3, #0]
 80052c2:	6c5a      	ldr	r2, [r3, #68]	@ 0x44
 80052c4:	687b      	ldr	r3, [r7, #4]
 80052c6:	681b      	ldr	r3, [r3, #0]
 80052c8:	2180      	movs	r1, #128	@ 0x80
 80052ca:	0209      	lsls	r1, r1, #8
 80052cc:	430a      	orrs	r2, r1
 80052ce:	645a      	str	r2, [r3, #68]	@ 0x44
  }

  /* Enable the Peripheral, except in trigger mode where enable is automatically done with trigger */
  if (IS_TIM_SLAVE_INSTANCE(htim->Instance))
 80052d0:	687b      	ldr	r3, [r7, #4]
 80052d2:	681b      	ldr	r3, [r3, #0]
 80052d4:	4a1c      	ldr	r2, [pc, #112]	@ (8005348 <HAL_TIM_PWM_Start+0x1bc>)
 80052d6:	4293      	cmp	r3, r2
 80052d8:	d00f      	beq.n	80052fa <HAL_TIM_PWM_Start+0x16e>
 80052da:	687b      	ldr	r3, [r7, #4]
 80052dc:	681a      	ldr	r2, [r3, #0]
 80052de:	2380      	movs	r3, #128	@ 0x80
 80052e0:	05db      	lsls	r3, r3, #23
 80052e2:	429a      	cmp	r2, r3
 80052e4:	d009      	beq.n	80052fa <HAL_TIM_PWM_Start+0x16e>
 80052e6:	687b      	ldr	r3, [r7, #4]
 80052e8:	681b      	ldr	r3, [r3, #0]
 80052ea:	4a1b      	ldr	r2, [pc, #108]	@ (8005358 <HAL_TIM_PWM_Start+0x1cc>)
 80052ec:	4293      	cmp	r3, r2
 80052ee:	d004      	beq.n	80052fa <HAL_TIM_PWM_Start+0x16e>
 80052f0:	687b      	ldr	r3, [r7, #4]
 80052f2:	681b      	ldr	r3, [r3, #0]
 80052f4:	4a15      	ldr	r2, [pc, #84]	@ (800534c <HAL_TIM_PWM_Start+0x1c0>)
 80052f6:	4293      	cmp	r3, r2
 80052f8:	d116      	bne.n	8005328 <HAL_TIM_PWM_Start+0x19c>
  {
    tmpsmcr = htim->Instance->SMCR & TIM_SMCR_SMS;
 80052fa:	687b      	ldr	r3, [r7, #4]
 80052fc:	681b      	ldr	r3, [r3, #0]
 80052fe:	689b      	ldr	r3, [r3, #8]
 8005300:	4a16      	ldr	r2, [pc, #88]	@ (800535c <HAL_TIM_PWM_Start+0x1d0>)
 8005302:	4013      	ands	r3, r2
 8005304:	60fb      	str	r3, [r7, #12]
    if (!IS_TIM_SLAVEMODE_TRIGGER_ENABLED(tmpsmcr))
 8005306:	68fb      	ldr	r3, [r7, #12]
 8005308:	2b06      	cmp	r3, #6
 800530a:	d016      	beq.n	800533a <HAL_TIM_PWM_Start+0x1ae>
 800530c:	68fa      	ldr	r2, [r7, #12]
 800530e:	2380      	movs	r3, #128	@ 0x80
 8005310:	025b      	lsls	r3, r3, #9
 8005312:	429a      	cmp	r2, r3
 8005314:	d011      	beq.n	800533a <HAL_TIM_PWM_Start+0x1ae>
    {
      __HAL_TIM_ENABLE(htim);
 8005316:	687b      	ldr	r3, [r7, #4]
 8005318:	681b      	ldr	r3, [r3, #0]
 800531a:	681a      	ldr	r2, [r3, #0]
 800531c:	687b      	ldr	r3, [r7, #4]
 800531e:	681b      	ldr	r3, [r3, #0]
 8005320:	2101      	movs	r1, #1
 8005322:	430a      	orrs	r2, r1
 8005324:	601a      	str	r2, [r3, #0]
    if (!IS_TIM_SLAVEMODE_TRIGGER_ENABLED(tmpsmcr))
 8005326:	e008      	b.n	800533a <HAL_TIM_PWM_Start+0x1ae>
    }
  }
  else
  {
    __HAL_TIM_ENABLE(htim);
 8005328:	687b      	ldr	r3, [r7, #4]
 800532a:	681b      	ldr	r3, [r3, #0]
 800532c:	681a      	ldr	r2, [r3, #0]
 800532e:	687b      	ldr	r3, [r7, #4]
 8005330:	681b      	ldr	r3, [r3, #0]
 8005332:	2101      	movs	r1, #1
 8005334:	430a      	orrs	r2, r1
 8005336:	601a      	str	r2, [r3, #0]
 8005338:	e000      	b.n	800533c <HAL_TIM_PWM_Start+0x1b0>
    if (!IS_TIM_SLAVEMODE_TRIGGER_ENABLED(tmpsmcr))
 800533a:	46c0      	nop			@ (mov r8, r8)
  }

  /* Return function status */
  return HAL_OK;
 800533c:	2300      	movs	r3, #0
}
 800533e:	0018      	movs	r0, r3
 8005340:	46bd      	mov	sp, r7
 8005342:	b004      	add	sp, #16
 8005344:	bd80      	pop	{r7, pc}
 8005346:	46c0      	nop			@ (mov r8, r8)
 8005348:	40012c00 	.word	0x40012c00
 800534c:	40014000 	.word	0x40014000
 8005350:	40014400 	.word	0x40014400
 8005354:	40014800 	.word	0x40014800
 8005358:	40000400 	.word	0x40000400
 800535c:	00010007 	.word	0x00010007

08005360 <HAL_TIM_IC_Init>:
  *         Ex: call @ref HAL_TIM_IC_DeInit() before HAL_TIM_IC_Init()
  * @param  htim TIM Input Capture handle
  * @retval HAL status
  */
HAL_StatusTypeDef HAL_TIM_IC_Init(TIM_HandleTypeDef *htim)
{
 8005360:	b580      	push	{r7, lr}
 8005362:	b082      	sub	sp, #8
 8005364:	af00      	add	r7, sp, #0
 8005366:	6078      	str	r0, [r7, #4]
  /* Check the TIM handle allocation */
  if (htim == NULL)
 8005368:	687b      	ldr	r3, [r7, #4]
 800536a:	2b00      	cmp	r3, #0
 800536c:	d101      	bne.n	8005372 <HAL_TIM_IC_Init+0x12>
  {
    return HAL_ERROR;
 800536e:	2301      	movs	r3, #1
 8005370:	e04a      	b.n	8005408 <HAL_TIM_IC_Init+0xa8>
  assert_param(IS_TIM_COUNTER_MODE(htim->Init.CounterMode));
  assert_param(IS_TIM_CLOCKDIVISION_DIV(htim->Init.ClockDivision));
  assert_param(IS_TIM_PERIOD(htim, htim->Init.Period));
  assert_param(IS_TIM_AUTORELOAD_PRELOAD(htim->Init.AutoReloadPreload));

  if (htim->State == HAL_TIM_STATE_RESET)
 8005372:	687b      	ldr	r3, [r7, #4]
 8005374:	223d      	movs	r2, #61	@ 0x3d
 8005376:	5c9b      	ldrb	r3, [r3, r2]
 8005378:	b2db      	uxtb	r3, r3
 800537a:	2b00      	cmp	r3, #0
 800537c:	d107      	bne.n	800538e <HAL_TIM_IC_Init+0x2e>
  {
    /* Allocate lock resource and initialize it */
    htim->Lock = HAL_UNLOCKED;
 800537e:	687b      	ldr	r3, [r7, #4]
 8005380:	223c      	movs	r2, #60	@ 0x3c
 8005382:	2100      	movs	r1, #0
 8005384:	5499      	strb	r1, [r3, r2]
    }
    /* Init the low level hardware : GPIO, CLOCK, NVIC */
    htim->IC_MspInitCallback(htim);
#else
    /* Init the low level hardware : GPIO, CLOCK, NVIC and DMA */
    HAL_TIM_IC_MspInit(htim);
 8005386:	687b      	ldr	r3, [r7, #4]
 8005388:	0018      	movs	r0, r3
 800538a:	f7fc fa83 	bl	8001894 <HAL_TIM_IC_MspInit>
#endif /* USE_HAL_TIM_REGISTER_CALLBACKS */
  }

  /* Set the TIM state */
  htim->State = HAL_TIM_STATE_BUSY;
 800538e:	687b      	ldr	r3, [r7, #4]
 8005390:	223d      	movs	r2, #61	@ 0x3d
 8005392:	2102      	movs	r1, #2
 8005394:	5499      	strb	r1, [r3, r2]

  /* Init the base time for the input capture */
  TIM_Base_SetConfig(htim->Instance, &htim->Init);
 8005396:	687b      	ldr	r3, [r7, #4]
 8005398:	681a      	ldr	r2, [r3, #0]
 800539a:	687b      	ldr	r3, [r7, #4]
 800539c:	3304      	adds	r3, #4
 800539e:	0019      	movs	r1, r3
 80053a0:	0010      	movs	r0, r2
 80053a2:	f000 fc79 	bl	8005c98 <TIM_Base_SetConfig>

  /* Initialize the DMA burst operation state */
  htim->DMABurstState = HAL_DMA_BURST_STATE_READY;
 80053a6:	687b      	ldr	r3, [r7, #4]
 80053a8:	2248      	movs	r2, #72	@ 0x48
 80053aa:	2101      	movs	r1, #1
 80053ac:	5499      	strb	r1, [r3, r2]

  /* Initialize the TIM channels state */
  TIM_CHANNEL_STATE_SET_ALL(htim, HAL_TIM_CHANNEL_STATE_READY);
 80053ae:	687b      	ldr	r3, [r7, #4]
 80053b0:	223e      	movs	r2, #62	@ 0x3e
 80053b2:	2101      	movs	r1, #1
 80053b4:	5499      	strb	r1, [r3, r2]
 80053b6:	687b      	ldr	r3, [r7, #4]
 80053b8:	223f      	movs	r2, #63	@ 0x3f
 80053ba:	2101      	movs	r1, #1
 80053bc:	5499      	strb	r1, [r3, r2]
 80053be:	687b      	ldr	r3, [r7, #4]
 80053c0:	2240      	movs	r2, #64	@ 0x40
 80053c2:	2101      	movs	r1, #1
 80053c4:	5499      	strb	r1, [r3, r2]
 80053c6:	687b      	ldr	r3, [r7, #4]
 80053c8:	2241      	movs	r2, #65	@ 0x41
 80053ca:	2101      	movs	r1, #1
 80053cc:	5499      	strb	r1, [r3, r2]
 80053ce:	687b      	ldr	r3, [r7, #4]
 80053d0:	2242      	movs	r2, #66	@ 0x42
 80053d2:	2101      	movs	r1, #1
 80053d4:	5499      	strb	r1, [r3, r2]
 80053d6:	687b      	ldr	r3, [r7, #4]
 80053d8:	2243      	movs	r2, #67	@ 0x43
 80053da:	2101      	movs	r1, #1
 80053dc:	5499      	strb	r1, [r3, r2]
  TIM_CHANNEL_N_STATE_SET_ALL(htim, HAL_TIM_CHANNEL_STATE_READY);
 80053de:	687b      	ldr	r3, [r7, #4]
 80053e0:	2244      	movs	r2, #68	@ 0x44
 80053e2:	2101      	movs	r1, #1
 80053e4:	5499      	strb	r1, [r3, r2]
 80053e6:	687b      	ldr	r3, [r7, #4]
 80053e8:	2245      	movs	r2, #69	@ 0x45
 80053ea:	2101      	movs	r1, #1
 80053ec:	5499      	strb	r1, [r3, r2]
 80053ee:	687b      	ldr	r3, [r7, #4]
 80053f0:	2246      	movs	r2, #70	@ 0x46
 80053f2:	2101      	movs	r1, #1
 80053f4:	5499      	strb	r1, [r3, r2]
 80053f6:	687b      	ldr	r3, [r7, #4]
 80053f8:	2247      	movs	r2, #71	@ 0x47
 80053fa:	2101      	movs	r1, #1
 80053fc:	5499      	strb	r1, [r3, r2]

  /* Initialize the TIM state*/
  htim->State = HAL_TIM_STATE_READY;
 80053fe:	687b      	ldr	r3, [r7, #4]
 8005400:	223d      	movs	r2, #61	@ 0x3d
 8005402:	2101      	movs	r1, #1
 8005404:	5499      	strb	r1, [r3, r2]

  return HAL_OK;
 8005406:	2300      	movs	r3, #0
}
 8005408:	0018      	movs	r0, r3
 800540a:	46bd      	mov	sp, r7
 800540c:	b002      	add	sp, #8
 800540e:	bd80      	pop	{r7, pc}

08005410 <HAL_TIM_IRQHandler>:
  * @brief  This function handles TIM interrupts requests.
  * @param  htim TIM  handle
  * @retval None
  */
void HAL_TIM_IRQHandler(TIM_HandleTypeDef *htim)
{
 8005410:	b580      	push	{r7, lr}
 8005412:	b084      	sub	sp, #16
 8005414:	af00      	add	r7, sp, #0
 8005416:	6078      	str	r0, [r7, #4]
  uint32_t itsource = htim->Instance->DIER;
 8005418:	687b      	ldr	r3, [r7, #4]
 800541a:	681b      	ldr	r3, [r3, #0]
 800541c:	68db      	ldr	r3, [r3, #12]
 800541e:	60fb      	str	r3, [r7, #12]
  uint32_t itflag   = htim->Instance->SR;
 8005420:	687b      	ldr	r3, [r7, #4]
 8005422:	681b      	ldr	r3, [r3, #0]
 8005424:	691b      	ldr	r3, [r3, #16]
 8005426:	60bb      	str	r3, [r7, #8]

  /* Capture compare 1 event */
  if ((itflag & (TIM_FLAG_CC1)) == (TIM_FLAG_CC1))
 8005428:	68bb      	ldr	r3, [r7, #8]
 800542a:	2202      	movs	r2, #2
 800542c:	4013      	ands	r3, r2
 800542e:	d021      	beq.n	8005474 <HAL_TIM_IRQHandler+0x64>
  {
    if ((itsource & (TIM_IT_CC1)) == (TIM_IT_CC1))
 8005430:	68fb      	ldr	r3, [r7, #12]
 8005432:	2202      	movs	r2, #2
 8005434:	4013      	ands	r3, r2
 8005436:	d01d      	beq.n	8005474 <HAL_TIM_IRQHandler+0x64>
    {
      {
        __HAL_TIM_CLEAR_FLAG(htim, TIM_FLAG_CC1);
 8005438:	687b      	ldr	r3, [r7, #4]
 800543a:	681b      	ldr	r3, [r3, #0]
 800543c:	2203      	movs	r2, #3
 800543e:	4252      	negs	r2, r2
 8005440:	611a      	str	r2, [r3, #16]
        htim->Channel = HAL_TIM_ACTIVE_CHANNEL_1;
 8005442:	687b      	ldr	r3, [r7, #4]
 8005444:	2201      	movs	r2, #1
 8005446:	771a      	strb	r2, [r3, #28]

        /* Input capture event */
        if ((htim->Instance->CCMR1 & TIM_CCMR1_CC1S) != 0x00U)
 8005448:	687b      	ldr	r3, [r7, #4]
 800544a:	681b      	ldr	r3, [r3, #0]
 800544c:	699b      	ldr	r3, [r3, #24]
 800544e:	2203      	movs	r2, #3
 8005450:	4013      	ands	r3, r2
 8005452:	d004      	beq.n	800545e <HAL_TIM_IRQHandler+0x4e>
        {
#if (USE_HAL_TIM_REGISTER_CALLBACKS == 1)
          htim->IC_CaptureCallback(htim);
#else
          HAL_TIM_IC_CaptureCallback(htim);
 8005454:	687b      	ldr	r3, [r7, #4]
 8005456:	0018      	movs	r0, r3
 8005458:	f000 fc06 	bl	8005c68 <HAL_TIM_IC_CaptureCallback>
 800545c:	e007      	b.n	800546e <HAL_TIM_IRQHandler+0x5e>
        {
#if (USE_HAL_TIM_REGISTER_CALLBACKS == 1)
          htim->OC_DelayElapsedCallback(htim);
          htim->PWM_PulseFinishedCallback(htim);
#else
          HAL_TIM_OC_DelayElapsedCallback(htim);
 800545e:	687b      	ldr	r3, [r7, #4]
 8005460:	0018      	movs	r0, r3
 8005462:	f000 fbf9 	bl	8005c58 <HAL_TIM_OC_DelayElapsedCallback>
          HAL_TIM_PWM_PulseFinishedCallback(htim);
 8005466:	687b      	ldr	r3, [r7, #4]
 8005468:	0018      	movs	r0, r3
 800546a:	f000 fc05 	bl	8005c78 <HAL_TIM_PWM_PulseFinishedCallback>
#endif /* USE_HAL_TIM_REGISTER_CALLBACKS */
        }
        htim->Channel = HAL_TIM_ACTIVE_CHANNEL_CLEARED;
 800546e:	687b      	ldr	r3, [r7, #4]
 8005470:	2200      	movs	r2, #0
 8005472:	771a      	strb	r2, [r3, #28]
      }
    }
  }
  /* Capture compare 2 event */
  if ((itflag & (TIM_FLAG_CC2)) == (TIM_FLAG_CC2))
 8005474:	68bb      	ldr	r3, [r7, #8]
 8005476:	2204      	movs	r2, #4
 8005478:	4013      	ands	r3, r2
 800547a:	d022      	beq.n	80054c2 <HAL_TIM_IRQHandler+0xb2>
  {
    if ((itsource & (TIM_IT_CC2)) == (TIM_IT_CC2))
 800547c:	68fb      	ldr	r3, [r7, #12]
 800547e:	2204      	movs	r2, #4
 8005480:	4013      	ands	r3, r2
 8005482:	d01e      	beq.n	80054c2 <HAL_TIM_IRQHandler+0xb2>
    {
      __HAL_TIM_CLEAR_FLAG(htim, TIM_FLAG_CC2);
 8005484:	687b      	ldr	r3, [r7, #4]
 8005486:	681b      	ldr	r3, [r3, #0]
 8005488:	2205      	movs	r2, #5
 800548a:	4252      	negs	r2, r2
 800548c:	611a      	str	r2, [r3, #16]
      htim->Channel = HAL_TIM_ACTIVE_CHANNEL_2;
 800548e:	687b      	ldr	r3, [r7, #4]
 8005490:	2202      	movs	r2, #2
 8005492:	771a      	strb	r2, [r3, #28]
      /* Input capture event */
      if ((htim->Instance->CCMR1 & TIM_CCMR1_CC2S) != 0x00U)
 8005494:	687b      	ldr	r3, [r7, #4]
 8005496:	681b      	ldr	r3, [r3, #0]
 8005498:	699a      	ldr	r2, [r3, #24]
 800549a:	23c0      	movs	r3, #192	@ 0xc0
 800549c:	009b      	lsls	r3, r3, #2
 800549e:	4013      	ands	r3, r2
 80054a0:	d004      	beq.n	80054ac <HAL_TIM_IRQHandler+0x9c>
      {
#if (USE_HAL_TIM_REGISTER_CALLBACKS == 1)
        htim->IC_CaptureCallback(htim);
#else
        HAL_TIM_IC_CaptureCallback(htim);
 80054a2:	687b      	ldr	r3, [r7, #4]
 80054a4:	0018      	movs	r0, r3
 80054a6:	f000 fbdf 	bl	8005c68 <HAL_TIM_IC_CaptureCallback>
 80054aa:	e007      	b.n	80054bc <HAL_TIM_IRQHandler+0xac>
      {
#if (USE_HAL_TIM_REGISTER_CALLBACKS == 1)
        htim->OC_DelayElapsedCallback(htim);
        htim->PWM_PulseFinishedCallback(htim);
#else
        HAL_TIM_OC_DelayElapsedCallback(htim);
 80054ac:	687b      	ldr	r3, [r7, #4]
 80054ae:	0018      	movs	r0, r3
 80054b0:	f000 fbd2 	bl	8005c58 <HAL_TIM_OC_DelayElapsedCallback>
        HAL_TIM_PWM_PulseFinishedCallback(htim);
 80054b4:	687b      	ldr	r3, [r7, #4]
 80054b6:	0018      	movs	r0, r3
 80054b8:	f000 fbde 	bl	8005c78 <HAL_TIM_PWM_PulseFinishedCallback>
#endif /* USE_HAL_TIM_REGISTER_CALLBACKS */
      }
      htim->Channel = HAL_TIM_ACTIVE_CHANNEL_CLEARED;
 80054bc:	687b      	ldr	r3, [r7, #4]
 80054be:	2200      	movs	r2, #0
 80054c0:	771a      	strb	r2, [r3, #28]
    }
  }
  /* Capture compare 3 event */
  if ((itflag & (TIM_FLAG_CC3)) == (TIM_FLAG_CC3))
 80054c2:	68bb      	ldr	r3, [r7, #8]
 80054c4:	2208      	movs	r2, #8
 80054c6:	4013      	ands	r3, r2
 80054c8:	d021      	beq.n	800550e <HAL_TIM_IRQHandler+0xfe>
  {
    if ((itsource & (TIM_IT_CC3)) == (TIM_IT_CC3))
 80054ca:	68fb      	ldr	r3, [r7, #12]
 80054cc:	2208      	movs	r2, #8
 80054ce:	4013      	ands	r3, r2
 80054d0:	d01d      	beq.n	800550e <HAL_TIM_IRQHandler+0xfe>
    {
      __HAL_TIM_CLEAR_FLAG(htim, TIM_FLAG_CC3);
 80054d2:	687b      	ldr	r3, [r7, #4]
 80054d4:	681b      	ldr	r3, [r3, #0]
 80054d6:	2209      	movs	r2, #9
 80054d8:	4252      	negs	r2, r2
 80054da:	611a      	str	r2, [r3, #16]
      htim->Channel = HAL_TIM_ACTIVE_CHANNEL_3;
 80054dc:	687b      	ldr	r3, [r7, #4]
 80054de:	2204      	movs	r2, #4
 80054e0:	771a      	strb	r2, [r3, #28]
      /* Input capture event */
      if ((htim->Instance->CCMR2 & TIM_CCMR2_CC3S) != 0x00U)
 80054e2:	687b      	ldr	r3, [r7, #4]
 80054e4:	681b      	ldr	r3, [r3, #0]
 80054e6:	69db      	ldr	r3, [r3, #28]
 80054e8:	2203      	movs	r2, #3
 80054ea:	4013      	ands	r3, r2
 80054ec:	d004      	beq.n	80054f8 <HAL_TIM_IRQHandler+0xe8>
      {
#if (USE_HAL_TIM_REGISTER_CALLBACKS == 1)
        htim->IC_CaptureCallback(htim);
#else
        HAL_TIM_IC_CaptureCallback(htim);
 80054ee:	687b      	ldr	r3, [r7, #4]
 80054f0:	0018      	movs	r0, r3
 80054f2:	f000 fbb9 	bl	8005c68 <HAL_TIM_IC_CaptureCallback>
 80054f6:	e007      	b.n	8005508 <HAL_TIM_IRQHandler+0xf8>
      {
#if (USE_HAL_TIM_REGISTER_CALLBACKS == 1)
        htim->OC_DelayElapsedCallback(htim);
        htim->PWM_PulseFinishedCallback(htim);
#else
        HAL_TIM_OC_DelayElapsedCallback(htim);
 80054f8:	687b      	ldr	r3, [r7, #4]
 80054fa:	0018      	movs	r0, r3
 80054fc:	f000 fbac 	bl	8005c58 <HAL_TIM_OC_DelayElapsedCallback>
        HAL_TIM_PWM_PulseFinishedCallback(htim);
 8005500:	687b      	ldr	r3, [r7, #4]
 8005502:	0018      	movs	r0, r3
 8005504:	f000 fbb8 	bl	8005c78 <HAL_TIM_PWM_PulseFinishedCallback>
#endif /* USE_HAL_TIM_REGISTER_CALLBACKS */
      }
      htim->Channel = HAL_TIM_ACTIVE_CHANNEL_CLEARED;
 8005508:	687b      	ldr	r3, [r7, #4]
 800550a:	2200      	movs	r2, #0
 800550c:	771a      	strb	r2, [r3, #28]
    }
  }
  /* Capture compare 4 event */
  if ((itflag & (TIM_FLAG_CC4)) == (TIM_FLAG_CC4))
 800550e:	68bb      	ldr	r3, [r7, #8]
 8005510:	2210      	movs	r2, #16
 8005512:	4013      	ands	r3, r2
 8005514:	d022      	beq.n	800555c <HAL_TIM_IRQHandler+0x14c>
  {
    if ((itsource & (TIM_IT_CC4)) == (TIM_IT_CC4))
 8005516:	68fb      	ldr	r3, [r7, #12]
 8005518:	2210      	movs	r2, #16
 800551a:	4013      	ands	r3, r2
 800551c:	d01e      	beq.n	800555c <HAL_TIM_IRQHandler+0x14c>
    {
      __HAL_TIM_CLEAR_FLAG(htim, TIM_FLAG_CC4);
 800551e:	687b      	ldr	r3, [r7, #4]
 8005520:	681b      	ldr	r3, [r3, #0]
 8005522:	2211      	movs	r2, #17
 8005524:	4252      	negs	r2, r2
 8005526:	611a      	str	r2, [r3, #16]
      htim->Channel = HAL_TIM_ACTIVE_CHANNEL_4;
 8005528:	687b      	ldr	r3, [r7, #4]
 800552a:	2208      	movs	r2, #8
 800552c:	771a      	strb	r2, [r3, #28]
      /* Input capture event */
      if ((htim->Instance->CCMR2 & TIM_CCMR2_CC4S) != 0x00U)
 800552e:	687b      	ldr	r3, [r7, #4]
 8005530:	681b      	ldr	r3, [r3, #0]
 8005532:	69da      	ldr	r2, [r3, #28]
 8005534:	23c0      	movs	r3, #192	@ 0xc0
 8005536:	009b      	lsls	r3, r3, #2
 8005538:	4013      	ands	r3, r2
 800553a:	d004      	beq.n	8005546 <HAL_TIM_IRQHandler+0x136>
      {
#if (USE_HAL_TIM_REGISTER_CALLBACKS == 1)
        htim->IC_CaptureCallback(htim);
#else
        HAL_TIM_IC_CaptureCallback(htim);
 800553c:	687b      	ldr	r3, [r7, #4]
 800553e:	0018      	movs	r0, r3
 8005540:	f000 fb92 	bl	8005c68 <HAL_TIM_IC_CaptureCallback>
 8005544:	e007      	b.n	8005556 <HAL_TIM_IRQHandler+0x146>
      {
#if (USE_HAL_TIM_REGISTER_CALLBACKS == 1)
        htim->OC_DelayElapsedCallback(htim);
        htim->PWM_PulseFinishedCallback(htim);
#else
        HAL_TIM_OC_DelayElapsedCallback(htim);
 8005546:	687b      	ldr	r3, [r7, #4]
 8005548:	0018      	movs	r0, r3
 800554a:	f000 fb85 	bl	8005c58 <HAL_TIM_OC_DelayElapsedCallback>
        HAL_TIM_PWM_PulseFinishedCallback(htim);
 800554e:	687b      	ldr	r3, [r7, #4]
 8005550:	0018      	movs	r0, r3
 8005552:	f000 fb91 	bl	8005c78 <HAL_TIM_PWM_PulseFinishedCallback>
#endif /* USE_HAL_TIM_REGISTER_CALLBACKS */
      }
      htim->Channel = HAL_TIM_ACTIVE_CHANNEL_CLEARED;
 8005556:	687b      	ldr	r3, [r7, #4]
 8005558:	2200      	movs	r2, #0
 800555a:	771a      	strb	r2, [r3, #28]
    }
  }
  /* TIM Update event */
  if ((itflag & (TIM_FLAG_UPDATE)) == (TIM_FLAG_UPDATE))
 800555c:	68bb      	ldr	r3, [r7, #8]
 800555e:	2201      	movs	r2, #1
 8005560:	4013      	ands	r3, r2
 8005562:	d00c      	beq.n	800557e <HAL_TIM_IRQHandler+0x16e>
  {
    if ((itsource & (TIM_IT_UPDATE)) == (TIM_IT_UPDATE))
 8005564:	68fb      	ldr	r3, [r7, #12]
 8005566:	2201      	movs	r2, #1
 8005568:	4013      	ands	r3, r2
 800556a:	d008      	beq.n	800557e <HAL_TIM_IRQHandler+0x16e>
    {
      __HAL_TIM_CLEAR_FLAG(htim, TIM_FLAG_UPDATE);
 800556c:	687b      	ldr	r3, [r7, #4]
 800556e:	681b      	ldr	r3, [r3, #0]
 8005570:	2202      	movs	r2, #2
 8005572:	4252      	negs	r2, r2
 8005574:	611a      	str	r2, [r3, #16]
#if (USE_HAL_TIM_REGISTER_CALLBACKS == 1)
      htim->PeriodElapsedCallback(htim);
#else
      HAL_TIM_PeriodElapsedCallback(htim);
 8005576:	687b      	ldr	r3, [r7, #4]
 8005578:	0018      	movs	r0, r3
 800557a:	f000 fb65 	bl	8005c48 <HAL_TIM_PeriodElapsedCallback>
#endif /* USE_HAL_TIM_REGISTER_CALLBACKS */
    }
  }
  /* TIM Break input event */
  if (((itflag & (TIM_FLAG_BREAK)) == (TIM_FLAG_BREAK)) || \
 800557e:	68bb      	ldr	r3, [r7, #8]
 8005580:	2280      	movs	r2, #128	@ 0x80
 8005582:	4013      	ands	r3, r2
 8005584:	d104      	bne.n	8005590 <HAL_TIM_IRQHandler+0x180>
      ((itflag & (TIM_FLAG_SYSTEM_BREAK)) == (TIM_FLAG_SYSTEM_BREAK)))
 8005586:	68ba      	ldr	r2, [r7, #8]
 8005588:	2380      	movs	r3, #128	@ 0x80
 800558a:	019b      	lsls	r3, r3, #6
 800558c:	4013      	ands	r3, r2
  if (((itflag & (TIM_FLAG_BREAK)) == (TIM_FLAG_BREAK)) || \
 800558e:	d00b      	beq.n	80055a8 <HAL_TIM_IRQHandler+0x198>
  {
    if ((itsource & (TIM_IT_BREAK)) == (TIM_IT_BREAK))
 8005590:	68fb      	ldr	r3, [r7, #12]
 8005592:	2280      	movs	r2, #128	@ 0x80
 8005594:	4013      	ands	r3, r2
 8005596:	d007      	beq.n	80055a8 <HAL_TIM_IRQHandler+0x198>
    {
      __HAL_TIM_CLEAR_FLAG(htim, TIM_FLAG_BREAK | TIM_FLAG_SYSTEM_BREAK);
 8005598:	687b      	ldr	r3, [r7, #4]
 800559a:	681b      	ldr	r3, [r3, #0]
 800559c:	4a1e      	ldr	r2, [pc, #120]	@ (8005618 <HAL_TIM_IRQHandler+0x208>)
 800559e:	611a      	str	r2, [r3, #16]
#if (USE_HAL_TIM_REGISTER_CALLBACKS == 1)
      htim->BreakCallback(htim);
#else
      HAL_TIMEx_BreakCallback(htim);
 80055a0:	687b      	ldr	r3, [r7, #4]
 80055a2:	0018      	movs	r0, r3
 80055a4:	f001 fa3a 	bl	8006a1c <HAL_TIMEx_BreakCallback>
#endif /* USE_HAL_TIM_REGISTER_CALLBACKS */
    }
  }
  /* TIM Break2 input event */
  if ((itflag & (TIM_FLAG_BREAK2)) == (TIM_FLAG_BREAK2))
 80055a8:	68ba      	ldr	r2, [r7, #8]
 80055aa:	2380      	movs	r3, #128	@ 0x80
 80055ac:	005b      	lsls	r3, r3, #1
 80055ae:	4013      	ands	r3, r2
 80055b0:	d00b      	beq.n	80055ca <HAL_TIM_IRQHandler+0x1ba>
  {
    if ((itsource & (TIM_IT_BREAK)) == (TIM_IT_BREAK))
 80055b2:	68fb      	ldr	r3, [r7, #12]
 80055b4:	2280      	movs	r2, #128	@ 0x80
 80055b6:	4013      	ands	r3, r2
 80055b8:	d007      	beq.n	80055ca <HAL_TIM_IRQHandler+0x1ba>
    {
      __HAL_TIM_CLEAR_FLAG(htim, TIM_FLAG_BREAK2);
 80055ba:	687b      	ldr	r3, [r7, #4]
 80055bc:	681b      	ldr	r3, [r3, #0]
 80055be:	4a17      	ldr	r2, [pc, #92]	@ (800561c <HAL_TIM_IRQHandler+0x20c>)
 80055c0:	611a      	str	r2, [r3, #16]
#if (USE_HAL_TIM_REGISTER_CALLBACKS == 1)
      htim->Break2Callback(htim);
#else
      HAL_TIMEx_Break2Callback(htim);
 80055c2:	687b      	ldr	r3, [r7, #4]
 80055c4:	0018      	movs	r0, r3
 80055c6:	f001 fa31 	bl	8006a2c <HAL_TIMEx_Break2Callback>
#endif /* USE_HAL_TIM_REGISTER_CALLBACKS */
    }
  }
  /* TIM Trigger detection event */
  if ((itflag & (TIM_FLAG_TRIGGER)) == (TIM_FLAG_TRIGGER))
 80055ca:	68bb      	ldr	r3, [r7, #8]
 80055cc:	2240      	movs	r2, #64	@ 0x40
 80055ce:	4013      	ands	r3, r2
 80055d0:	d00c      	beq.n	80055ec <HAL_TIM_IRQHandler+0x1dc>
  {
    if ((itsource & (TIM_IT_TRIGGER)) == (TIM_IT_TRIGGER))
 80055d2:	68fb      	ldr	r3, [r7, #12]
 80055d4:	2240      	movs	r2, #64	@ 0x40
 80055d6:	4013      	ands	r3, r2
 80055d8:	d008      	beq.n	80055ec <HAL_TIM_IRQHandler+0x1dc>
    {
      __HAL_TIM_CLEAR_FLAG(htim, TIM_FLAG_TRIGGER);
 80055da:	687b      	ldr	r3, [r7, #4]
 80055dc:	681b      	ldr	r3, [r3, #0]
 80055de:	2241      	movs	r2, #65	@ 0x41
 80055e0:	4252      	negs	r2, r2
 80055e2:	611a      	str	r2, [r3, #16]
#if (USE_HAL_TIM_REGISTER_CALLBACKS == 1)
      htim->TriggerCallback(htim);
#else
      HAL_TIM_TriggerCallback(htim);
 80055e4:	687b      	ldr	r3, [r7, #4]
 80055e6:	0018      	movs	r0, r3
 80055e8:	f000 fb4e 	bl	8005c88 <HAL_TIM_TriggerCallback>
#endif /* USE_HAL_TIM_REGISTER_CALLBACKS */
    }
  }
  /* TIM commutation event */
  if ((itflag & (TIM_FLAG_COM)) == (TIM_FLAG_COM))
 80055ec:	68bb      	ldr	r3, [r7, #8]
 80055ee:	2220      	movs	r2, #32
 80055f0:	4013      	ands	r3, r2
 80055f2:	d00c      	beq.n	800560e <HAL_TIM_IRQHandler+0x1fe>
  {
    if ((itsource & (TIM_IT_COM)) == (TIM_IT_COM))
 80055f4:	68fb      	ldr	r3, [r7, #12]
 80055f6:	2220      	movs	r2, #32
 80055f8:	4013      	ands	r3, r2
 80055fa:	d008      	beq.n	800560e <HAL_TIM_IRQHandler+0x1fe>
    {
      __HAL_TIM_CLEAR_FLAG(htim, TIM_FLAG_COM);
 80055fc:	687b      	ldr	r3, [r7, #4]
 80055fe:	681b      	ldr	r3, [r3, #0]
 8005600:	2221      	movs	r2, #33	@ 0x21
 8005602:	4252      	negs	r2, r2
 8005604:	611a      	str	r2, [r3, #16]
#if (USE_HAL_TIM_REGISTER_CALLBACKS == 1)
      htim->CommutationCallback(htim);
#else
      HAL_TIMEx_CommutCallback(htim);
 8005606:	687b      	ldr	r3, [r7, #4]
 8005608:	0018      	movs	r0, r3
 800560a:	f001 f9ff 	bl	8006a0c <HAL_TIMEx_CommutCallback>
#endif /* USE_HAL_TIM_REGISTER_CALLBACKS */
    }
  }
}
 800560e:	46c0      	nop			@ (mov r8, r8)
 8005610:	46bd      	mov	sp, r7
 8005612:	b004      	add	sp, #16
 8005614:	bd80      	pop	{r7, pc}
 8005616:	46c0      	nop			@ (mov r8, r8)
 8005618:	ffffdf7f 	.word	0xffffdf7f
 800561c:	fffffeff 	.word	0xfffffeff

08005620 <HAL_TIM_IC_ConfigChannel>:
  *            @arg TIM_CHANNEL_3: TIM Channel 3 selected
  *            @arg TIM_CHANNEL_4: TIM Channel 4 selected
  * @retval HAL status
  */
HAL_StatusTypeDef HAL_TIM_IC_ConfigChannel(TIM_HandleTypeDef *htim, const TIM_IC_InitTypeDef *sConfig, uint32_t Channel)
{
 8005620:	b580      	push	{r7, lr}
 8005622:	b086      	sub	sp, #24
 8005624:	af00      	add	r7, sp, #0
 8005626:	60f8      	str	r0, [r7, #12]
 8005628:	60b9      	str	r1, [r7, #8]
 800562a:	607a      	str	r2, [r7, #4]
  HAL_StatusTypeDef status = HAL_OK;
 800562c:	2317      	movs	r3, #23
 800562e:	18fb      	adds	r3, r7, r3
 8005630:	2200      	movs	r2, #0
 8005632:	701a      	strb	r2, [r3, #0]
  assert_param(IS_TIM_IC_SELECTION(sConfig->ICSelection));
  assert_param(IS_TIM_IC_PRESCALER(sConfig->ICPrescaler));
  assert_param(IS_TIM_IC_FILTER(sConfig->ICFilter));

  /* Process Locked */
  __HAL_LOCK(htim);
 8005634:	68fb      	ldr	r3, [r7, #12]
 8005636:	223c      	movs	r2, #60	@ 0x3c
 8005638:	5c9b      	ldrb	r3, [r3, r2]
 800563a:	2b01      	cmp	r3, #1
 800563c:	d101      	bne.n	8005642 <HAL_TIM_IC_ConfigChannel+0x22>
 800563e:	2302      	movs	r3, #2
 8005640:	e08c      	b.n	800575c <HAL_TIM_IC_ConfigChannel+0x13c>
 8005642:	68fb      	ldr	r3, [r7, #12]
 8005644:	223c      	movs	r2, #60	@ 0x3c
 8005646:	2101      	movs	r1, #1
 8005648:	5499      	strb	r1, [r3, r2]

  if (Channel == TIM_CHANNEL_1)
 800564a:	687b      	ldr	r3, [r7, #4]
 800564c:	2b00      	cmp	r3, #0
 800564e:	d11b      	bne.n	8005688 <HAL_TIM_IC_ConfigChannel+0x68>
  {
    /* TI1 Configuration */
    TIM_TI1_SetConfig(htim->Instance,
 8005650:	68fb      	ldr	r3, [r7, #12]
 8005652:	6818      	ldr	r0, [r3, #0]
                      sConfig->ICPolarity,
 8005654:	68bb      	ldr	r3, [r7, #8]
 8005656:	6819      	ldr	r1, [r3, #0]
                      sConfig->ICSelection,
 8005658:	68bb      	ldr	r3, [r7, #8]
 800565a:	685a      	ldr	r2, [r3, #4]
                      sConfig->ICFilter);
 800565c:	68bb      	ldr	r3, [r7, #8]
 800565e:	68db      	ldr	r3, [r3, #12]
    TIM_TI1_SetConfig(htim->Instance,
 8005660:	f000 ff02 	bl	8006468 <TIM_TI1_SetConfig>

    /* Reset the IC1PSC Bits */
    htim->Instance->CCMR1 &= ~TIM_CCMR1_IC1PSC;
 8005664:	68fb      	ldr	r3, [r7, #12]
 8005666:	681b      	ldr	r3, [r3, #0]
 8005668:	699a      	ldr	r2, [r3, #24]
 800566a:	68fb      	ldr	r3, [r7, #12]
 800566c:	681b      	ldr	r3, [r3, #0]
 800566e:	210c      	movs	r1, #12
 8005670:	438a      	bics	r2, r1
 8005672:	619a      	str	r2, [r3, #24]

    /* Set the IC1PSC value */
    htim->Instance->CCMR1 |= sConfig->ICPrescaler;
 8005674:	68fb      	ldr	r3, [r7, #12]
 8005676:	681b      	ldr	r3, [r3, #0]
 8005678:	6999      	ldr	r1, [r3, #24]
 800567a:	68bb      	ldr	r3, [r7, #8]
 800567c:	689a      	ldr	r2, [r3, #8]
 800567e:	68fb      	ldr	r3, [r7, #12]
 8005680:	681b      	ldr	r3, [r3, #0]
 8005682:	430a      	orrs	r2, r1
 8005684:	619a      	str	r2, [r3, #24]
 8005686:	e062      	b.n	800574e <HAL_TIM_IC_ConfigChannel+0x12e>
  }
  else if (Channel == TIM_CHANNEL_2)
 8005688:	687b      	ldr	r3, [r7, #4]
 800568a:	2b04      	cmp	r3, #4
 800568c:	d11c      	bne.n	80056c8 <HAL_TIM_IC_ConfigChannel+0xa8>
  {
    /* TI2 Configuration */
    assert_param(IS_TIM_CC2_INSTANCE(htim->Instance));

    TIM_TI2_SetConfig(htim->Instance,
 800568e:	68fb      	ldr	r3, [r7, #12]
 8005690:	6818      	ldr	r0, [r3, #0]
                      sConfig->ICPolarity,
 8005692:	68bb      	ldr	r3, [r7, #8]
 8005694:	6819      	ldr	r1, [r3, #0]
                      sConfig->ICSelection,
 8005696:	68bb      	ldr	r3, [r7, #8]
 8005698:	685a      	ldr	r2, [r3, #4]
                      sConfig->ICFilter);
 800569a:	68bb      	ldr	r3, [r7, #8]
 800569c:	68db      	ldr	r3, [r3, #12]
    TIM_TI2_SetConfig(htim->Instance,
 800569e:	f000 ff6d 	bl	800657c <TIM_TI2_SetConfig>

    /* Reset the IC2PSC Bits */
    htim->Instance->CCMR1 &= ~TIM_CCMR1_IC2PSC;
 80056a2:	68fb      	ldr	r3, [r7, #12]
 80056a4:	681b      	ldr	r3, [r3, #0]
 80056a6:	699a      	ldr	r2, [r3, #24]
 80056a8:	68fb      	ldr	r3, [r7, #12]
 80056aa:	681b      	ldr	r3, [r3, #0]
 80056ac:	492d      	ldr	r1, [pc, #180]	@ (8005764 <HAL_TIM_IC_ConfigChannel+0x144>)
 80056ae:	400a      	ands	r2, r1
 80056b0:	619a      	str	r2, [r3, #24]

    /* Set the IC2PSC value */
    htim->Instance->CCMR1 |= (sConfig->ICPrescaler << 8U);
 80056b2:	68fb      	ldr	r3, [r7, #12]
 80056b4:	681b      	ldr	r3, [r3, #0]
 80056b6:	6999      	ldr	r1, [r3, #24]
 80056b8:	68bb      	ldr	r3, [r7, #8]
 80056ba:	689b      	ldr	r3, [r3, #8]
 80056bc:	021a      	lsls	r2, r3, #8
 80056be:	68fb      	ldr	r3, [r7, #12]
 80056c0:	681b      	ldr	r3, [r3, #0]
 80056c2:	430a      	orrs	r2, r1
 80056c4:	619a      	str	r2, [r3, #24]
 80056c6:	e042      	b.n	800574e <HAL_TIM_IC_ConfigChannel+0x12e>
  }
  else if (Channel == TIM_CHANNEL_3)
 80056c8:	687b      	ldr	r3, [r7, #4]
 80056ca:	2b08      	cmp	r3, #8
 80056cc:	d11b      	bne.n	8005706 <HAL_TIM_IC_ConfigChannel+0xe6>
  {
    /* TI3 Configuration */
    assert_param(IS_TIM_CC3_INSTANCE(htim->Instance));

    TIM_TI3_SetConfig(htim->Instance,
 80056ce:	68fb      	ldr	r3, [r7, #12]
 80056d0:	6818      	ldr	r0, [r3, #0]
                      sConfig->ICPolarity,
 80056d2:	68bb      	ldr	r3, [r7, #8]
 80056d4:	6819      	ldr	r1, [r3, #0]
                      sConfig->ICSelection,
 80056d6:	68bb      	ldr	r3, [r7, #8]
 80056d8:	685a      	ldr	r2, [r3, #4]
                      sConfig->ICFilter);
 80056da:	68bb      	ldr	r3, [r7, #8]
 80056dc:	68db      	ldr	r3, [r3, #12]
    TIM_TI3_SetConfig(htim->Instance,
 80056de:	f000 ffc1 	bl	8006664 <TIM_TI3_SetConfig>

    /* Reset the IC3PSC Bits */
    htim->Instance->CCMR2 &= ~TIM_CCMR2_IC3PSC;
 80056e2:	68fb      	ldr	r3, [r7, #12]
 80056e4:	681b      	ldr	r3, [r3, #0]
 80056e6:	69da      	ldr	r2, [r3, #28]
 80056e8:	68fb      	ldr	r3, [r7, #12]
 80056ea:	681b      	ldr	r3, [r3, #0]
 80056ec:	210c      	movs	r1, #12
 80056ee:	438a      	bics	r2, r1
 80056f0:	61da      	str	r2, [r3, #28]

    /* Set the IC3PSC value */
    htim->Instance->CCMR2 |= sConfig->ICPrescaler;
 80056f2:	68fb      	ldr	r3, [r7, #12]
 80056f4:	681b      	ldr	r3, [r3, #0]
 80056f6:	69d9      	ldr	r1, [r3, #28]
 80056f8:	68bb      	ldr	r3, [r7, #8]
 80056fa:	689a      	ldr	r2, [r3, #8]
 80056fc:	68fb      	ldr	r3, [r7, #12]
 80056fe:	681b      	ldr	r3, [r3, #0]
 8005700:	430a      	orrs	r2, r1
 8005702:	61da      	str	r2, [r3, #28]
 8005704:	e023      	b.n	800574e <HAL_TIM_IC_ConfigChannel+0x12e>
  }
  else if (Channel == TIM_CHANNEL_4)
 8005706:	687b      	ldr	r3, [r7, #4]
 8005708:	2b0c      	cmp	r3, #12
 800570a:	d11c      	bne.n	8005746 <HAL_TIM_IC_ConfigChannel+0x126>
  {
    /* TI4 Configuration */
    assert_param(IS_TIM_CC4_INSTANCE(htim->Instance));

    TIM_TI4_SetConfig(htim->Instance,
 800570c:	68fb      	ldr	r3, [r7, #12]
 800570e:	6818      	ldr	r0, [r3, #0]
                      sConfig->ICPolarity,
 8005710:	68bb      	ldr	r3, [r7, #8]
 8005712:	6819      	ldr	r1, [r3, #0]
                      sConfig->ICSelection,
 8005714:	68bb      	ldr	r3, [r7, #8]
 8005716:	685a      	ldr	r2, [r3, #4]
                      sConfig->ICFilter);
 8005718:	68bb      	ldr	r3, [r7, #8]
 800571a:	68db      	ldr	r3, [r3, #12]
    TIM_TI4_SetConfig(htim->Instance,
 800571c:	f000 ffe2 	bl	80066e4 <TIM_TI4_SetConfig>

    /* Reset the IC4PSC Bits */
    htim->Instance->CCMR2 &= ~TIM_CCMR2_IC4PSC;
 8005720:	68fb      	ldr	r3, [r7, #12]
 8005722:	681b      	ldr	r3, [r3, #0]
 8005724:	69da      	ldr	r2, [r3, #28]
 8005726:	68fb      	ldr	r3, [r7, #12]
 8005728:	681b      	ldr	r3, [r3, #0]
 800572a:	490e      	ldr	r1, [pc, #56]	@ (8005764 <HAL_TIM_IC_ConfigChannel+0x144>)
 800572c:	400a      	ands	r2, r1
 800572e:	61da      	str	r2, [r3, #28]

    /* Set the IC4PSC value */
    htim->Instance->CCMR2 |= (sConfig->ICPrescaler << 8U);
 8005730:	68fb      	ldr	r3, [r7, #12]
 8005732:	681b      	ldr	r3, [r3, #0]
 8005734:	69d9      	ldr	r1, [r3, #28]
 8005736:	68bb      	ldr	r3, [r7, #8]
 8005738:	689b      	ldr	r3, [r3, #8]
 800573a:	021a      	lsls	r2, r3, #8
 800573c:	68fb      	ldr	r3, [r7, #12]
 800573e:	681b      	ldr	r3, [r3, #0]
 8005740:	430a      	orrs	r2, r1
 8005742:	61da      	str	r2, [r3, #28]
 8005744:	e003      	b.n	800574e <HAL_TIM_IC_ConfigChannel+0x12e>
  }
  else
  {
    status = HAL_ERROR;
 8005746:	2317      	movs	r3, #23
 8005748:	18fb      	adds	r3, r7, r3
 800574a:	2201      	movs	r2, #1
 800574c:	701a      	strb	r2, [r3, #0]
  }

  __HAL_UNLOCK(htim);
 800574e:	68fb      	ldr	r3, [r7, #12]
 8005750:	223c      	movs	r2, #60	@ 0x3c
 8005752:	2100      	movs	r1, #0
 8005754:	5499      	strb	r1, [r3, r2]

  return status;
 8005756:	2317      	movs	r3, #23
 8005758:	18fb      	adds	r3, r7, r3
 800575a:	781b      	ldrb	r3, [r3, #0]
}
 800575c:	0018      	movs	r0, r3
 800575e:	46bd      	mov	sp, r7
 8005760:	b006      	add	sp, #24
 8005762:	bd80      	pop	{r7, pc}
 8005764:	fffff3ff 	.word	0xfffff3ff

08005768 <HAL_TIM_PWM_ConfigChannel>:
  * @retval HAL status
  */
HAL_StatusTypeDef HAL_TIM_PWM_ConfigChannel(TIM_HandleTypeDef *htim,
                                            const TIM_OC_InitTypeDef *sConfig,
                                            uint32_t Channel)
{
 8005768:	b580      	push	{r7, lr}
 800576a:	b086      	sub	sp, #24
 800576c:	af00      	add	r7, sp, #0
 800576e:	60f8      	str	r0, [r7, #12]
 8005770:	60b9      	str	r1, [r7, #8]
 8005772:	607a      	str	r2, [r7, #4]
  HAL_StatusTypeDef status = HAL_OK;
 8005774:	2317      	movs	r3, #23
 8005776:	18fb      	adds	r3, r7, r3
 8005778:	2200      	movs	r2, #0
 800577a:	701a      	strb	r2, [r3, #0]
  assert_param(IS_TIM_PWM_MODE(sConfig->OCMode));
  assert_param(IS_TIM_OC_POLARITY(sConfig->OCPolarity));
  assert_param(IS_TIM_FAST_STATE(sConfig->OCFastMode));

  /* Process Locked */
  __HAL_LOCK(htim);
 800577c:	68fb      	ldr	r3, [r7, #12]
 800577e:	223c      	movs	r2, #60	@ 0x3c
 8005780:	5c9b      	ldrb	r3, [r3, r2]
 8005782:	2b01      	cmp	r3, #1
 8005784:	d101      	bne.n	800578a <HAL_TIM_PWM_ConfigChannel+0x22>
 8005786:	2302      	movs	r3, #2
 8005788:	e0e5      	b.n	8005956 <HAL_TIM_PWM_ConfigChannel+0x1ee>
 800578a:	68fb      	ldr	r3, [r7, #12]
 800578c:	223c      	movs	r2, #60	@ 0x3c
 800578e:	2101      	movs	r1, #1
 8005790:	5499      	strb	r1, [r3, r2]

  switch (Channel)
 8005792:	687b      	ldr	r3, [r7, #4]
 8005794:	2b14      	cmp	r3, #20
 8005796:	d900      	bls.n	800579a <HAL_TIM_PWM_ConfigChannel+0x32>
 8005798:	e0d1      	b.n	800593e <HAL_TIM_PWM_ConfigChannel+0x1d6>
 800579a:	687b      	ldr	r3, [r7, #4]
 800579c:	009a      	lsls	r2, r3, #2
 800579e:	4b70      	ldr	r3, [pc, #448]	@ (8005960 <HAL_TIM_PWM_ConfigChannel+0x1f8>)
 80057a0:	18d3      	adds	r3, r2, r3
 80057a2:	681b      	ldr	r3, [r3, #0]
 80057a4:	469f      	mov	pc, r3
    {
      /* Check the parameters */
      assert_param(IS_TIM_CC1_INSTANCE(htim->Instance));

      /* Configure the Channel 1 in PWM mode */
      TIM_OC1_SetConfig(htim->Instance, sConfig);
 80057a6:	68fb      	ldr	r3, [r7, #12]
 80057a8:	681b      	ldr	r3, [r3, #0]
 80057aa:	68ba      	ldr	r2, [r7, #8]
 80057ac:	0011      	movs	r1, r2
 80057ae:	0018      	movs	r0, r3
 80057b0:	f000 fb00 	bl	8005db4 <TIM_OC1_SetConfig>

      /* Set the Preload enable bit for channel1 */
      htim->Instance->CCMR1 |= TIM_CCMR1_OC1PE;
 80057b4:	68fb      	ldr	r3, [r7, #12]
 80057b6:	681b      	ldr	r3, [r3, #0]
 80057b8:	699a      	ldr	r2, [r3, #24]
 80057ba:	68fb      	ldr	r3, [r7, #12]
 80057bc:	681b      	ldr	r3, [r3, #0]
 80057be:	2108      	movs	r1, #8
 80057c0:	430a      	orrs	r2, r1
 80057c2:	619a      	str	r2, [r3, #24]

      /* Configure the Output Fast mode */
      htim->Instance->CCMR1 &= ~TIM_CCMR1_OC1FE;
 80057c4:	68fb      	ldr	r3, [r7, #12]
 80057c6:	681b      	ldr	r3, [r3, #0]
 80057c8:	699a      	ldr	r2, [r3, #24]
 80057ca:	68fb      	ldr	r3, [r7, #12]
 80057cc:	681b      	ldr	r3, [r3, #0]
 80057ce:	2104      	movs	r1, #4
 80057d0:	438a      	bics	r2, r1
 80057d2:	619a      	str	r2, [r3, #24]
      htim->Instance->CCMR1 |= sConfig->OCFastMode;
 80057d4:	68fb      	ldr	r3, [r7, #12]
 80057d6:	681b      	ldr	r3, [r3, #0]
 80057d8:	6999      	ldr	r1, [r3, #24]
 80057da:	68bb      	ldr	r3, [r7, #8]
 80057dc:	691a      	ldr	r2, [r3, #16]
 80057de:	68fb      	ldr	r3, [r7, #12]
 80057e0:	681b      	ldr	r3, [r3, #0]
 80057e2:	430a      	orrs	r2, r1
 80057e4:	619a      	str	r2, [r3, #24]
      break;
 80057e6:	e0af      	b.n	8005948 <HAL_TIM_PWM_ConfigChannel+0x1e0>
    {
      /* Check the parameters */
      assert_param(IS_TIM_CC2_INSTANCE(htim->Instance));

      /* Configure the Channel 2 in PWM mode */
      TIM_OC2_SetConfig(htim->Instance, sConfig);
 80057e8:	68fb      	ldr	r3, [r7, #12]
 80057ea:	681b      	ldr	r3, [r3, #0]
 80057ec:	68ba      	ldr	r2, [r7, #8]
 80057ee:	0011      	movs	r1, r2
 80057f0:	0018      	movs	r0, r3
 80057f2:	f000 fb69 	bl	8005ec8 <TIM_OC2_SetConfig>

      /* Set the Preload enable bit for channel2 */
      htim->Instance->CCMR1 |= TIM_CCMR1_OC2PE;
 80057f6:	68fb      	ldr	r3, [r7, #12]
 80057f8:	681b      	ldr	r3, [r3, #0]
 80057fa:	699a      	ldr	r2, [r3, #24]
 80057fc:	68fb      	ldr	r3, [r7, #12]
 80057fe:	681b      	ldr	r3, [r3, #0]
 8005800:	2180      	movs	r1, #128	@ 0x80
 8005802:	0109      	lsls	r1, r1, #4
 8005804:	430a      	orrs	r2, r1
 8005806:	619a      	str	r2, [r3, #24]

      /* Configure the Output Fast mode */
      htim->Instance->CCMR1 &= ~TIM_CCMR1_OC2FE;
 8005808:	68fb      	ldr	r3, [r7, #12]
 800580a:	681b      	ldr	r3, [r3, #0]
 800580c:	699a      	ldr	r2, [r3, #24]
 800580e:	68fb      	ldr	r3, [r7, #12]
 8005810:	681b      	ldr	r3, [r3, #0]
 8005812:	4954      	ldr	r1, [pc, #336]	@ (8005964 <HAL_TIM_PWM_ConfigChannel+0x1fc>)
 8005814:	400a      	ands	r2, r1
 8005816:	619a      	str	r2, [r3, #24]
      htim->Instance->CCMR1 |= sConfig->OCFastMode << 8U;
 8005818:	68fb      	ldr	r3, [r7, #12]
 800581a:	681b      	ldr	r3, [r3, #0]
 800581c:	6999      	ldr	r1, [r3, #24]
 800581e:	68bb      	ldr	r3, [r7, #8]
 8005820:	691b      	ldr	r3, [r3, #16]
 8005822:	021a      	lsls	r2, r3, #8
 8005824:	68fb      	ldr	r3, [r7, #12]
 8005826:	681b      	ldr	r3, [r3, #0]
 8005828:	430a      	orrs	r2, r1
 800582a:	619a      	str	r2, [r3, #24]
      break;
 800582c:	e08c      	b.n	8005948 <HAL_TIM_PWM_ConfigChannel+0x1e0>
    {
      /* Check the parameters */
      assert_param(IS_TIM_CC3_INSTANCE(htim->Instance));

      /* Configure the Channel 3 in PWM mode */
      TIM_OC3_SetConfig(htim->Instance, sConfig);
 800582e:	68fb      	ldr	r3, [r7, #12]
 8005830:	681b      	ldr	r3, [r3, #0]
 8005832:	68ba      	ldr	r2, [r7, #8]
 8005834:	0011      	movs	r1, r2
 8005836:	0018      	movs	r0, r3
 8005838:	f000 fbca 	bl	8005fd0 <TIM_OC3_SetConfig>

      /* Set the Preload enable bit for channel3 */
      htim->Instance->CCMR2 |= TIM_CCMR2_OC3PE;
 800583c:	68fb      	ldr	r3, [r7, #12]
 800583e:	681b      	ldr	r3, [r3, #0]
 8005840:	69da      	ldr	r2, [r3, #28]
 8005842:	68fb      	ldr	r3, [r7, #12]
 8005844:	681b      	ldr	r3, [r3, #0]
 8005846:	2108      	movs	r1, #8
 8005848:	430a      	orrs	r2, r1
 800584a:	61da      	str	r2, [r3, #28]

      /* Configure the Output Fast mode */
      htim->Instance->CCMR2 &= ~TIM_CCMR2_OC3FE;
 800584c:	68fb      	ldr	r3, [r7, #12]
 800584e:	681b      	ldr	r3, [r3, #0]
 8005850:	69da      	ldr	r2, [r3, #28]
 8005852:	68fb      	ldr	r3, [r7, #12]
 8005854:	681b      	ldr	r3, [r3, #0]
 8005856:	2104      	movs	r1, #4
 8005858:	438a      	bics	r2, r1
 800585a:	61da      	str	r2, [r3, #28]
      htim->Instance->CCMR2 |= sConfig->OCFastMode;
 800585c:	68fb      	ldr	r3, [r7, #12]
 800585e:	681b      	ldr	r3, [r3, #0]
 8005860:	69d9      	ldr	r1, [r3, #28]
 8005862:	68bb      	ldr	r3, [r7, #8]
 8005864:	691a      	ldr	r2, [r3, #16]
 8005866:	68fb      	ldr	r3, [r7, #12]
 8005868:	681b      	ldr	r3, [r3, #0]
 800586a:	430a      	orrs	r2, r1
 800586c:	61da      	str	r2, [r3, #28]
      break;
 800586e:	e06b      	b.n	8005948 <HAL_TIM_PWM_ConfigChannel+0x1e0>
    {
      /* Check the parameters */
      assert_param(IS_TIM_CC4_INSTANCE(htim->Instance));

      /* Configure the Channel 4 in PWM mode */
      TIM_OC4_SetConfig(htim->Instance, sConfig);
 8005870:	68fb      	ldr	r3, [r7, #12]
 8005872:	681b      	ldr	r3, [r3, #0]
 8005874:	68ba      	ldr	r2, [r7, #8]
 8005876:	0011      	movs	r1, r2
 8005878:	0018      	movs	r0, r3
 800587a:	f000 fc31 	bl	80060e0 <TIM_OC4_SetConfig>

      /* Set the Preload enable bit for channel4 */
      htim->Instance->CCMR2 |= TIM_CCMR2_OC4PE;
 800587e:	68fb      	ldr	r3, [r7, #12]
 8005880:	681b      	ldr	r3, [r3, #0]
 8005882:	69da      	ldr	r2, [r3, #28]
 8005884:	68fb      	ldr	r3, [r7, #12]
 8005886:	681b      	ldr	r3, [r3, #0]
 8005888:	2180      	movs	r1, #128	@ 0x80
 800588a:	0109      	lsls	r1, r1, #4
 800588c:	430a      	orrs	r2, r1
 800588e:	61da      	str	r2, [r3, #28]

      /* Configure the Output Fast mode */
      htim->Instance->CCMR2 &= ~TIM_CCMR2_OC4FE;
 8005890:	68fb      	ldr	r3, [r7, #12]
 8005892:	681b      	ldr	r3, [r3, #0]
 8005894:	69da      	ldr	r2, [r3, #28]
 8005896:	68fb      	ldr	r3, [r7, #12]
 8005898:	681b      	ldr	r3, [r3, #0]
 800589a:	4932      	ldr	r1, [pc, #200]	@ (8005964 <HAL_TIM_PWM_ConfigChannel+0x1fc>)
 800589c:	400a      	ands	r2, r1
 800589e:	61da      	str	r2, [r3, #28]
      htim->Instance->CCMR2 |= sConfig->OCFastMode << 8U;
 80058a0:	68fb      	ldr	r3, [r7, #12]
 80058a2:	681b      	ldr	r3, [r3, #0]
 80058a4:	69d9      	ldr	r1, [r3, #28]
 80058a6:	68bb      	ldr	r3, [r7, #8]
 80058a8:	691b      	ldr	r3, [r3, #16]
 80058aa:	021a      	lsls	r2, r3, #8
 80058ac:	68fb      	ldr	r3, [r7, #12]
 80058ae:	681b      	ldr	r3, [r3, #0]
 80058b0:	430a      	orrs	r2, r1
 80058b2:	61da      	str	r2, [r3, #28]
      break;
 80058b4:	e048      	b.n	8005948 <HAL_TIM_PWM_ConfigChannel+0x1e0>
    {
      /* Check the parameters */
      assert_param(IS_TIM_CC5_INSTANCE(htim->Instance));

      /* Configure the Channel 5 in PWM mode */
      TIM_OC5_SetConfig(htim->Instance, sConfig);
 80058b6:	68fb      	ldr	r3, [r7, #12]
 80058b8:	681b      	ldr	r3, [r3, #0]
 80058ba:	68ba      	ldr	r2, [r7, #8]
 80058bc:	0011      	movs	r1, r2
 80058be:	0018      	movs	r0, r3
 80058c0:	f000 fc78 	bl	80061b4 <TIM_OC5_SetConfig>

      /* Set the Preload enable bit for channel5*/
      htim->Instance->CCMR3 |= TIM_CCMR3_OC5PE;
 80058c4:	68fb      	ldr	r3, [r7, #12]
 80058c6:	681b      	ldr	r3, [r3, #0]
 80058c8:	6d5a      	ldr	r2, [r3, #84]	@ 0x54
 80058ca:	68fb      	ldr	r3, [r7, #12]
 80058cc:	681b      	ldr	r3, [r3, #0]
 80058ce:	2108      	movs	r1, #8
 80058d0:	430a      	orrs	r2, r1
 80058d2:	655a      	str	r2, [r3, #84]	@ 0x54

      /* Configure the Output Fast mode */
      htim->Instance->CCMR3 &= ~TIM_CCMR3_OC5FE;
 80058d4:	68fb      	ldr	r3, [r7, #12]
 80058d6:	681b      	ldr	r3, [r3, #0]
 80058d8:	6d5a      	ldr	r2, [r3, #84]	@ 0x54
 80058da:	68fb      	ldr	r3, [r7, #12]
 80058dc:	681b      	ldr	r3, [r3, #0]
 80058de:	2104      	movs	r1, #4
 80058e0:	438a      	bics	r2, r1
 80058e2:	655a      	str	r2, [r3, #84]	@ 0x54
      htim->Instance->CCMR3 |= sConfig->OCFastMode;
 80058e4:	68fb      	ldr	r3, [r7, #12]
 80058e6:	681b      	ldr	r3, [r3, #0]
 80058e8:	6d59      	ldr	r1, [r3, #84]	@ 0x54
 80058ea:	68bb      	ldr	r3, [r7, #8]
 80058ec:	691a      	ldr	r2, [r3, #16]
 80058ee:	68fb      	ldr	r3, [r7, #12]
 80058f0:	681b      	ldr	r3, [r3, #0]
 80058f2:	430a      	orrs	r2, r1
 80058f4:	655a      	str	r2, [r3, #84]	@ 0x54
      break;
 80058f6:	e027      	b.n	8005948 <HAL_TIM_PWM_ConfigChannel+0x1e0>
    {
      /* Check the parameters */
      assert_param(IS_TIM_CC6_INSTANCE(htim->Instance));

      /* Configure the Channel 6 in PWM mode */
      TIM_OC6_SetConfig(htim->Instance, sConfig);
 80058f8:	68fb      	ldr	r3, [r7, #12]
 80058fa:	681b      	ldr	r3, [r3, #0]
 80058fc:	68ba      	ldr	r2, [r7, #8]
 80058fe:	0011      	movs	r1, r2
 8005900:	0018      	movs	r0, r3
 8005902:	f000 fcb7 	bl	8006274 <TIM_OC6_SetConfig>

      /* Set the Preload enable bit for channel6 */
      htim->Instance->CCMR3 |= TIM_CCMR3_OC6PE;
 8005906:	68fb      	ldr	r3, [r7, #12]
 8005908:	681b      	ldr	r3, [r3, #0]
 800590a:	6d5a      	ldr	r2, [r3, #84]	@ 0x54
 800590c:	68fb      	ldr	r3, [r7, #12]
 800590e:	681b      	ldr	r3, [r3, #0]
 8005910:	2180      	movs	r1, #128	@ 0x80
 8005912:	0109      	lsls	r1, r1, #4
 8005914:	430a      	orrs	r2, r1
 8005916:	655a      	str	r2, [r3, #84]	@ 0x54

      /* Configure the Output Fast mode */
      htim->Instance->CCMR3 &= ~TIM_CCMR3_OC6FE;
 8005918:	68fb      	ldr	r3, [r7, #12]
 800591a:	681b      	ldr	r3, [r3, #0]
 800591c:	6d5a      	ldr	r2, [r3, #84]	@ 0x54
 800591e:	68fb      	ldr	r3, [r7, #12]
 8005920:	681b      	ldr	r3, [r3, #0]
 8005922:	4910      	ldr	r1, [pc, #64]	@ (8005964 <HAL_TIM_PWM_ConfigChannel+0x1fc>)
 8005924:	400a      	ands	r2, r1
 8005926:	655a      	str	r2, [r3, #84]	@ 0x54
      htim->Instance->CCMR3 |= sConfig->OCFastMode << 8U;
 8005928:	68fb      	ldr	r3, [r7, #12]
 800592a:	681b      	ldr	r3, [r3, #0]
 800592c:	6d59      	ldr	r1, [r3, #84]	@ 0x54
 800592e:	68bb      	ldr	r3, [r7, #8]
 8005930:	691b      	ldr	r3, [r3, #16]
 8005932:	021a      	lsls	r2, r3, #8
 8005934:	68fb      	ldr	r3, [r7, #12]
 8005936:	681b      	ldr	r3, [r3, #0]
 8005938:	430a      	orrs	r2, r1
 800593a:	655a      	str	r2, [r3, #84]	@ 0x54
      break;
 800593c:	e004      	b.n	8005948 <HAL_TIM_PWM_ConfigChannel+0x1e0>
    }

    default:
      status = HAL_ERROR;
 800593e:	2317      	movs	r3, #23
 8005940:	18fb      	adds	r3, r7, r3
 8005942:	2201      	movs	r2, #1
 8005944:	701a      	strb	r2, [r3, #0]
      break;
 8005946:	46c0      	nop			@ (mov r8, r8)
  }

  __HAL_UNLOCK(htim);
 8005948:	68fb      	ldr	r3, [r7, #12]
 800594a:	223c      	movs	r2, #60	@ 0x3c
 800594c:	2100      	movs	r1, #0
 800594e:	5499      	strb	r1, [r3, r2]

  return status;
 8005950:	2317      	movs	r3, #23
 8005952:	18fb      	adds	r3, r7, r3
 8005954:	781b      	ldrb	r3, [r3, #0]
}
 8005956:	0018      	movs	r0, r3
 8005958:	46bd      	mov	sp, r7
 800595a:	b006      	add	sp, #24
 800595c:	bd80      	pop	{r7, pc}
 800595e:	46c0      	nop			@ (mov r8, r8)
 8005960:	080077e4 	.word	0x080077e4
 8005964:	fffffbff 	.word	0xfffffbff

08005968 <HAL_TIM_ConfigOCrefClear>:
  * @retval HAL status
  */
HAL_StatusTypeDef HAL_TIM_ConfigOCrefClear(TIM_HandleTypeDef *htim,
                                           const TIM_ClearInputConfigTypeDef *sClearInputConfig,
                                           uint32_t Channel)
{
 8005968:	b580      	push	{r7, lr}
 800596a:	b086      	sub	sp, #24
 800596c:	af00      	add	r7, sp, #0
 800596e:	60f8      	str	r0, [r7, #12]
 8005970:	60b9      	str	r1, [r7, #8]
 8005972:	607a      	str	r2, [r7, #4]
  HAL_StatusTypeDef status = HAL_OK;
 8005974:	2317      	movs	r3, #23
 8005976:	18fb      	adds	r3, r7, r3
 8005978:	2200      	movs	r2, #0
 800597a:	701a      	strb	r2, [r3, #0]
  /* Check the parameters */
  assert_param(IS_TIM_OCXREF_CLEAR_INSTANCE(htim->Instance));
  assert_param(IS_TIM_CLEARINPUT_SOURCE(sClearInputConfig->ClearInputSource));

  /* Process Locked */
  __HAL_LOCK(htim);
 800597c:	68fb      	ldr	r3, [r7, #12]
 800597e:	223c      	movs	r2, #60	@ 0x3c
 8005980:	5c9b      	ldrb	r3, [r3, r2]
 8005982:	2b01      	cmp	r3, #1
 8005984:	d101      	bne.n	800598a <HAL_TIM_ConfigOCrefClear+0x22>
 8005986:	2302      	movs	r3, #2
 8005988:	e10e      	b.n	8005ba8 <HAL_TIM_ConfigOCrefClear+0x240>
 800598a:	68fb      	ldr	r3, [r7, #12]
 800598c:	223c      	movs	r2, #60	@ 0x3c
 800598e:	2101      	movs	r1, #1
 8005990:	5499      	strb	r1, [r3, r2]

  htim->State = HAL_TIM_STATE_BUSY;
 8005992:	68fb      	ldr	r3, [r7, #12]
 8005994:	223d      	movs	r2, #61	@ 0x3d
 8005996:	2102      	movs	r1, #2
 8005998:	5499      	strb	r1, [r3, r2]

  switch (sClearInputConfig->ClearInputSource)
 800599a:	68bb      	ldr	r3, [r7, #8]
 800599c:	685b      	ldr	r3, [r3, #4]
 800599e:	2280      	movs	r2, #128	@ 0x80
 80059a0:	0592      	lsls	r2, r2, #22
 80059a2:	4293      	cmp	r3, r2
 80059a4:	d02f      	beq.n	8005a06 <HAL_TIM_ConfigOCrefClear+0x9e>
 80059a6:	2280      	movs	r2, #128	@ 0x80
 80059a8:	0592      	lsls	r2, r2, #22
 80059aa:	4293      	cmp	r3, r2
 80059ac:	d854      	bhi.n	8005a58 <HAL_TIM_ConfigOCrefClear+0xf0>
 80059ae:	2b01      	cmp	r3, #1
 80059b0:	d914      	bls.n	80059dc <HAL_TIM_ConfigOCrefClear+0x74>
 80059b2:	2280      	movs	r2, #128	@ 0x80
 80059b4:	0552      	lsls	r2, r2, #21
 80059b6:	4293      	cmp	r3, r2
 80059b8:	d14e      	bne.n	8005a58 <HAL_TIM_ConfigOCrefClear+0xf0>
  {
    case TIM_CLEARINPUTSOURCE_NONE:
    {
      /* Clear the OCREF clear selection bit and the the ETR Bits */
      CLEAR_BIT(htim->Instance->SMCR, (TIM_SMCR_OCCS | TIM_SMCR_ETF | TIM_SMCR_ETPS | TIM_SMCR_ECE | TIM_SMCR_ETP));
 80059ba:	68fb      	ldr	r3, [r7, #12]
 80059bc:	681b      	ldr	r3, [r3, #0]
 80059be:	689a      	ldr	r2, [r3, #8]
 80059c0:	68fb      	ldr	r3, [r7, #12]
 80059c2:	681b      	ldr	r3, [r3, #0]
 80059c4:	497a      	ldr	r1, [pc, #488]	@ (8005bb0 <HAL_TIM_ConfigOCrefClear+0x248>)
 80059c6:	400a      	ands	r2, r1
 80059c8:	609a      	str	r2, [r3, #8]

      /* Clear TIMx_OR1_OCREF_CLR (reset value) */
      CLEAR_BIT(htim->Instance->OR1, TIMx_OR1_OCREF_CLR);
 80059ca:	68fb      	ldr	r3, [r7, #12]
 80059cc:	681b      	ldr	r3, [r3, #0]
 80059ce:	6d1a      	ldr	r2, [r3, #80]	@ 0x50
 80059d0:	68fb      	ldr	r3, [r7, #12]
 80059d2:	681b      	ldr	r3, [r3, #0]
 80059d4:	2101      	movs	r1, #1
 80059d6:	438a      	bics	r2, r1
 80059d8:	651a      	str	r2, [r3, #80]	@ 0x50
      break;
 80059da:	e042      	b.n	8005a62 <HAL_TIM_ConfigOCrefClear+0xfa>
#if defined(COMP3)
    case TIM_CLEARINPUTSOURCE_COMP3:
#endif /* COMP3 */
    {
      /* Clear the OCREF clear selection bit */
      CLEAR_BIT(htim->Instance->SMCR, TIM_SMCR_OCCS);
 80059dc:	68fb      	ldr	r3, [r7, #12]
 80059de:	681b      	ldr	r3, [r3, #0]
 80059e0:	689a      	ldr	r2, [r3, #8]
 80059e2:	68fb      	ldr	r3, [r7, #12]
 80059e4:	681b      	ldr	r3, [r3, #0]
 80059e6:	2108      	movs	r1, #8
 80059e8:	438a      	bics	r2, r1
 80059ea:	609a      	str	r2, [r3, #8]

      /* OCREF_CLR_INT is connected to COMPx output */
      MODIFY_REG(htim->Instance->OR1, TIMx_OR1_OCREF_CLR, sClearInputConfig->ClearInputSource);
 80059ec:	68fb      	ldr	r3, [r7, #12]
 80059ee:	681b      	ldr	r3, [r3, #0]
 80059f0:	6d1b      	ldr	r3, [r3, #80]	@ 0x50
 80059f2:	2201      	movs	r2, #1
 80059f4:	4393      	bics	r3, r2
 80059f6:	0019      	movs	r1, r3
 80059f8:	68bb      	ldr	r3, [r7, #8]
 80059fa:	685a      	ldr	r2, [r3, #4]
 80059fc:	68fb      	ldr	r3, [r7, #12]
 80059fe:	681b      	ldr	r3, [r3, #0]
 8005a00:	430a      	orrs	r2, r1
 8005a02:	651a      	str	r2, [r3, #80]	@ 0x50
      break;
 8005a04:	e02d      	b.n	8005a62 <HAL_TIM_ConfigOCrefClear+0xfa>
      assert_param(IS_TIM_CLEARINPUT_POLARITY(sClearInputConfig->ClearInputPolarity));
      assert_param(IS_TIM_CLEARINPUT_PRESCALER(sClearInputConfig->ClearInputPrescaler));
      assert_param(IS_TIM_CLEARINPUT_FILTER(sClearInputConfig->ClearInputFilter));

      /* When OCRef clear feature is used with ETR source, ETR prescaler must be off */
      if (sClearInputConfig->ClearInputPrescaler != TIM_CLEARINPUTPRESCALER_DIV1)
 8005a06:	68bb      	ldr	r3, [r7, #8]
 8005a08:	68db      	ldr	r3, [r3, #12]
 8005a0a:	2b00      	cmp	r3, #0
 8005a0c:	d009      	beq.n	8005a22 <HAL_TIM_ConfigOCrefClear+0xba>
      {
        htim->State = HAL_TIM_STATE_READY;
 8005a0e:	68fb      	ldr	r3, [r7, #12]
 8005a10:	223d      	movs	r2, #61	@ 0x3d
 8005a12:	2101      	movs	r1, #1
 8005a14:	5499      	strb	r1, [r3, r2]
        __HAL_UNLOCK(htim);
 8005a16:	68fb      	ldr	r3, [r7, #12]
 8005a18:	223c      	movs	r2, #60	@ 0x3c
 8005a1a:	2100      	movs	r1, #0
 8005a1c:	5499      	strb	r1, [r3, r2]
        return HAL_ERROR;
 8005a1e:	2301      	movs	r3, #1
 8005a20:	e0c2      	b.n	8005ba8 <HAL_TIM_ConfigOCrefClear+0x240>
      }

      TIM_ETR_SetConfig(htim->Instance,
 8005a22:	68fb      	ldr	r3, [r7, #12]
 8005a24:	6818      	ldr	r0, [r3, #0]
                        sClearInputConfig->ClearInputPrescaler,
 8005a26:	68bb      	ldr	r3, [r7, #8]
 8005a28:	68d9      	ldr	r1, [r3, #12]
                        sClearInputConfig->ClearInputPolarity,
 8005a2a:	68bb      	ldr	r3, [r7, #8]
 8005a2c:	689a      	ldr	r2, [r3, #8]
                        sClearInputConfig->ClearInputFilter);
 8005a2e:	68bb      	ldr	r3, [r7, #8]
 8005a30:	691b      	ldr	r3, [r3, #16]
      TIM_ETR_SetConfig(htim->Instance,
 8005a32:	f000 fe9d 	bl	8006770 <TIM_ETR_SetConfig>

      /* Set the OCREF clear selection bit */
      SET_BIT(htim->Instance->SMCR, TIM_SMCR_OCCS);
 8005a36:	68fb      	ldr	r3, [r7, #12]
 8005a38:	681b      	ldr	r3, [r3, #0]
 8005a3a:	689a      	ldr	r2, [r3, #8]
 8005a3c:	68fb      	ldr	r3, [r7, #12]
 8005a3e:	681b      	ldr	r3, [r3, #0]
 8005a40:	2108      	movs	r1, #8
 8005a42:	430a      	orrs	r2, r1
 8005a44:	609a      	str	r2, [r3, #8]

      /* Clear TIMx_OR1_OCREF_CLR (reset value) */
      CLEAR_BIT(htim->Instance->OR1, TIMx_OR1_OCREF_CLR);
 8005a46:	68fb      	ldr	r3, [r7, #12]
 8005a48:	681b      	ldr	r3, [r3, #0]
 8005a4a:	6d1a      	ldr	r2, [r3, #80]	@ 0x50
 8005a4c:	68fb      	ldr	r3, [r7, #12]
 8005a4e:	681b      	ldr	r3, [r3, #0]
 8005a50:	2101      	movs	r1, #1
 8005a52:	438a      	bics	r2, r1
 8005a54:	651a      	str	r2, [r3, #80]	@ 0x50
      break;
 8005a56:	e004      	b.n	8005a62 <HAL_TIM_ConfigOCrefClear+0xfa>
    }

    default:
      status = HAL_ERROR;
 8005a58:	2317      	movs	r3, #23
 8005a5a:	18fb      	adds	r3, r7, r3
 8005a5c:	2201      	movs	r2, #1
 8005a5e:	701a      	strb	r2, [r3, #0]
      break;
 8005a60:	46c0      	nop			@ (mov r8, r8)
  }

  if (status == HAL_OK)
 8005a62:	2317      	movs	r3, #23
 8005a64:	18fb      	adds	r3, r7, r3
 8005a66:	781b      	ldrb	r3, [r3, #0]
 8005a68:	2b00      	cmp	r3, #0
 8005a6a:	d000      	beq.n	8005a6e <HAL_TIM_ConfigOCrefClear+0x106>
 8005a6c:	e091      	b.n	8005b92 <HAL_TIM_ConfigOCrefClear+0x22a>
  {
    switch (Channel)
 8005a6e:	687b      	ldr	r3, [r7, #4]
 8005a70:	2b14      	cmp	r3, #20
 8005a72:	d900      	bls.n	8005a76 <HAL_TIM_ConfigOCrefClear+0x10e>
 8005a74:	e08c      	b.n	8005b90 <HAL_TIM_ConfigOCrefClear+0x228>
 8005a76:	687b      	ldr	r3, [r7, #4]
 8005a78:	009a      	lsls	r2, r3, #2
 8005a7a:	4b4e      	ldr	r3, [pc, #312]	@ (8005bb4 <HAL_TIM_ConfigOCrefClear+0x24c>)
 8005a7c:	18d3      	adds	r3, r2, r3
 8005a7e:	681b      	ldr	r3, [r3, #0]
 8005a80:	469f      	mov	pc, r3
    {
      case TIM_CHANNEL_1:
      {
        if (sClearInputConfig->ClearInputState != (uint32_t)DISABLE)
 8005a82:	68bb      	ldr	r3, [r7, #8]
 8005a84:	681b      	ldr	r3, [r3, #0]
 8005a86:	2b00      	cmp	r3, #0
 8005a88:	d008      	beq.n	8005a9c <HAL_TIM_ConfigOCrefClear+0x134>
        {
          /* Enable the OCREF clear feature for Channel 1 */
          SET_BIT(htim->Instance->CCMR1, TIM_CCMR1_OC1CE);
 8005a8a:	68fb      	ldr	r3, [r7, #12]
 8005a8c:	681b      	ldr	r3, [r3, #0]
 8005a8e:	699a      	ldr	r2, [r3, #24]
 8005a90:	68fb      	ldr	r3, [r7, #12]
 8005a92:	681b      	ldr	r3, [r3, #0]
 8005a94:	2180      	movs	r1, #128	@ 0x80
 8005a96:	430a      	orrs	r2, r1
 8005a98:	619a      	str	r2, [r3, #24]
        else
        {
          /* Disable the OCREF clear feature for Channel 1 */
          CLEAR_BIT(htim->Instance->CCMR1, TIM_CCMR1_OC1CE);
        }
        break;
 8005a9a:	e07a      	b.n	8005b92 <HAL_TIM_ConfigOCrefClear+0x22a>
          CLEAR_BIT(htim->Instance->CCMR1, TIM_CCMR1_OC1CE);
 8005a9c:	68fb      	ldr	r3, [r7, #12]
 8005a9e:	681b      	ldr	r3, [r3, #0]
 8005aa0:	699a      	ldr	r2, [r3, #24]
 8005aa2:	68fb      	ldr	r3, [r7, #12]
 8005aa4:	681b      	ldr	r3, [r3, #0]
 8005aa6:	2180      	movs	r1, #128	@ 0x80
 8005aa8:	438a      	bics	r2, r1
 8005aaa:	619a      	str	r2, [r3, #24]
        break;
 8005aac:	e071      	b.n	8005b92 <HAL_TIM_ConfigOCrefClear+0x22a>
      }
      case TIM_CHANNEL_2:
      {
        if (sClearInputConfig->ClearInputState != (uint32_t)DISABLE)
 8005aae:	68bb      	ldr	r3, [r7, #8]
 8005ab0:	681b      	ldr	r3, [r3, #0]
 8005ab2:	2b00      	cmp	r3, #0
 8005ab4:	d009      	beq.n	8005aca <HAL_TIM_ConfigOCrefClear+0x162>
        {
          /* Enable the OCREF clear feature for Channel 2 */
          SET_BIT(htim->Instance->CCMR1, TIM_CCMR1_OC2CE);
 8005ab6:	68fb      	ldr	r3, [r7, #12]
 8005ab8:	681b      	ldr	r3, [r3, #0]
 8005aba:	699a      	ldr	r2, [r3, #24]
 8005abc:	68fb      	ldr	r3, [r7, #12]
 8005abe:	681b      	ldr	r3, [r3, #0]
 8005ac0:	2180      	movs	r1, #128	@ 0x80
 8005ac2:	0209      	lsls	r1, r1, #8
 8005ac4:	430a      	orrs	r2, r1
 8005ac6:	619a      	str	r2, [r3, #24]
        else
        {
          /* Disable the OCREF clear feature for Channel 2 */
          CLEAR_BIT(htim->Instance->CCMR1, TIM_CCMR1_OC2CE);
        }
        break;
 8005ac8:	e063      	b.n	8005b92 <HAL_TIM_ConfigOCrefClear+0x22a>
          CLEAR_BIT(htim->Instance->CCMR1, TIM_CCMR1_OC2CE);
 8005aca:	68fb      	ldr	r3, [r7, #12]
 8005acc:	681b      	ldr	r3, [r3, #0]
 8005ace:	699a      	ldr	r2, [r3, #24]
 8005ad0:	68fb      	ldr	r3, [r7, #12]
 8005ad2:	681b      	ldr	r3, [r3, #0]
 8005ad4:	4938      	ldr	r1, [pc, #224]	@ (8005bb8 <HAL_TIM_ConfigOCrefClear+0x250>)
 8005ad6:	400a      	ands	r2, r1
 8005ad8:	619a      	str	r2, [r3, #24]
        break;
 8005ada:	e05a      	b.n	8005b92 <HAL_TIM_ConfigOCrefClear+0x22a>
      }
      case TIM_CHANNEL_3:
      {
        if (sClearInputConfig->ClearInputState != (uint32_t)DISABLE)
 8005adc:	68bb      	ldr	r3, [r7, #8]
 8005ade:	681b      	ldr	r3, [r3, #0]
 8005ae0:	2b00      	cmp	r3, #0
 8005ae2:	d008      	beq.n	8005af6 <HAL_TIM_ConfigOCrefClear+0x18e>
        {
          /* Enable the OCREF clear feature for Channel 3 */
          SET_BIT(htim->Instance->CCMR2, TIM_CCMR2_OC3CE);
 8005ae4:	68fb      	ldr	r3, [r7, #12]
 8005ae6:	681b      	ldr	r3, [r3, #0]
 8005ae8:	69da      	ldr	r2, [r3, #28]
 8005aea:	68fb      	ldr	r3, [r7, #12]
 8005aec:	681b      	ldr	r3, [r3, #0]
 8005aee:	2180      	movs	r1, #128	@ 0x80
 8005af0:	430a      	orrs	r2, r1
 8005af2:	61da      	str	r2, [r3, #28]
        else
        {
          /* Disable the OCREF clear feature for Channel 3 */
          CLEAR_BIT(htim->Instance->CCMR2, TIM_CCMR2_OC3CE);
        }
        break;
 8005af4:	e04d      	b.n	8005b92 <HAL_TIM_ConfigOCrefClear+0x22a>
          CLEAR_BIT(htim->Instance->CCMR2, TIM_CCMR2_OC3CE);
 8005af6:	68fb      	ldr	r3, [r7, #12]
 8005af8:	681b      	ldr	r3, [r3, #0]
 8005afa:	69da      	ldr	r2, [r3, #28]
 8005afc:	68fb      	ldr	r3, [r7, #12]
 8005afe:	681b      	ldr	r3, [r3, #0]
 8005b00:	2180      	movs	r1, #128	@ 0x80
 8005b02:	438a      	bics	r2, r1
 8005b04:	61da      	str	r2, [r3, #28]
        break;
 8005b06:	e044      	b.n	8005b92 <HAL_TIM_ConfigOCrefClear+0x22a>
      }
      case TIM_CHANNEL_4:
      {
        if (sClearInputConfig->ClearInputState != (uint32_t)DISABLE)
 8005b08:	68bb      	ldr	r3, [r7, #8]
 8005b0a:	681b      	ldr	r3, [r3, #0]
 8005b0c:	2b00      	cmp	r3, #0
 8005b0e:	d009      	beq.n	8005b24 <HAL_TIM_ConfigOCrefClear+0x1bc>
        {
          /* Enable the OCREF clear feature for Channel 4 */
          SET_BIT(htim->Instance->CCMR2, TIM_CCMR2_OC4CE);
 8005b10:	68fb      	ldr	r3, [r7, #12]
 8005b12:	681b      	ldr	r3, [r3, #0]
 8005b14:	69da      	ldr	r2, [r3, #28]
 8005b16:	68fb      	ldr	r3, [r7, #12]
 8005b18:	681b      	ldr	r3, [r3, #0]
 8005b1a:	2180      	movs	r1, #128	@ 0x80
 8005b1c:	0209      	lsls	r1, r1, #8
 8005b1e:	430a      	orrs	r2, r1
 8005b20:	61da      	str	r2, [r3, #28]
        else
        {
          /* Disable the OCREF clear feature for Channel 4 */
          CLEAR_BIT(htim->Instance->CCMR2, TIM_CCMR2_OC4CE);
        }
        break;
 8005b22:	e036      	b.n	8005b92 <HAL_TIM_ConfigOCrefClear+0x22a>
          CLEAR_BIT(htim->Instance->CCMR2, TIM_CCMR2_OC4CE);
 8005b24:	68fb      	ldr	r3, [r7, #12]
 8005b26:	681b      	ldr	r3, [r3, #0]
 8005b28:	69da      	ldr	r2, [r3, #28]
 8005b2a:	68fb      	ldr	r3, [r7, #12]
 8005b2c:	681b      	ldr	r3, [r3, #0]
 8005b2e:	4922      	ldr	r1, [pc, #136]	@ (8005bb8 <HAL_TIM_ConfigOCrefClear+0x250>)
 8005b30:	400a      	ands	r2, r1
 8005b32:	61da      	str	r2, [r3, #28]
        break;
 8005b34:	e02d      	b.n	8005b92 <HAL_TIM_ConfigOCrefClear+0x22a>
      }
      case TIM_CHANNEL_5:
      {
        if (sClearInputConfig->ClearInputState != (uint32_t)DISABLE)
 8005b36:	68bb      	ldr	r3, [r7, #8]
 8005b38:	681b      	ldr	r3, [r3, #0]
 8005b3a:	2b00      	cmp	r3, #0
 8005b3c:	d008      	beq.n	8005b50 <HAL_TIM_ConfigOCrefClear+0x1e8>
        {
          /* Enable the OCREF clear feature for Channel 5 */
          SET_BIT(htim->Instance->CCMR3, TIM_CCMR3_OC5CE);
 8005b3e:	68fb      	ldr	r3, [r7, #12]
 8005b40:	681b      	ldr	r3, [r3, #0]
 8005b42:	6d5a      	ldr	r2, [r3, #84]	@ 0x54
 8005b44:	68fb      	ldr	r3, [r7, #12]
 8005b46:	681b      	ldr	r3, [r3, #0]
 8005b48:	2180      	movs	r1, #128	@ 0x80
 8005b4a:	430a      	orrs	r2, r1
 8005b4c:	655a      	str	r2, [r3, #84]	@ 0x54
        else
        {
          /* Disable the OCREF clear feature for Channel 5 */
          CLEAR_BIT(htim->Instance->CCMR3, TIM_CCMR3_OC5CE);
        }
        break;
 8005b4e:	e020      	b.n	8005b92 <HAL_TIM_ConfigOCrefClear+0x22a>
          CLEAR_BIT(htim->Instance->CCMR3, TIM_CCMR3_OC5CE);
 8005b50:	68fb      	ldr	r3, [r7, #12]
 8005b52:	681b      	ldr	r3, [r3, #0]
 8005b54:	6d5a      	ldr	r2, [r3, #84]	@ 0x54
 8005b56:	68fb      	ldr	r3, [r7, #12]
 8005b58:	681b      	ldr	r3, [r3, #0]
 8005b5a:	2180      	movs	r1, #128	@ 0x80
 8005b5c:	438a      	bics	r2, r1
 8005b5e:	655a      	str	r2, [r3, #84]	@ 0x54
        break;
 8005b60:	e017      	b.n	8005b92 <HAL_TIM_ConfigOCrefClear+0x22a>
      }
      case TIM_CHANNEL_6:
      {
        if (sClearInputConfig->ClearInputState != (uint32_t)DISABLE)
 8005b62:	68bb      	ldr	r3, [r7, #8]
 8005b64:	681b      	ldr	r3, [r3, #0]
 8005b66:	2b00      	cmp	r3, #0
 8005b68:	d009      	beq.n	8005b7e <HAL_TIM_ConfigOCrefClear+0x216>
        {
          /* Enable the OCREF clear feature for Channel 6 */
          SET_BIT(htim->Instance->CCMR3, TIM_CCMR3_OC6CE);
 8005b6a:	68fb      	ldr	r3, [r7, #12]
 8005b6c:	681b      	ldr	r3, [r3, #0]
 8005b6e:	6d5a      	ldr	r2, [r3, #84]	@ 0x54
 8005b70:	68fb      	ldr	r3, [r7, #12]
 8005b72:	681b      	ldr	r3, [r3, #0]
 8005b74:	2180      	movs	r1, #128	@ 0x80
 8005b76:	0209      	lsls	r1, r1, #8
 8005b78:	430a      	orrs	r2, r1
 8005b7a:	655a      	str	r2, [r3, #84]	@ 0x54
        else
        {
          /* Disable the OCREF clear feature for Channel 6 */
          CLEAR_BIT(htim->Instance->CCMR3, TIM_CCMR3_OC6CE);
        }
        break;
 8005b7c:	e009      	b.n	8005b92 <HAL_TIM_ConfigOCrefClear+0x22a>
          CLEAR_BIT(htim->Instance->CCMR3, TIM_CCMR3_OC6CE);
 8005b7e:	68fb      	ldr	r3, [r7, #12]
 8005b80:	681b      	ldr	r3, [r3, #0]
 8005b82:	6d5a      	ldr	r2, [r3, #84]	@ 0x54
 8005b84:	68fb      	ldr	r3, [r7, #12]
 8005b86:	681b      	ldr	r3, [r3, #0]
 8005b88:	490b      	ldr	r1, [pc, #44]	@ (8005bb8 <HAL_TIM_ConfigOCrefClear+0x250>)
 8005b8a:	400a      	ands	r2, r1
 8005b8c:	655a      	str	r2, [r3, #84]	@ 0x54
        break;
 8005b8e:	e000      	b.n	8005b92 <HAL_TIM_ConfigOCrefClear+0x22a>
      }
      default:
        break;
 8005b90:	46c0      	nop			@ (mov r8, r8)
    }
  }

  htim->State = HAL_TIM_STATE_READY;
 8005b92:	68fb      	ldr	r3, [r7, #12]
 8005b94:	223d      	movs	r2, #61	@ 0x3d
 8005b96:	2101      	movs	r1, #1
 8005b98:	5499      	strb	r1, [r3, r2]

  __HAL_UNLOCK(htim);
 8005b9a:	68fb      	ldr	r3, [r7, #12]
 8005b9c:	223c      	movs	r2, #60	@ 0x3c
 8005b9e:	2100      	movs	r1, #0
 8005ba0:	5499      	strb	r1, [r3, r2]

  return status;
 8005ba2:	2317      	movs	r3, #23
 8005ba4:	18fb      	adds	r3, r7, r3
 8005ba6:	781b      	ldrb	r3, [r3, #0]
}
 8005ba8:	0018      	movs	r0, r3
 8005baa:	46bd      	mov	sp, r7
 8005bac:	b006      	add	sp, #24
 8005bae:	bd80      	pop	{r7, pc}
 8005bb0:	ffff00f7 	.word	0xffff00f7
 8005bb4:	08007838 	.word	0x08007838
 8005bb8:	ffff7fff 	.word	0xffff7fff

08005bbc <HAL_TIM_SlaveConfigSynchro>:
  *         timer input or external trigger input) and the Slave mode
  *         (Disable, Reset, Gated, Trigger, External clock mode 1).
  * @retval HAL status
  */
HAL_StatusTypeDef HAL_TIM_SlaveConfigSynchro(TIM_HandleTypeDef *htim, const TIM_SlaveConfigTypeDef *sSlaveConfig)
{
 8005bbc:	b580      	push	{r7, lr}
 8005bbe:	b082      	sub	sp, #8
 8005bc0:	af00      	add	r7, sp, #0
 8005bc2:	6078      	str	r0, [r7, #4]
 8005bc4:	6039      	str	r1, [r7, #0]
  /* Check the parameters */
  assert_param(IS_TIM_SLAVE_INSTANCE(htim->Instance));
  assert_param(IS_TIM_SLAVE_MODE(sSlaveConfig->SlaveMode));
  assert_param(IS_TIM_TRIGGER_SELECTION(sSlaveConfig->InputTrigger));

  __HAL_LOCK(htim);
 8005bc6:	687b      	ldr	r3, [r7, #4]
 8005bc8:	223c      	movs	r2, #60	@ 0x3c
 8005bca:	5c9b      	ldrb	r3, [r3, r2]
 8005bcc:	2b01      	cmp	r3, #1
 8005bce:	d101      	bne.n	8005bd4 <HAL_TIM_SlaveConfigSynchro+0x18>
 8005bd0:	2302      	movs	r3, #2
 8005bd2:	e032      	b.n	8005c3a <HAL_TIM_SlaveConfigSynchro+0x7e>
 8005bd4:	687b      	ldr	r3, [r7, #4]
 8005bd6:	223c      	movs	r2, #60	@ 0x3c
 8005bd8:	2101      	movs	r1, #1
 8005bda:	5499      	strb	r1, [r3, r2]

  htim->State = HAL_TIM_STATE_BUSY;
 8005bdc:	687b      	ldr	r3, [r7, #4]
 8005bde:	223d      	movs	r2, #61	@ 0x3d
 8005be0:	2102      	movs	r1, #2
 8005be2:	5499      	strb	r1, [r3, r2]

  if (TIM_SlaveTimer_SetConfig(htim, sSlaveConfig) != HAL_OK)
 8005be4:	683a      	ldr	r2, [r7, #0]
 8005be6:	687b      	ldr	r3, [r7, #4]
 8005be8:	0011      	movs	r1, r2
 8005bea:	0018      	movs	r0, r3
 8005bec:	f000 fba6 	bl	800633c <TIM_SlaveTimer_SetConfig>
 8005bf0:	1e03      	subs	r3, r0, #0
 8005bf2:	d009      	beq.n	8005c08 <HAL_TIM_SlaveConfigSynchro+0x4c>
  {
    htim->State = HAL_TIM_STATE_READY;
 8005bf4:	687b      	ldr	r3, [r7, #4]
 8005bf6:	223d      	movs	r2, #61	@ 0x3d
 8005bf8:	2101      	movs	r1, #1
 8005bfa:	5499      	strb	r1, [r3, r2]
    __HAL_UNLOCK(htim);
 8005bfc:	687b      	ldr	r3, [r7, #4]
 8005bfe:	223c      	movs	r2, #60	@ 0x3c
 8005c00:	2100      	movs	r1, #0
 8005c02:	5499      	strb	r1, [r3, r2]
    return HAL_ERROR;
 8005c04:	2301      	movs	r3, #1
 8005c06:	e018      	b.n	8005c3a <HAL_TIM_SlaveConfigSynchro+0x7e>
  }

  /* Disable Trigger Interrupt */
  __HAL_TIM_DISABLE_IT(htim, TIM_IT_TRIGGER);
 8005c08:	687b      	ldr	r3, [r7, #4]
 8005c0a:	681b      	ldr	r3, [r3, #0]
 8005c0c:	68da      	ldr	r2, [r3, #12]
 8005c0e:	687b      	ldr	r3, [r7, #4]
 8005c10:	681b      	ldr	r3, [r3, #0]
 8005c12:	2140      	movs	r1, #64	@ 0x40
 8005c14:	438a      	bics	r2, r1
 8005c16:	60da      	str	r2, [r3, #12]

  /* Disable Trigger DMA request */
  __HAL_TIM_DISABLE_DMA(htim, TIM_DMA_TRIGGER);
 8005c18:	687b      	ldr	r3, [r7, #4]
 8005c1a:	681b      	ldr	r3, [r3, #0]
 8005c1c:	68da      	ldr	r2, [r3, #12]
 8005c1e:	687b      	ldr	r3, [r7, #4]
 8005c20:	681b      	ldr	r3, [r3, #0]
 8005c22:	4908      	ldr	r1, [pc, #32]	@ (8005c44 <HAL_TIM_SlaveConfigSynchro+0x88>)
 8005c24:	400a      	ands	r2, r1
 8005c26:	60da      	str	r2, [r3, #12]

  htim->State = HAL_TIM_STATE_READY;
 8005c28:	687b      	ldr	r3, [r7, #4]
 8005c2a:	223d      	movs	r2, #61	@ 0x3d
 8005c2c:	2101      	movs	r1, #1
 8005c2e:	5499      	strb	r1, [r3, r2]

  __HAL_UNLOCK(htim);
 8005c30:	687b      	ldr	r3, [r7, #4]
 8005c32:	223c      	movs	r2, #60	@ 0x3c
 8005c34:	2100      	movs	r1, #0
 8005c36:	5499      	strb	r1, [r3, r2]

  return HAL_OK;
 8005c38:	2300      	movs	r3, #0
}
 8005c3a:	0018      	movs	r0, r3
 8005c3c:	46bd      	mov	sp, r7
 8005c3e:	b002      	add	sp, #8
 8005c40:	bd80      	pop	{r7, pc}
 8005c42:	46c0      	nop			@ (mov r8, r8)
 8005c44:	ffffbfff 	.word	0xffffbfff

08005c48 <HAL_TIM_PeriodElapsedCallback>:
  * @brief  Period elapsed callback in non-blocking mode
  * @param  htim TIM handle
  * @retval None
  */
__weak void HAL_TIM_PeriodElapsedCallback(TIM_HandleTypeDef *htim)
{
 8005c48:	b580      	push	{r7, lr}
 8005c4a:	b082      	sub	sp, #8
 8005c4c:	af00      	add	r7, sp, #0
 8005c4e:	6078      	str	r0, [r7, #4]
  UNUSED(htim);

  /* NOTE : This function should not be modified, when the callback is needed,
            the HAL_TIM_PeriodElapsedCallback could be implemented in the user file
   */
}
 8005c50:	46c0      	nop			@ (mov r8, r8)
 8005c52:	46bd      	mov	sp, r7
 8005c54:	b002      	add	sp, #8
 8005c56:	bd80      	pop	{r7, pc}

08005c58 <HAL_TIM_OC_DelayElapsedCallback>:
  * @brief  Output Compare callback in non-blocking mode
  * @param  htim TIM OC handle
  * @retval None
  */
__weak void HAL_TIM_OC_DelayElapsedCallback(TIM_HandleTypeDef *htim)
{
 8005c58:	b580      	push	{r7, lr}
 8005c5a:	b082      	sub	sp, #8
 8005c5c:	af00      	add	r7, sp, #0
 8005c5e:	6078      	str	r0, [r7, #4]
  UNUSED(htim);

  /* NOTE : This function should not be modified, when the callback is needed,
            the HAL_TIM_OC_DelayElapsedCallback could be implemented in the user file
   */
}
 8005c60:	46c0      	nop			@ (mov r8, r8)
 8005c62:	46bd      	mov	sp, r7
 8005c64:	b002      	add	sp, #8
 8005c66:	bd80      	pop	{r7, pc}

08005c68 <HAL_TIM_IC_CaptureCallback>:
  * @brief  Input Capture callback in non-blocking mode
  * @param  htim TIM IC handle
  * @retval None
  */
__weak void HAL_TIM_IC_CaptureCallback(TIM_HandleTypeDef *htim)
{
 8005c68:	b580      	push	{r7, lr}
 8005c6a:	b082      	sub	sp, #8
 8005c6c:	af00      	add	r7, sp, #0
 8005c6e:	6078      	str	r0, [r7, #4]
  UNUSED(htim);

  /* NOTE : This function should not be modified, when the callback is needed,
            the HAL_TIM_IC_CaptureCallback could be implemented in the user file
   */
}
 8005c70:	46c0      	nop			@ (mov r8, r8)
 8005c72:	46bd      	mov	sp, r7
 8005c74:	b002      	add	sp, #8
 8005c76:	bd80      	pop	{r7, pc}

08005c78 <HAL_TIM_PWM_PulseFinishedCallback>:
  * @brief  PWM Pulse finished callback in non-blocking mode
  * @param  htim TIM handle
  * @retval None
  */
__weak void HAL_TIM_PWM_PulseFinishedCallback(TIM_HandleTypeDef *htim)
{
 8005c78:	b580      	push	{r7, lr}
 8005c7a:	b082      	sub	sp, #8
 8005c7c:	af00      	add	r7, sp, #0
 8005c7e:	6078      	str	r0, [r7, #4]
  UNUSED(htim);

  /* NOTE : This function should not be modified, when the callback is needed,
            the HAL_TIM_PWM_PulseFinishedCallback could be implemented in the user file
   */
}
 8005c80:	46c0      	nop			@ (mov r8, r8)
 8005c82:	46bd      	mov	sp, r7
 8005c84:	b002      	add	sp, #8
 8005c86:	bd80      	pop	{r7, pc}

08005c88 <HAL_TIM_TriggerCallback>:
  * @brief  Hall Trigger detection callback in non-blocking mode
  * @param  htim TIM handle
  * @retval None
  */
__weak void HAL_TIM_TriggerCallback(TIM_HandleTypeDef *htim)
{
 8005c88:	b580      	push	{r7, lr}
 8005c8a:	b082      	sub	sp, #8
 8005c8c:	af00      	add	r7, sp, #0
 8005c8e:	6078      	str	r0, [r7, #4]
  UNUSED(htim);

  /* NOTE : This function should not be modified, when the callback is needed,
            the HAL_TIM_TriggerCallback could be implemented in the user file
   */
}
 8005c90:	46c0      	nop			@ (mov r8, r8)
 8005c92:	46bd      	mov	sp, r7
 8005c94:	b002      	add	sp, #8
 8005c96:	bd80      	pop	{r7, pc}

08005c98 <TIM_Base_SetConfig>:
  * @param  TIMx TIM peripheral
  * @param  Structure TIM Base configuration structure
  * @retval None
  */
void TIM_Base_SetConfig(TIM_TypeDef *TIMx, const TIM_Base_InitTypeDef *Structure)
{
 8005c98:	b580      	push	{r7, lr}
 8005c9a:	b084      	sub	sp, #16
 8005c9c:	af00      	add	r7, sp, #0
 8005c9e:	6078      	str	r0, [r7, #4]
 8005ca0:	6039      	str	r1, [r7, #0]
  uint32_t tmpcr1;
  tmpcr1 = TIMx->CR1;
 8005ca2:	687b      	ldr	r3, [r7, #4]
 8005ca4:	681b      	ldr	r3, [r3, #0]
 8005ca6:	60fb      	str	r3, [r7, #12]

  /* Set TIM Time Base Unit parameters ---------------------------------------*/
  if (IS_TIM_COUNTER_MODE_SELECT_INSTANCE(TIMx))
 8005ca8:	687b      	ldr	r3, [r7, #4]
 8005caa:	4a3b      	ldr	r2, [pc, #236]	@ (8005d98 <TIM_Base_SetConfig+0x100>)
 8005cac:	4293      	cmp	r3, r2
 8005cae:	d008      	beq.n	8005cc2 <TIM_Base_SetConfig+0x2a>
 8005cb0:	687a      	ldr	r2, [r7, #4]
 8005cb2:	2380      	movs	r3, #128	@ 0x80
 8005cb4:	05db      	lsls	r3, r3, #23
 8005cb6:	429a      	cmp	r2, r3
 8005cb8:	d003      	beq.n	8005cc2 <TIM_Base_SetConfig+0x2a>
 8005cba:	687b      	ldr	r3, [r7, #4]
 8005cbc:	4a37      	ldr	r2, [pc, #220]	@ (8005d9c <TIM_Base_SetConfig+0x104>)
 8005cbe:	4293      	cmp	r3, r2
 8005cc0:	d108      	bne.n	8005cd4 <TIM_Base_SetConfig+0x3c>
  {
    /* Select the Counter Mode */
    tmpcr1 &= ~(TIM_CR1_DIR | TIM_CR1_CMS);
 8005cc2:	68fb      	ldr	r3, [r7, #12]
 8005cc4:	2270      	movs	r2, #112	@ 0x70
 8005cc6:	4393      	bics	r3, r2
 8005cc8:	60fb      	str	r3, [r7, #12]
    tmpcr1 |= Structure->CounterMode;
 8005cca:	683b      	ldr	r3, [r7, #0]
 8005ccc:	685b      	ldr	r3, [r3, #4]
 8005cce:	68fa      	ldr	r2, [r7, #12]
 8005cd0:	4313      	orrs	r3, r2
 8005cd2:	60fb      	str	r3, [r7, #12]
  }

  if (IS_TIM_CLOCK_DIVISION_INSTANCE(TIMx))
 8005cd4:	687b      	ldr	r3, [r7, #4]
 8005cd6:	4a30      	ldr	r2, [pc, #192]	@ (8005d98 <TIM_Base_SetConfig+0x100>)
 8005cd8:	4293      	cmp	r3, r2
 8005cda:	d018      	beq.n	8005d0e <TIM_Base_SetConfig+0x76>
 8005cdc:	687a      	ldr	r2, [r7, #4]
 8005cde:	2380      	movs	r3, #128	@ 0x80
 8005ce0:	05db      	lsls	r3, r3, #23
 8005ce2:	429a      	cmp	r2, r3
 8005ce4:	d013      	beq.n	8005d0e <TIM_Base_SetConfig+0x76>
 8005ce6:	687b      	ldr	r3, [r7, #4]
 8005ce8:	4a2c      	ldr	r2, [pc, #176]	@ (8005d9c <TIM_Base_SetConfig+0x104>)
 8005cea:	4293      	cmp	r3, r2
 8005cec:	d00f      	beq.n	8005d0e <TIM_Base_SetConfig+0x76>
 8005cee:	687b      	ldr	r3, [r7, #4]
 8005cf0:	4a2b      	ldr	r2, [pc, #172]	@ (8005da0 <TIM_Base_SetConfig+0x108>)
 8005cf2:	4293      	cmp	r3, r2
 8005cf4:	d00b      	beq.n	8005d0e <TIM_Base_SetConfig+0x76>
 8005cf6:	687b      	ldr	r3, [r7, #4]
 8005cf8:	4a2a      	ldr	r2, [pc, #168]	@ (8005da4 <TIM_Base_SetConfig+0x10c>)
 8005cfa:	4293      	cmp	r3, r2
 8005cfc:	d007      	beq.n	8005d0e <TIM_Base_SetConfig+0x76>
 8005cfe:	687b      	ldr	r3, [r7, #4]
 8005d00:	4a29      	ldr	r2, [pc, #164]	@ (8005da8 <TIM_Base_SetConfig+0x110>)
 8005d02:	4293      	cmp	r3, r2
 8005d04:	d003      	beq.n	8005d0e <TIM_Base_SetConfig+0x76>
 8005d06:	687b      	ldr	r3, [r7, #4]
 8005d08:	4a28      	ldr	r2, [pc, #160]	@ (8005dac <TIM_Base_SetConfig+0x114>)
 8005d0a:	4293      	cmp	r3, r2
 8005d0c:	d108      	bne.n	8005d20 <TIM_Base_SetConfig+0x88>
  {
    /* Set the clock division */
    tmpcr1 &= ~TIM_CR1_CKD;
 8005d0e:	68fb      	ldr	r3, [r7, #12]
 8005d10:	4a27      	ldr	r2, [pc, #156]	@ (8005db0 <TIM_Base_SetConfig+0x118>)
 8005d12:	4013      	ands	r3, r2
 8005d14:	60fb      	str	r3, [r7, #12]
    tmpcr1 |= (uint32_t)Structure->ClockDivision;
 8005d16:	683b      	ldr	r3, [r7, #0]
 8005d18:	68db      	ldr	r3, [r3, #12]
 8005d1a:	68fa      	ldr	r2, [r7, #12]
 8005d1c:	4313      	orrs	r3, r2
 8005d1e:	60fb      	str	r3, [r7, #12]
  }

  /* Set the auto-reload preload */
  MODIFY_REG(tmpcr1, TIM_CR1_ARPE, Structure->AutoReloadPreload);
 8005d20:	68fb      	ldr	r3, [r7, #12]
 8005d22:	2280      	movs	r2, #128	@ 0x80
 8005d24:	4393      	bics	r3, r2
 8005d26:	001a      	movs	r2, r3
 8005d28:	683b      	ldr	r3, [r7, #0]
 8005d2a:	695b      	ldr	r3, [r3, #20]
 8005d2c:	4313      	orrs	r3, r2
 8005d2e:	60fb      	str	r3, [r7, #12]

  TIMx->CR1 = tmpcr1;
 8005d30:	687b      	ldr	r3, [r7, #4]
 8005d32:	68fa      	ldr	r2, [r7, #12]
 8005d34:	601a      	str	r2, [r3, #0]

  /* Set the Autoreload value */
  TIMx->ARR = (uint32_t)Structure->Period ;
 8005d36:	683b      	ldr	r3, [r7, #0]
 8005d38:	689a      	ldr	r2, [r3, #8]
 8005d3a:	687b      	ldr	r3, [r7, #4]
 8005d3c:	62da      	str	r2, [r3, #44]	@ 0x2c

  /* Set the Prescaler value */
  TIMx->PSC = Structure->Prescaler;
 8005d3e:	683b      	ldr	r3, [r7, #0]
 8005d40:	681a      	ldr	r2, [r3, #0]
 8005d42:	687b      	ldr	r3, [r7, #4]
 8005d44:	629a      	str	r2, [r3, #40]	@ 0x28

  if (IS_TIM_REPETITION_COUNTER_INSTANCE(TIMx))
 8005d46:	687b      	ldr	r3, [r7, #4]
 8005d48:	4a13      	ldr	r2, [pc, #76]	@ (8005d98 <TIM_Base_SetConfig+0x100>)
 8005d4a:	4293      	cmp	r3, r2
 8005d4c:	d00b      	beq.n	8005d66 <TIM_Base_SetConfig+0xce>
 8005d4e:	687b      	ldr	r3, [r7, #4]
 8005d50:	4a14      	ldr	r2, [pc, #80]	@ (8005da4 <TIM_Base_SetConfig+0x10c>)
 8005d52:	4293      	cmp	r3, r2
 8005d54:	d007      	beq.n	8005d66 <TIM_Base_SetConfig+0xce>
 8005d56:	687b      	ldr	r3, [r7, #4]
 8005d58:	4a13      	ldr	r2, [pc, #76]	@ (8005da8 <TIM_Base_SetConfig+0x110>)
 8005d5a:	4293      	cmp	r3, r2
 8005d5c:	d003      	beq.n	8005d66 <TIM_Base_SetConfig+0xce>
 8005d5e:	687b      	ldr	r3, [r7, #4]
 8005d60:	4a12      	ldr	r2, [pc, #72]	@ (8005dac <TIM_Base_SetConfig+0x114>)
 8005d62:	4293      	cmp	r3, r2
 8005d64:	d103      	bne.n	8005d6e <TIM_Base_SetConfig+0xd6>
  {
    /* Set the Repetition Counter value */
    TIMx->RCR = Structure->RepetitionCounter;
 8005d66:	683b      	ldr	r3, [r7, #0]
 8005d68:	691a      	ldr	r2, [r3, #16]
 8005d6a:	687b      	ldr	r3, [r7, #4]
 8005d6c:	631a      	str	r2, [r3, #48]	@ 0x30
  }

  /* Generate an update event to reload the Prescaler
     and the repetition counter (only for advanced timer) value immediately */
  TIMx->EGR = TIM_EGR_UG;
 8005d6e:	687b      	ldr	r3, [r7, #4]
 8005d70:	2201      	movs	r2, #1
 8005d72:	615a      	str	r2, [r3, #20]

  /* Check if the update flag is set after the Update Generation, if so clear the UIF flag */
  if (HAL_IS_BIT_SET(TIMx->SR, TIM_FLAG_UPDATE))
 8005d74:	687b      	ldr	r3, [r7, #4]
 8005d76:	691b      	ldr	r3, [r3, #16]
 8005d78:	2201      	movs	r2, #1
 8005d7a:	4013      	ands	r3, r2
 8005d7c:	2b01      	cmp	r3, #1
 8005d7e:	d106      	bne.n	8005d8e <TIM_Base_SetConfig+0xf6>
  {
    /* Clear the update flag */
    CLEAR_BIT(TIMx->SR, TIM_FLAG_UPDATE);
 8005d80:	687b      	ldr	r3, [r7, #4]
 8005d82:	691b      	ldr	r3, [r3, #16]
 8005d84:	2201      	movs	r2, #1
 8005d86:	4393      	bics	r3, r2
 8005d88:	001a      	movs	r2, r3
 8005d8a:	687b      	ldr	r3, [r7, #4]
 8005d8c:	611a      	str	r2, [r3, #16]
  }
}
 8005d8e:	46c0      	nop			@ (mov r8, r8)
 8005d90:	46bd      	mov	sp, r7
 8005d92:	b004      	add	sp, #16
 8005d94:	bd80      	pop	{r7, pc}
 8005d96:	46c0      	nop			@ (mov r8, r8)
 8005d98:	40012c00 	.word	0x40012c00
 8005d9c:	40000400 	.word	0x40000400
 8005da0:	40002000 	.word	0x40002000
 8005da4:	40014000 	.word	0x40014000
 8005da8:	40014400 	.word	0x40014400
 8005dac:	40014800 	.word	0x40014800
 8005db0:	fffffcff 	.word	0xfffffcff

08005db4 <TIM_OC1_SetConfig>:
  * @param  TIMx to select the TIM peripheral
  * @param  OC_Config The output configuration structure
  * @retval None
  */
static void TIM_OC1_SetConfig(TIM_TypeDef *TIMx, const TIM_OC_InitTypeDef *OC_Config)
{
 8005db4:	b580      	push	{r7, lr}
 8005db6:	b086      	sub	sp, #24
 8005db8:	af00      	add	r7, sp, #0
 8005dba:	6078      	str	r0, [r7, #4]
 8005dbc:	6039      	str	r1, [r7, #0]
  uint32_t tmpccmrx;
  uint32_t tmpccer;
  uint32_t tmpcr2;

  /* Get the TIMx CCER register value */
  tmpccer = TIMx->CCER;
 8005dbe:	687b      	ldr	r3, [r7, #4]
 8005dc0:	6a1b      	ldr	r3, [r3, #32]
 8005dc2:	617b      	str	r3, [r7, #20]

  /* Disable the Channel 1: Reset the CC1E Bit */
  TIMx->CCER &= ~TIM_CCER_CC1E;
 8005dc4:	687b      	ldr	r3, [r7, #4]
 8005dc6:	6a1b      	ldr	r3, [r3, #32]
 8005dc8:	2201      	movs	r2, #1
 8005dca:	4393      	bics	r3, r2
 8005dcc:	001a      	movs	r2, r3
 8005dce:	687b      	ldr	r3, [r7, #4]
 8005dd0:	621a      	str	r2, [r3, #32]

  /* Get the TIMx CR2 register value */
  tmpcr2 =  TIMx->CR2;
 8005dd2:	687b      	ldr	r3, [r7, #4]
 8005dd4:	685b      	ldr	r3, [r3, #4]
 8005dd6:	613b      	str	r3, [r7, #16]

  /* Get the TIMx CCMR1 register value */
  tmpccmrx = TIMx->CCMR1;
 8005dd8:	687b      	ldr	r3, [r7, #4]
 8005dda:	699b      	ldr	r3, [r3, #24]
 8005ddc:	60fb      	str	r3, [r7, #12]

  /* Reset the Output Compare Mode Bits */
  tmpccmrx &= ~TIM_CCMR1_OC1M;
 8005dde:	68fb      	ldr	r3, [r7, #12]
 8005de0:	4a32      	ldr	r2, [pc, #200]	@ (8005eac <TIM_OC1_SetConfig+0xf8>)
 8005de2:	4013      	ands	r3, r2
 8005de4:	60fb      	str	r3, [r7, #12]
  tmpccmrx &= ~TIM_CCMR1_CC1S;
 8005de6:	68fb      	ldr	r3, [r7, #12]
 8005de8:	2203      	movs	r2, #3
 8005dea:	4393      	bics	r3, r2
 8005dec:	60fb      	str	r3, [r7, #12]
  /* Select the Output Compare Mode */
  tmpccmrx |= OC_Config->OCMode;
 8005dee:	683b      	ldr	r3, [r7, #0]
 8005df0:	681b      	ldr	r3, [r3, #0]
 8005df2:	68fa      	ldr	r2, [r7, #12]
 8005df4:	4313      	orrs	r3, r2
 8005df6:	60fb      	str	r3, [r7, #12]

  /* Reset the Output Polarity level */
  tmpccer &= ~TIM_CCER_CC1P;
 8005df8:	697b      	ldr	r3, [r7, #20]
 8005dfa:	2202      	movs	r2, #2
 8005dfc:	4393      	bics	r3, r2
 8005dfe:	617b      	str	r3, [r7, #20]
  /* Set the Output Compare Polarity */
  tmpccer |= OC_Config->OCPolarity;
 8005e00:	683b      	ldr	r3, [r7, #0]
 8005e02:	689b      	ldr	r3, [r3, #8]
 8005e04:	697a      	ldr	r2, [r7, #20]
 8005e06:	4313      	orrs	r3, r2
 8005e08:	617b      	str	r3, [r7, #20]

  if (IS_TIM_CCXN_INSTANCE(TIMx, TIM_CHANNEL_1))
 8005e0a:	687b      	ldr	r3, [r7, #4]
 8005e0c:	4a28      	ldr	r2, [pc, #160]	@ (8005eb0 <TIM_OC1_SetConfig+0xfc>)
 8005e0e:	4293      	cmp	r3, r2
 8005e10:	d00b      	beq.n	8005e2a <TIM_OC1_SetConfig+0x76>
 8005e12:	687b      	ldr	r3, [r7, #4]
 8005e14:	4a27      	ldr	r2, [pc, #156]	@ (8005eb4 <TIM_OC1_SetConfig+0x100>)
 8005e16:	4293      	cmp	r3, r2
 8005e18:	d007      	beq.n	8005e2a <TIM_OC1_SetConfig+0x76>
 8005e1a:	687b      	ldr	r3, [r7, #4]
 8005e1c:	4a26      	ldr	r2, [pc, #152]	@ (8005eb8 <TIM_OC1_SetConfig+0x104>)
 8005e1e:	4293      	cmp	r3, r2
 8005e20:	d003      	beq.n	8005e2a <TIM_OC1_SetConfig+0x76>
 8005e22:	687b      	ldr	r3, [r7, #4]
 8005e24:	4a25      	ldr	r2, [pc, #148]	@ (8005ebc <TIM_OC1_SetConfig+0x108>)
 8005e26:	4293      	cmp	r3, r2
 8005e28:	d10c      	bne.n	8005e44 <TIM_OC1_SetConfig+0x90>
  {
    /* Check parameters */
    assert_param(IS_TIM_OCN_POLARITY(OC_Config->OCNPolarity));

    /* Reset the Output N Polarity level */
    tmpccer &= ~TIM_CCER_CC1NP;
 8005e2a:	697b      	ldr	r3, [r7, #20]
 8005e2c:	2208      	movs	r2, #8
 8005e2e:	4393      	bics	r3, r2
 8005e30:	617b      	str	r3, [r7, #20]
    /* Set the Output N Polarity */
    tmpccer |= OC_Config->OCNPolarity;
 8005e32:	683b      	ldr	r3, [r7, #0]
 8005e34:	68db      	ldr	r3, [r3, #12]
 8005e36:	697a      	ldr	r2, [r7, #20]
 8005e38:	4313      	orrs	r3, r2
 8005e3a:	617b      	str	r3, [r7, #20]
    /* Reset the Output N State */
    tmpccer &= ~TIM_CCER_CC1NE;
 8005e3c:	697b      	ldr	r3, [r7, #20]
 8005e3e:	2204      	movs	r2, #4
 8005e40:	4393      	bics	r3, r2
 8005e42:	617b      	str	r3, [r7, #20]
  }

  if (IS_TIM_BREAK_INSTANCE(TIMx))
 8005e44:	687b      	ldr	r3, [r7, #4]
 8005e46:	4a1a      	ldr	r2, [pc, #104]	@ (8005eb0 <TIM_OC1_SetConfig+0xfc>)
 8005e48:	4293      	cmp	r3, r2
 8005e4a:	d00b      	beq.n	8005e64 <TIM_OC1_SetConfig+0xb0>
 8005e4c:	687b      	ldr	r3, [r7, #4]
 8005e4e:	4a19      	ldr	r2, [pc, #100]	@ (8005eb4 <TIM_OC1_SetConfig+0x100>)
 8005e50:	4293      	cmp	r3, r2
 8005e52:	d007      	beq.n	8005e64 <TIM_OC1_SetConfig+0xb0>
 8005e54:	687b      	ldr	r3, [r7, #4]
 8005e56:	4a18      	ldr	r2, [pc, #96]	@ (8005eb8 <TIM_OC1_SetConfig+0x104>)
 8005e58:	4293      	cmp	r3, r2
 8005e5a:	d003      	beq.n	8005e64 <TIM_OC1_SetConfig+0xb0>
 8005e5c:	687b      	ldr	r3, [r7, #4]
 8005e5e:	4a17      	ldr	r2, [pc, #92]	@ (8005ebc <TIM_OC1_SetConfig+0x108>)
 8005e60:	4293      	cmp	r3, r2
 8005e62:	d111      	bne.n	8005e88 <TIM_OC1_SetConfig+0xd4>
    /* Check parameters */
    assert_param(IS_TIM_OCNIDLE_STATE(OC_Config->OCNIdleState));
    assert_param(IS_TIM_OCIDLE_STATE(OC_Config->OCIdleState));

    /* Reset the Output Compare and Output Compare N IDLE State */
    tmpcr2 &= ~TIM_CR2_OIS1;
 8005e64:	693b      	ldr	r3, [r7, #16]
 8005e66:	4a16      	ldr	r2, [pc, #88]	@ (8005ec0 <TIM_OC1_SetConfig+0x10c>)
 8005e68:	4013      	ands	r3, r2
 8005e6a:	613b      	str	r3, [r7, #16]
    tmpcr2 &= ~TIM_CR2_OIS1N;
 8005e6c:	693b      	ldr	r3, [r7, #16]
 8005e6e:	4a15      	ldr	r2, [pc, #84]	@ (8005ec4 <TIM_OC1_SetConfig+0x110>)
 8005e70:	4013      	ands	r3, r2
 8005e72:	613b      	str	r3, [r7, #16]
    /* Set the Output Idle state */
    tmpcr2 |= OC_Config->OCIdleState;
 8005e74:	683b      	ldr	r3, [r7, #0]
 8005e76:	695b      	ldr	r3, [r3, #20]
 8005e78:	693a      	ldr	r2, [r7, #16]
 8005e7a:	4313      	orrs	r3, r2
 8005e7c:	613b      	str	r3, [r7, #16]
    /* Set the Output N Idle state */
    tmpcr2 |= OC_Config->OCNIdleState;
 8005e7e:	683b      	ldr	r3, [r7, #0]
 8005e80:	699b      	ldr	r3, [r3, #24]
 8005e82:	693a      	ldr	r2, [r7, #16]
 8005e84:	4313      	orrs	r3, r2
 8005e86:	613b      	str	r3, [r7, #16]
  }

  /* Write to TIMx CR2 */
  TIMx->CR2 = tmpcr2;
 8005e88:	687b      	ldr	r3, [r7, #4]
 8005e8a:	693a      	ldr	r2, [r7, #16]
 8005e8c:	605a      	str	r2, [r3, #4]

  /* Write to TIMx CCMR1 */
  TIMx->CCMR1 = tmpccmrx;
 8005e8e:	687b      	ldr	r3, [r7, #4]
 8005e90:	68fa      	ldr	r2, [r7, #12]
 8005e92:	619a      	str	r2, [r3, #24]

  /* Set the Capture Compare Register value */
  TIMx->CCR1 = OC_Config->Pulse;
 8005e94:	683b      	ldr	r3, [r7, #0]
 8005e96:	685a      	ldr	r2, [r3, #4]
 8005e98:	687b      	ldr	r3, [r7, #4]
 8005e9a:	635a      	str	r2, [r3, #52]	@ 0x34

  /* Write to TIMx CCER */
  TIMx->CCER = tmpccer;
 8005e9c:	687b      	ldr	r3, [r7, #4]
 8005e9e:	697a      	ldr	r2, [r7, #20]
 8005ea0:	621a      	str	r2, [r3, #32]
}
 8005ea2:	46c0      	nop			@ (mov r8, r8)
 8005ea4:	46bd      	mov	sp, r7
 8005ea6:	b006      	add	sp, #24
 8005ea8:	bd80      	pop	{r7, pc}
 8005eaa:	46c0      	nop			@ (mov r8, r8)
 8005eac:	fffeff8f 	.word	0xfffeff8f
 8005eb0:	40012c00 	.word	0x40012c00
 8005eb4:	40014000 	.word	0x40014000
 8005eb8:	40014400 	.word	0x40014400
 8005ebc:	40014800 	.word	0x40014800
 8005ec0:	fffffeff 	.word	0xfffffeff
 8005ec4:	fffffdff 	.word	0xfffffdff

08005ec8 <TIM_OC2_SetConfig>:
  * @param  TIMx to select the TIM peripheral
  * @param  OC_Config The output configuration structure
  * @retval None
  */
void TIM_OC2_SetConfig(TIM_TypeDef *TIMx, const TIM_OC_InitTypeDef *OC_Config)
{
 8005ec8:	b580      	push	{r7, lr}
 8005eca:	b086      	sub	sp, #24
 8005ecc:	af00      	add	r7, sp, #0
 8005ece:	6078      	str	r0, [r7, #4]
 8005ed0:	6039      	str	r1, [r7, #0]
  uint32_t tmpccmrx;
  uint32_t tmpccer;
  uint32_t tmpcr2;

  /* Get the TIMx CCER register value */
  tmpccer = TIMx->CCER;
 8005ed2:	687b      	ldr	r3, [r7, #4]
 8005ed4:	6a1b      	ldr	r3, [r3, #32]
 8005ed6:	617b      	str	r3, [r7, #20]

  /* Disable the Channel 2: Reset the CC2E Bit */
  TIMx->CCER &= ~TIM_CCER_CC2E;
 8005ed8:	687b      	ldr	r3, [r7, #4]
 8005eda:	6a1b      	ldr	r3, [r3, #32]
 8005edc:	2210      	movs	r2, #16
 8005ede:	4393      	bics	r3, r2
 8005ee0:	001a      	movs	r2, r3
 8005ee2:	687b      	ldr	r3, [r7, #4]
 8005ee4:	621a      	str	r2, [r3, #32]

  /* Get the TIMx CR2 register value */
  tmpcr2 =  TIMx->CR2;
 8005ee6:	687b      	ldr	r3, [r7, #4]
 8005ee8:	685b      	ldr	r3, [r3, #4]
 8005eea:	613b      	str	r3, [r7, #16]

  /* Get the TIMx CCMR1 register value */
  tmpccmrx = TIMx->CCMR1;
 8005eec:	687b      	ldr	r3, [r7, #4]
 8005eee:	699b      	ldr	r3, [r3, #24]
 8005ef0:	60fb      	str	r3, [r7, #12]

  /* Reset the Output Compare mode and Capture/Compare selection Bits */
  tmpccmrx &= ~TIM_CCMR1_OC2M;
 8005ef2:	68fb      	ldr	r3, [r7, #12]
 8005ef4:	4a2e      	ldr	r2, [pc, #184]	@ (8005fb0 <TIM_OC2_SetConfig+0xe8>)
 8005ef6:	4013      	ands	r3, r2
 8005ef8:	60fb      	str	r3, [r7, #12]
  tmpccmrx &= ~TIM_CCMR1_CC2S;
 8005efa:	68fb      	ldr	r3, [r7, #12]
 8005efc:	4a2d      	ldr	r2, [pc, #180]	@ (8005fb4 <TIM_OC2_SetConfig+0xec>)
 8005efe:	4013      	ands	r3, r2
 8005f00:	60fb      	str	r3, [r7, #12]

  /* Select the Output Compare Mode */
  tmpccmrx |= (OC_Config->OCMode << 8U);
 8005f02:	683b      	ldr	r3, [r7, #0]
 8005f04:	681b      	ldr	r3, [r3, #0]
 8005f06:	021b      	lsls	r3, r3, #8
 8005f08:	68fa      	ldr	r2, [r7, #12]
 8005f0a:	4313      	orrs	r3, r2
 8005f0c:	60fb      	str	r3, [r7, #12]

  /* Reset the Output Polarity level */
  tmpccer &= ~TIM_CCER_CC2P;
 8005f0e:	697b      	ldr	r3, [r7, #20]
 8005f10:	2220      	movs	r2, #32
 8005f12:	4393      	bics	r3, r2
 8005f14:	617b      	str	r3, [r7, #20]
  /* Set the Output Compare Polarity */
  tmpccer |= (OC_Config->OCPolarity << 4U);
 8005f16:	683b      	ldr	r3, [r7, #0]
 8005f18:	689b      	ldr	r3, [r3, #8]
 8005f1a:	011b      	lsls	r3, r3, #4
 8005f1c:	697a      	ldr	r2, [r7, #20]
 8005f1e:	4313      	orrs	r3, r2
 8005f20:	617b      	str	r3, [r7, #20]

  if (IS_TIM_CCXN_INSTANCE(TIMx, TIM_CHANNEL_2))
 8005f22:	687b      	ldr	r3, [r7, #4]
 8005f24:	4a24      	ldr	r2, [pc, #144]	@ (8005fb8 <TIM_OC2_SetConfig+0xf0>)
 8005f26:	4293      	cmp	r3, r2
 8005f28:	d10d      	bne.n	8005f46 <TIM_OC2_SetConfig+0x7e>
  {
    assert_param(IS_TIM_OCN_POLARITY(OC_Config->OCNPolarity));

    /* Reset the Output N Polarity level */
    tmpccer &= ~TIM_CCER_CC2NP;
 8005f2a:	697b      	ldr	r3, [r7, #20]
 8005f2c:	2280      	movs	r2, #128	@ 0x80
 8005f2e:	4393      	bics	r3, r2
 8005f30:	617b      	str	r3, [r7, #20]
    /* Set the Output N Polarity */
    tmpccer |= (OC_Config->OCNPolarity << 4U);
 8005f32:	683b      	ldr	r3, [r7, #0]
 8005f34:	68db      	ldr	r3, [r3, #12]
 8005f36:	011b      	lsls	r3, r3, #4
 8005f38:	697a      	ldr	r2, [r7, #20]
 8005f3a:	4313      	orrs	r3, r2
 8005f3c:	617b      	str	r3, [r7, #20]
    /* Reset the Output N State */
    tmpccer &= ~TIM_CCER_CC2NE;
 8005f3e:	697b      	ldr	r3, [r7, #20]
 8005f40:	2240      	movs	r2, #64	@ 0x40
 8005f42:	4393      	bics	r3, r2
 8005f44:	617b      	str	r3, [r7, #20]
  }

  if (IS_TIM_BREAK_INSTANCE(TIMx))
 8005f46:	687b      	ldr	r3, [r7, #4]
 8005f48:	4a1b      	ldr	r2, [pc, #108]	@ (8005fb8 <TIM_OC2_SetConfig+0xf0>)
 8005f4a:	4293      	cmp	r3, r2
 8005f4c:	d00b      	beq.n	8005f66 <TIM_OC2_SetConfig+0x9e>
 8005f4e:	687b      	ldr	r3, [r7, #4]
 8005f50:	4a1a      	ldr	r2, [pc, #104]	@ (8005fbc <TIM_OC2_SetConfig+0xf4>)
 8005f52:	4293      	cmp	r3, r2
 8005f54:	d007      	beq.n	8005f66 <TIM_OC2_SetConfig+0x9e>
 8005f56:	687b      	ldr	r3, [r7, #4]
 8005f58:	4a19      	ldr	r2, [pc, #100]	@ (8005fc0 <TIM_OC2_SetConfig+0xf8>)
 8005f5a:	4293      	cmp	r3, r2
 8005f5c:	d003      	beq.n	8005f66 <TIM_OC2_SetConfig+0x9e>
 8005f5e:	687b      	ldr	r3, [r7, #4]
 8005f60:	4a18      	ldr	r2, [pc, #96]	@ (8005fc4 <TIM_OC2_SetConfig+0xfc>)
 8005f62:	4293      	cmp	r3, r2
 8005f64:	d113      	bne.n	8005f8e <TIM_OC2_SetConfig+0xc6>
    /* Check parameters */
    assert_param(IS_TIM_OCNIDLE_STATE(OC_Config->OCNIdleState));
    assert_param(IS_TIM_OCIDLE_STATE(OC_Config->OCIdleState));

    /* Reset the Output Compare and Output Compare N IDLE State */
    tmpcr2 &= ~TIM_CR2_OIS2;
 8005f66:	693b      	ldr	r3, [r7, #16]
 8005f68:	4a17      	ldr	r2, [pc, #92]	@ (8005fc8 <TIM_OC2_SetConfig+0x100>)
 8005f6a:	4013      	ands	r3, r2
 8005f6c:	613b      	str	r3, [r7, #16]
    tmpcr2 &= ~TIM_CR2_OIS2N;
 8005f6e:	693b      	ldr	r3, [r7, #16]
 8005f70:	4a16      	ldr	r2, [pc, #88]	@ (8005fcc <TIM_OC2_SetConfig+0x104>)
 8005f72:	4013      	ands	r3, r2
 8005f74:	613b      	str	r3, [r7, #16]
    /* Set the Output Idle state */
    tmpcr2 |= (OC_Config->OCIdleState << 2U);
 8005f76:	683b      	ldr	r3, [r7, #0]
 8005f78:	695b      	ldr	r3, [r3, #20]
 8005f7a:	009b      	lsls	r3, r3, #2
 8005f7c:	693a      	ldr	r2, [r7, #16]
 8005f7e:	4313      	orrs	r3, r2
 8005f80:	613b      	str	r3, [r7, #16]
    /* Set the Output N Idle state */
    tmpcr2 |= (OC_Config->OCNIdleState << 2U);
 8005f82:	683b      	ldr	r3, [r7, #0]
 8005f84:	699b      	ldr	r3, [r3, #24]
 8005f86:	009b      	lsls	r3, r3, #2
 8005f88:	693a      	ldr	r2, [r7, #16]
 8005f8a:	4313      	orrs	r3, r2
 8005f8c:	613b      	str	r3, [r7, #16]
  }

  /* Write to TIMx CR2 */
  TIMx->CR2 = tmpcr2;
 8005f8e:	687b      	ldr	r3, [r7, #4]
 8005f90:	693a      	ldr	r2, [r7, #16]
 8005f92:	605a      	str	r2, [r3, #4]

  /* Write to TIMx CCMR1 */
  TIMx->CCMR1 = tmpccmrx;
 8005f94:	687b      	ldr	r3, [r7, #4]
 8005f96:	68fa      	ldr	r2, [r7, #12]
 8005f98:	619a      	str	r2, [r3, #24]

  /* Set the Capture Compare Register value */
  TIMx->CCR2 = OC_Config->Pulse;
 8005f9a:	683b      	ldr	r3, [r7, #0]
 8005f9c:	685a      	ldr	r2, [r3, #4]
 8005f9e:	687b      	ldr	r3, [r7, #4]
 8005fa0:	639a      	str	r2, [r3, #56]	@ 0x38

  /* Write to TIMx CCER */
  TIMx->CCER = tmpccer;
 8005fa2:	687b      	ldr	r3, [r7, #4]
 8005fa4:	697a      	ldr	r2, [r7, #20]
 8005fa6:	621a      	str	r2, [r3, #32]
}
 8005fa8:	46c0      	nop			@ (mov r8, r8)
 8005faa:	46bd      	mov	sp, r7
 8005fac:	b006      	add	sp, #24
 8005fae:	bd80      	pop	{r7, pc}
 8005fb0:	feff8fff 	.word	0xfeff8fff
 8005fb4:	fffffcff 	.word	0xfffffcff
 8005fb8:	40012c00 	.word	0x40012c00
 8005fbc:	40014000 	.word	0x40014000
 8005fc0:	40014400 	.word	0x40014400
 8005fc4:	40014800 	.word	0x40014800
 8005fc8:	fffffbff 	.word	0xfffffbff
 8005fcc:	fffff7ff 	.word	0xfffff7ff

08005fd0 <TIM_OC3_SetConfig>:
  * @param  TIMx to select the TIM peripheral
  * @param  OC_Config The output configuration structure
  * @retval None
  */
static void TIM_OC3_SetConfig(TIM_TypeDef *TIMx, const TIM_OC_InitTypeDef *OC_Config)
{
 8005fd0:	b580      	push	{r7, lr}
 8005fd2:	b086      	sub	sp, #24
 8005fd4:	af00      	add	r7, sp, #0
 8005fd6:	6078      	str	r0, [r7, #4]
 8005fd8:	6039      	str	r1, [r7, #0]
  uint32_t tmpccmrx;
  uint32_t tmpccer;
  uint32_t tmpcr2;

  /* Get the TIMx CCER register value */
  tmpccer = TIMx->CCER;
 8005fda:	687b      	ldr	r3, [r7, #4]
 8005fdc:	6a1b      	ldr	r3, [r3, #32]
 8005fde:	617b      	str	r3, [r7, #20]

  /* Disable the Channel 3: Reset the CC2E Bit */
  TIMx->CCER &= ~TIM_CCER_CC3E;
 8005fe0:	687b      	ldr	r3, [r7, #4]
 8005fe2:	6a1b      	ldr	r3, [r3, #32]
 8005fe4:	4a33      	ldr	r2, [pc, #204]	@ (80060b4 <TIM_OC3_SetConfig+0xe4>)
 8005fe6:	401a      	ands	r2, r3
 8005fe8:	687b      	ldr	r3, [r7, #4]
 8005fea:	621a      	str	r2, [r3, #32]

  /* Get the TIMx CR2 register value */
  tmpcr2 =  TIMx->CR2;
 8005fec:	687b      	ldr	r3, [r7, #4]
 8005fee:	685b      	ldr	r3, [r3, #4]
 8005ff0:	613b      	str	r3, [r7, #16]

  /* Get the TIMx CCMR2 register value */
  tmpccmrx = TIMx->CCMR2;
 8005ff2:	687b      	ldr	r3, [r7, #4]
 8005ff4:	69db      	ldr	r3, [r3, #28]
 8005ff6:	60fb      	str	r3, [r7, #12]

  /* Reset the Output Compare mode and Capture/Compare selection Bits */
  tmpccmrx &= ~TIM_CCMR2_OC3M;
 8005ff8:	68fb      	ldr	r3, [r7, #12]
 8005ffa:	4a2f      	ldr	r2, [pc, #188]	@ (80060b8 <TIM_OC3_SetConfig+0xe8>)
 8005ffc:	4013      	ands	r3, r2
 8005ffe:	60fb      	str	r3, [r7, #12]
  tmpccmrx &= ~TIM_CCMR2_CC3S;
 8006000:	68fb      	ldr	r3, [r7, #12]
 8006002:	2203      	movs	r2, #3
 8006004:	4393      	bics	r3, r2
 8006006:	60fb      	str	r3, [r7, #12]
  /* Select the Output Compare Mode */
  tmpccmrx |= OC_Config->OCMode;
 8006008:	683b      	ldr	r3, [r7, #0]
 800600a:	681b      	ldr	r3, [r3, #0]
 800600c:	68fa      	ldr	r2, [r7, #12]
 800600e:	4313      	orrs	r3, r2
 8006010:	60fb      	str	r3, [r7, #12]

  /* Reset the Output Polarity level */
  tmpccer &= ~TIM_CCER_CC3P;
 8006012:	697b      	ldr	r3, [r7, #20]
 8006014:	4a29      	ldr	r2, [pc, #164]	@ (80060bc <TIM_OC3_SetConfig+0xec>)
 8006016:	4013      	ands	r3, r2
 8006018:	617b      	str	r3, [r7, #20]
  /* Set the Output Compare Polarity */
  tmpccer |= (OC_Config->OCPolarity << 8U);
 800601a:	683b      	ldr	r3, [r7, #0]
 800601c:	689b      	ldr	r3, [r3, #8]
 800601e:	021b      	lsls	r3, r3, #8
 8006020:	697a      	ldr	r2, [r7, #20]
 8006022:	4313      	orrs	r3, r2
 8006024:	617b      	str	r3, [r7, #20]

  if (IS_TIM_CCXN_INSTANCE(TIMx, TIM_CHANNEL_3))
 8006026:	687b      	ldr	r3, [r7, #4]
 8006028:	4a25      	ldr	r2, [pc, #148]	@ (80060c0 <TIM_OC3_SetConfig+0xf0>)
 800602a:	4293      	cmp	r3, r2
 800602c:	d10d      	bne.n	800604a <TIM_OC3_SetConfig+0x7a>
  {
    assert_param(IS_TIM_OCN_POLARITY(OC_Config->OCNPolarity));

    /* Reset the Output N Polarity level */
    tmpccer &= ~TIM_CCER_CC3NP;
 800602e:	697b      	ldr	r3, [r7, #20]
 8006030:	4a24      	ldr	r2, [pc, #144]	@ (80060c4 <TIM_OC3_SetConfig+0xf4>)
 8006032:	4013      	ands	r3, r2
 8006034:	617b      	str	r3, [r7, #20]
    /* Set the Output N Polarity */
    tmpccer |= (OC_Config->OCNPolarity << 8U);
 8006036:	683b      	ldr	r3, [r7, #0]
 8006038:	68db      	ldr	r3, [r3, #12]
 800603a:	021b      	lsls	r3, r3, #8
 800603c:	697a      	ldr	r2, [r7, #20]
 800603e:	4313      	orrs	r3, r2
 8006040:	617b      	str	r3, [r7, #20]
    /* Reset the Output N State */
    tmpccer &= ~TIM_CCER_CC3NE;
 8006042:	697b      	ldr	r3, [r7, #20]
 8006044:	4a20      	ldr	r2, [pc, #128]	@ (80060c8 <TIM_OC3_SetConfig+0xf8>)
 8006046:	4013      	ands	r3, r2
 8006048:	617b      	str	r3, [r7, #20]
  }

  if (IS_TIM_BREAK_INSTANCE(TIMx))
 800604a:	687b      	ldr	r3, [r7, #4]
 800604c:	4a1c      	ldr	r2, [pc, #112]	@ (80060c0 <TIM_OC3_SetConfig+0xf0>)
 800604e:	4293      	cmp	r3, r2
 8006050:	d00b      	beq.n	800606a <TIM_OC3_SetConfig+0x9a>
 8006052:	687b      	ldr	r3, [r7, #4]
 8006054:	4a1d      	ldr	r2, [pc, #116]	@ (80060cc <TIM_OC3_SetConfig+0xfc>)
 8006056:	4293      	cmp	r3, r2
 8006058:	d007      	beq.n	800606a <TIM_OC3_SetConfig+0x9a>
 800605a:	687b      	ldr	r3, [r7, #4]
 800605c:	4a1c      	ldr	r2, [pc, #112]	@ (80060d0 <TIM_OC3_SetConfig+0x100>)
 800605e:	4293      	cmp	r3, r2
 8006060:	d003      	beq.n	800606a <TIM_OC3_SetConfig+0x9a>
 8006062:	687b      	ldr	r3, [r7, #4]
 8006064:	4a1b      	ldr	r2, [pc, #108]	@ (80060d4 <TIM_OC3_SetConfig+0x104>)
 8006066:	4293      	cmp	r3, r2
 8006068:	d113      	bne.n	8006092 <TIM_OC3_SetConfig+0xc2>
    /* Check parameters */
    assert_param(IS_TIM_OCNIDLE_STATE(OC_Config->OCNIdleState));
    assert_param(IS_TIM_OCIDLE_STATE(OC_Config->OCIdleState));

    /* Reset the Output Compare and Output Compare N IDLE State */
    tmpcr2 &= ~TIM_CR2_OIS3;
 800606a:	693b      	ldr	r3, [r7, #16]
 800606c:	4a1a      	ldr	r2, [pc, #104]	@ (80060d8 <TIM_OC3_SetConfig+0x108>)
 800606e:	4013      	ands	r3, r2
 8006070:	613b      	str	r3, [r7, #16]
    tmpcr2 &= ~TIM_CR2_OIS3N;
 8006072:	693b      	ldr	r3, [r7, #16]
 8006074:	4a19      	ldr	r2, [pc, #100]	@ (80060dc <TIM_OC3_SetConfig+0x10c>)
 8006076:	4013      	ands	r3, r2
 8006078:	613b      	str	r3, [r7, #16]
    /* Set the Output Idle state */
    tmpcr2 |= (OC_Config->OCIdleState << 4U);
 800607a:	683b      	ldr	r3, [r7, #0]
 800607c:	695b      	ldr	r3, [r3, #20]
 800607e:	011b      	lsls	r3, r3, #4
 8006080:	693a      	ldr	r2, [r7, #16]
 8006082:	4313      	orrs	r3, r2
 8006084:	613b      	str	r3, [r7, #16]
    /* Set the Output N Idle state */
    tmpcr2 |= (OC_Config->OCNIdleState << 4U);
 8006086:	683b      	ldr	r3, [r7, #0]
 8006088:	699b      	ldr	r3, [r3, #24]
 800608a:	011b      	lsls	r3, r3, #4
 800608c:	693a      	ldr	r2, [r7, #16]
 800608e:	4313      	orrs	r3, r2
 8006090:	613b      	str	r3, [r7, #16]
  }

  /* Write to TIMx CR2 */
  TIMx->CR2 = tmpcr2;
 8006092:	687b      	ldr	r3, [r7, #4]
 8006094:	693a      	ldr	r2, [r7, #16]
 8006096:	605a      	str	r2, [r3, #4]

  /* Write to TIMx CCMR2 */
  TIMx->CCMR2 = tmpccmrx;
 8006098:	687b      	ldr	r3, [r7, #4]
 800609a:	68fa      	ldr	r2, [r7, #12]
 800609c:	61da      	str	r2, [r3, #28]

  /* Set the Capture Compare Register value */
  TIMx->CCR3 = OC_Config->Pulse;
 800609e:	683b      	ldr	r3, [r7, #0]
 80060a0:	685a      	ldr	r2, [r3, #4]
 80060a2:	687b      	ldr	r3, [r7, #4]
 80060a4:	63da      	str	r2, [r3, #60]	@ 0x3c

  /* Write to TIMx CCER */
  TIMx->CCER = tmpccer;
 80060a6:	687b      	ldr	r3, [r7, #4]
 80060a8:	697a      	ldr	r2, [r7, #20]
 80060aa:	621a      	str	r2, [r3, #32]
}
 80060ac:	46c0      	nop			@ (mov r8, r8)
 80060ae:	46bd      	mov	sp, r7
 80060b0:	b006      	add	sp, #24
 80060b2:	bd80      	pop	{r7, pc}
 80060b4:	fffffeff 	.word	0xfffffeff
 80060b8:	fffeff8f 	.word	0xfffeff8f
 80060bc:	fffffdff 	.word	0xfffffdff
 80060c0:	40012c00 	.word	0x40012c00
 80060c4:	fffff7ff 	.word	0xfffff7ff
 80060c8:	fffffbff 	.word	0xfffffbff
 80060cc:	40014000 	.word	0x40014000
 80060d0:	40014400 	.word	0x40014400
 80060d4:	40014800 	.word	0x40014800
 80060d8:	ffffefff 	.word	0xffffefff
 80060dc:	ffffdfff 	.word	0xffffdfff

080060e0 <TIM_OC4_SetConfig>:
  * @param  TIMx to select the TIM peripheral
  * @param  OC_Config The output configuration structure
  * @retval None
  */
static void TIM_OC4_SetConfig(TIM_TypeDef *TIMx, const TIM_OC_InitTypeDef *OC_Config)
{
 80060e0:	b580      	push	{r7, lr}
 80060e2:	b086      	sub	sp, #24
 80060e4:	af00      	add	r7, sp, #0
 80060e6:	6078      	str	r0, [r7, #4]
 80060e8:	6039      	str	r1, [r7, #0]
  uint32_t tmpccmrx;
  uint32_t tmpccer;
  uint32_t tmpcr2;

  /* Get the TIMx CCER register value */
  tmpccer = TIMx->CCER;
 80060ea:	687b      	ldr	r3, [r7, #4]
 80060ec:	6a1b      	ldr	r3, [r3, #32]
 80060ee:	613b      	str	r3, [r7, #16]

  /* Disable the Channel 4: Reset the CC4E Bit */
  TIMx->CCER &= ~TIM_CCER_CC4E;
 80060f0:	687b      	ldr	r3, [r7, #4]
 80060f2:	6a1b      	ldr	r3, [r3, #32]
 80060f4:	4a26      	ldr	r2, [pc, #152]	@ (8006190 <TIM_OC4_SetConfig+0xb0>)
 80060f6:	401a      	ands	r2, r3
 80060f8:	687b      	ldr	r3, [r7, #4]
 80060fa:	621a      	str	r2, [r3, #32]

  /* Get the TIMx CR2 register value */
  tmpcr2 =  TIMx->CR2;
 80060fc:	687b      	ldr	r3, [r7, #4]
 80060fe:	685b      	ldr	r3, [r3, #4]
 8006100:	617b      	str	r3, [r7, #20]

  /* Get the TIMx CCMR2 register value */
  tmpccmrx = TIMx->CCMR2;
 8006102:	687b      	ldr	r3, [r7, #4]
 8006104:	69db      	ldr	r3, [r3, #28]
 8006106:	60fb      	str	r3, [r7, #12]

  /* Reset the Output Compare mode and Capture/Compare selection Bits */
  tmpccmrx &= ~TIM_CCMR2_OC4M;
 8006108:	68fb      	ldr	r3, [r7, #12]
 800610a:	4a22      	ldr	r2, [pc, #136]	@ (8006194 <TIM_OC4_SetConfig+0xb4>)
 800610c:	4013      	ands	r3, r2
 800610e:	60fb      	str	r3, [r7, #12]
  tmpccmrx &= ~TIM_CCMR2_CC4S;
 8006110:	68fb      	ldr	r3, [r7, #12]
 8006112:	4a21      	ldr	r2, [pc, #132]	@ (8006198 <TIM_OC4_SetConfig+0xb8>)
 8006114:	4013      	ands	r3, r2
 8006116:	60fb      	str	r3, [r7, #12]

  /* Select the Output Compare Mode */
  tmpccmrx |= (OC_Config->OCMode << 8U);
 8006118:	683b      	ldr	r3, [r7, #0]
 800611a:	681b      	ldr	r3, [r3, #0]
 800611c:	021b      	lsls	r3, r3, #8
 800611e:	68fa      	ldr	r2, [r7, #12]
 8006120:	4313      	orrs	r3, r2
 8006122:	60fb      	str	r3, [r7, #12]

  /* Reset the Output Polarity level */
  tmpccer &= ~TIM_CCER_CC4P;
 8006124:	693b      	ldr	r3, [r7, #16]
 8006126:	4a1d      	ldr	r2, [pc, #116]	@ (800619c <TIM_OC4_SetConfig+0xbc>)
 8006128:	4013      	ands	r3, r2
 800612a:	613b      	str	r3, [r7, #16]
  /* Set the Output Compare Polarity */
  tmpccer |= (OC_Config->OCPolarity << 12U);
 800612c:	683b      	ldr	r3, [r7, #0]
 800612e:	689b      	ldr	r3, [r3, #8]
 8006130:	031b      	lsls	r3, r3, #12
 8006132:	693a      	ldr	r2, [r7, #16]
 8006134:	4313      	orrs	r3, r2
 8006136:	613b      	str	r3, [r7, #16]

  if (IS_TIM_BREAK_INSTANCE(TIMx))
 8006138:	687b      	ldr	r3, [r7, #4]
 800613a:	4a19      	ldr	r2, [pc, #100]	@ (80061a0 <TIM_OC4_SetConfig+0xc0>)
 800613c:	4293      	cmp	r3, r2
 800613e:	d00b      	beq.n	8006158 <TIM_OC4_SetConfig+0x78>
 8006140:	687b      	ldr	r3, [r7, #4]
 8006142:	4a18      	ldr	r2, [pc, #96]	@ (80061a4 <TIM_OC4_SetConfig+0xc4>)
 8006144:	4293      	cmp	r3, r2
 8006146:	d007      	beq.n	8006158 <TIM_OC4_SetConfig+0x78>
 8006148:	687b      	ldr	r3, [r7, #4]
 800614a:	4a17      	ldr	r2, [pc, #92]	@ (80061a8 <TIM_OC4_SetConfig+0xc8>)
 800614c:	4293      	cmp	r3, r2
 800614e:	d003      	beq.n	8006158 <TIM_OC4_SetConfig+0x78>
 8006150:	687b      	ldr	r3, [r7, #4]
 8006152:	4a16      	ldr	r2, [pc, #88]	@ (80061ac <TIM_OC4_SetConfig+0xcc>)
 8006154:	4293      	cmp	r3, r2
 8006156:	d109      	bne.n	800616c <TIM_OC4_SetConfig+0x8c>
  {
    /* Check parameters */
    assert_param(IS_TIM_OCIDLE_STATE(OC_Config->OCIdleState));

    /* Reset the Output Compare IDLE State */
    tmpcr2 &= ~TIM_CR2_OIS4;
 8006158:	697b      	ldr	r3, [r7, #20]
 800615a:	4a15      	ldr	r2, [pc, #84]	@ (80061b0 <TIM_OC4_SetConfig+0xd0>)
 800615c:	4013      	ands	r3, r2
 800615e:	617b      	str	r3, [r7, #20]

    /* Set the Output Idle state */
    tmpcr2 |= (OC_Config->OCIdleState << 6U);
 8006160:	683b      	ldr	r3, [r7, #0]
 8006162:	695b      	ldr	r3, [r3, #20]
 8006164:	019b      	lsls	r3, r3, #6
 8006166:	697a      	ldr	r2, [r7, #20]
 8006168:	4313      	orrs	r3, r2
 800616a:	617b      	str	r3, [r7, #20]
  }

  /* Write to TIMx CR2 */
  TIMx->CR2 = tmpcr2;
 800616c:	687b      	ldr	r3, [r7, #4]
 800616e:	697a      	ldr	r2, [r7, #20]
 8006170:	605a      	str	r2, [r3, #4]

  /* Write to TIMx CCMR2 */
  TIMx->CCMR2 = tmpccmrx;
 8006172:	687b      	ldr	r3, [r7, #4]
 8006174:	68fa      	ldr	r2, [r7, #12]
 8006176:	61da      	str	r2, [r3, #28]

  /* Set the Capture Compare Register value */
  TIMx->CCR4 = OC_Config->Pulse;
 8006178:	683b      	ldr	r3, [r7, #0]
 800617a:	685a      	ldr	r2, [r3, #4]
 800617c:	687b      	ldr	r3, [r7, #4]
 800617e:	641a      	str	r2, [r3, #64]	@ 0x40

  /* Write to TIMx CCER */
  TIMx->CCER = tmpccer;
 8006180:	687b      	ldr	r3, [r7, #4]
 8006182:	693a      	ldr	r2, [r7, #16]
 8006184:	621a      	str	r2, [r3, #32]
}
 8006186:	46c0      	nop			@ (mov r8, r8)
 8006188:	46bd      	mov	sp, r7
 800618a:	b006      	add	sp, #24
 800618c:	bd80      	pop	{r7, pc}
 800618e:	46c0      	nop			@ (mov r8, r8)
 8006190:	ffffefff 	.word	0xffffefff
 8006194:	feff8fff 	.word	0xfeff8fff
 8006198:	fffffcff 	.word	0xfffffcff
 800619c:	ffffdfff 	.word	0xffffdfff
 80061a0:	40012c00 	.word	0x40012c00
 80061a4:	40014000 	.word	0x40014000
 80061a8:	40014400 	.word	0x40014400
 80061ac:	40014800 	.word	0x40014800
 80061b0:	ffffbfff 	.word	0xffffbfff

080061b4 <TIM_OC5_SetConfig>:
  * @param  OC_Config The output configuration structure
  * @retval None
  */
static void TIM_OC5_SetConfig(TIM_TypeDef *TIMx,
                              const TIM_OC_InitTypeDef *OC_Config)
{
 80061b4:	b580      	push	{r7, lr}
 80061b6:	b086      	sub	sp, #24
 80061b8:	af00      	add	r7, sp, #0
 80061ba:	6078      	str	r0, [r7, #4]
 80061bc:	6039      	str	r1, [r7, #0]
  uint32_t tmpccmrx;
  uint32_t tmpccer;
  uint32_t tmpcr2;

  /* Get the TIMx CCER register value */
  tmpccer = TIMx->CCER;
 80061be:	687b      	ldr	r3, [r7, #4]
 80061c0:	6a1b      	ldr	r3, [r3, #32]
 80061c2:	613b      	str	r3, [r7, #16]

  /* Disable the output: Reset the CCxE Bit */
  TIMx->CCER &= ~TIM_CCER_CC5E;
 80061c4:	687b      	ldr	r3, [r7, #4]
 80061c6:	6a1b      	ldr	r3, [r3, #32]
 80061c8:	4a23      	ldr	r2, [pc, #140]	@ (8006258 <TIM_OC5_SetConfig+0xa4>)
 80061ca:	401a      	ands	r2, r3
 80061cc:	687b      	ldr	r3, [r7, #4]
 80061ce:	621a      	str	r2, [r3, #32]

  /* Get the TIMx CR2 register value */
  tmpcr2 =  TIMx->CR2;
 80061d0:	687b      	ldr	r3, [r7, #4]
 80061d2:	685b      	ldr	r3, [r3, #4]
 80061d4:	617b      	str	r3, [r7, #20]
  /* Get the TIMx CCMR1 register value */
  tmpccmrx = TIMx->CCMR3;
 80061d6:	687b      	ldr	r3, [r7, #4]
 80061d8:	6d5b      	ldr	r3, [r3, #84]	@ 0x54
 80061da:	60fb      	str	r3, [r7, #12]

  /* Reset the Output Compare Mode Bits */
  tmpccmrx &= ~(TIM_CCMR3_OC5M);
 80061dc:	68fb      	ldr	r3, [r7, #12]
 80061de:	4a1f      	ldr	r2, [pc, #124]	@ (800625c <TIM_OC5_SetConfig+0xa8>)
 80061e0:	4013      	ands	r3, r2
 80061e2:	60fb      	str	r3, [r7, #12]
  /* Select the Output Compare Mode */
  tmpccmrx |= OC_Config->OCMode;
 80061e4:	683b      	ldr	r3, [r7, #0]
 80061e6:	681b      	ldr	r3, [r3, #0]
 80061e8:	68fa      	ldr	r2, [r7, #12]
 80061ea:	4313      	orrs	r3, r2
 80061ec:	60fb      	str	r3, [r7, #12]

  /* Reset the Output Polarity level */
  tmpccer &= ~TIM_CCER_CC5P;
 80061ee:	693b      	ldr	r3, [r7, #16]
 80061f0:	4a1b      	ldr	r2, [pc, #108]	@ (8006260 <TIM_OC5_SetConfig+0xac>)
 80061f2:	4013      	ands	r3, r2
 80061f4:	613b      	str	r3, [r7, #16]
  /* Set the Output Compare Polarity */
  tmpccer |= (OC_Config->OCPolarity << 16U);
 80061f6:	683b      	ldr	r3, [r7, #0]
 80061f8:	689b      	ldr	r3, [r3, #8]
 80061fa:	041b      	lsls	r3, r3, #16
 80061fc:	693a      	ldr	r2, [r7, #16]
 80061fe:	4313      	orrs	r3, r2
 8006200:	613b      	str	r3, [r7, #16]

  if (IS_TIM_BREAK_INSTANCE(TIMx))
 8006202:	687b      	ldr	r3, [r7, #4]
 8006204:	4a17      	ldr	r2, [pc, #92]	@ (8006264 <TIM_OC5_SetConfig+0xb0>)
 8006206:	4293      	cmp	r3, r2
 8006208:	d00b      	beq.n	8006222 <TIM_OC5_SetConfig+0x6e>
 800620a:	687b      	ldr	r3, [r7, #4]
 800620c:	4a16      	ldr	r2, [pc, #88]	@ (8006268 <TIM_OC5_SetConfig+0xb4>)
 800620e:	4293      	cmp	r3, r2
 8006210:	d007      	beq.n	8006222 <TIM_OC5_SetConfig+0x6e>
 8006212:	687b      	ldr	r3, [r7, #4]
 8006214:	4a15      	ldr	r2, [pc, #84]	@ (800626c <TIM_OC5_SetConfig+0xb8>)
 8006216:	4293      	cmp	r3, r2
 8006218:	d003      	beq.n	8006222 <TIM_OC5_SetConfig+0x6e>
 800621a:	687b      	ldr	r3, [r7, #4]
 800621c:	4a14      	ldr	r2, [pc, #80]	@ (8006270 <TIM_OC5_SetConfig+0xbc>)
 800621e:	4293      	cmp	r3, r2
 8006220:	d109      	bne.n	8006236 <TIM_OC5_SetConfig+0x82>
  {
    /* Reset the Output Compare IDLE State */
    tmpcr2 &= ~TIM_CR2_OIS5;
 8006222:	697b      	ldr	r3, [r7, #20]
 8006224:	4a0c      	ldr	r2, [pc, #48]	@ (8006258 <TIM_OC5_SetConfig+0xa4>)
 8006226:	4013      	ands	r3, r2
 8006228:	617b      	str	r3, [r7, #20]
    /* Set the Output Idle state */
    tmpcr2 |= (OC_Config->OCIdleState << 8U);
 800622a:	683b      	ldr	r3, [r7, #0]
 800622c:	695b      	ldr	r3, [r3, #20]
 800622e:	021b      	lsls	r3, r3, #8
 8006230:	697a      	ldr	r2, [r7, #20]
 8006232:	4313      	orrs	r3, r2
 8006234:	617b      	str	r3, [r7, #20]
  }
  /* Write to TIMx CR2 */
  TIMx->CR2 = tmpcr2;
 8006236:	687b      	ldr	r3, [r7, #4]
 8006238:	697a      	ldr	r2, [r7, #20]
 800623a:	605a      	str	r2, [r3, #4]

  /* Write to TIMx CCMR3 */
  TIMx->CCMR3 = tmpccmrx;
 800623c:	687b      	ldr	r3, [r7, #4]
 800623e:	68fa      	ldr	r2, [r7, #12]
 8006240:	655a      	str	r2, [r3, #84]	@ 0x54

  /* Set the Capture Compare Register value */
  TIMx->CCR5 = OC_Config->Pulse;
 8006242:	683b      	ldr	r3, [r7, #0]
 8006244:	685a      	ldr	r2, [r3, #4]
 8006246:	687b      	ldr	r3, [r7, #4]
 8006248:	659a      	str	r2, [r3, #88]	@ 0x58

  /* Write to TIMx CCER */
  TIMx->CCER = tmpccer;
 800624a:	687b      	ldr	r3, [r7, #4]
 800624c:	693a      	ldr	r2, [r7, #16]
 800624e:	621a      	str	r2, [r3, #32]
}
 8006250:	46c0      	nop			@ (mov r8, r8)
 8006252:	46bd      	mov	sp, r7
 8006254:	b006      	add	sp, #24
 8006256:	bd80      	pop	{r7, pc}
 8006258:	fffeffff 	.word	0xfffeffff
 800625c:	fffeff8f 	.word	0xfffeff8f
 8006260:	fffdffff 	.word	0xfffdffff
 8006264:	40012c00 	.word	0x40012c00
 8006268:	40014000 	.word	0x40014000
 800626c:	40014400 	.word	0x40014400
 8006270:	40014800 	.word	0x40014800

08006274 <TIM_OC6_SetConfig>:
  * @param  OC_Config The output configuration structure
  * @retval None
  */
static void TIM_OC6_SetConfig(TIM_TypeDef *TIMx,
                              const TIM_OC_InitTypeDef *OC_Config)
{
 8006274:	b580      	push	{r7, lr}
 8006276:	b086      	sub	sp, #24
 8006278:	af00      	add	r7, sp, #0
 800627a:	6078      	str	r0, [r7, #4]
 800627c:	6039      	str	r1, [r7, #0]
  uint32_t tmpccmrx;
  uint32_t tmpccer;
  uint32_t tmpcr2;

  /* Get the TIMx CCER register value */
  tmpccer = TIMx->CCER;
 800627e:	687b      	ldr	r3, [r7, #4]
 8006280:	6a1b      	ldr	r3, [r3, #32]
 8006282:	613b      	str	r3, [r7, #16]

  /* Disable the output: Reset the CCxE Bit */
  TIMx->CCER &= ~TIM_CCER_CC6E;
 8006284:	687b      	ldr	r3, [r7, #4]
 8006286:	6a1b      	ldr	r3, [r3, #32]
 8006288:	4a24      	ldr	r2, [pc, #144]	@ (800631c <TIM_OC6_SetConfig+0xa8>)
 800628a:	401a      	ands	r2, r3
 800628c:	687b      	ldr	r3, [r7, #4]
 800628e:	621a      	str	r2, [r3, #32]

  /* Get the TIMx CR2 register value */
  tmpcr2 =  TIMx->CR2;
 8006290:	687b      	ldr	r3, [r7, #4]
 8006292:	685b      	ldr	r3, [r3, #4]
 8006294:	617b      	str	r3, [r7, #20]
  /* Get the TIMx CCMR1 register value */
  tmpccmrx = TIMx->CCMR3;
 8006296:	687b      	ldr	r3, [r7, #4]
 8006298:	6d5b      	ldr	r3, [r3, #84]	@ 0x54
 800629a:	60fb      	str	r3, [r7, #12]

  /* Reset the Output Compare Mode Bits */
  tmpccmrx &= ~(TIM_CCMR3_OC6M);
 800629c:	68fb      	ldr	r3, [r7, #12]
 800629e:	4a20      	ldr	r2, [pc, #128]	@ (8006320 <TIM_OC6_SetConfig+0xac>)
 80062a0:	4013      	ands	r3, r2
 80062a2:	60fb      	str	r3, [r7, #12]
  /* Select the Output Compare Mode */
  tmpccmrx |= (OC_Config->OCMode << 8U);
 80062a4:	683b      	ldr	r3, [r7, #0]
 80062a6:	681b      	ldr	r3, [r3, #0]
 80062a8:	021b      	lsls	r3, r3, #8
 80062aa:	68fa      	ldr	r2, [r7, #12]
 80062ac:	4313      	orrs	r3, r2
 80062ae:	60fb      	str	r3, [r7, #12]

  /* Reset the Output Polarity level */
  tmpccer &= (uint32_t)~TIM_CCER_CC6P;
 80062b0:	693b      	ldr	r3, [r7, #16]
 80062b2:	4a1c      	ldr	r2, [pc, #112]	@ (8006324 <TIM_OC6_SetConfig+0xb0>)
 80062b4:	4013      	ands	r3, r2
 80062b6:	613b      	str	r3, [r7, #16]
  /* Set the Output Compare Polarity */
  tmpccer |= (OC_Config->OCPolarity << 20U);
 80062b8:	683b      	ldr	r3, [r7, #0]
 80062ba:	689b      	ldr	r3, [r3, #8]
 80062bc:	051b      	lsls	r3, r3, #20
 80062be:	693a      	ldr	r2, [r7, #16]
 80062c0:	4313      	orrs	r3, r2
 80062c2:	613b      	str	r3, [r7, #16]

  if (IS_TIM_BREAK_INSTANCE(TIMx))
 80062c4:	687b      	ldr	r3, [r7, #4]
 80062c6:	4a18      	ldr	r2, [pc, #96]	@ (8006328 <TIM_OC6_SetConfig+0xb4>)
 80062c8:	4293      	cmp	r3, r2
 80062ca:	d00b      	beq.n	80062e4 <TIM_OC6_SetConfig+0x70>
 80062cc:	687b      	ldr	r3, [r7, #4]
 80062ce:	4a17      	ldr	r2, [pc, #92]	@ (800632c <TIM_OC6_SetConfig+0xb8>)
 80062d0:	4293      	cmp	r3, r2
 80062d2:	d007      	beq.n	80062e4 <TIM_OC6_SetConfig+0x70>
 80062d4:	687b      	ldr	r3, [r7, #4]
 80062d6:	4a16      	ldr	r2, [pc, #88]	@ (8006330 <TIM_OC6_SetConfig+0xbc>)
 80062d8:	4293      	cmp	r3, r2
 80062da:	d003      	beq.n	80062e4 <TIM_OC6_SetConfig+0x70>
 80062dc:	687b      	ldr	r3, [r7, #4]
 80062de:	4a15      	ldr	r2, [pc, #84]	@ (8006334 <TIM_OC6_SetConfig+0xc0>)
 80062e0:	4293      	cmp	r3, r2
 80062e2:	d109      	bne.n	80062f8 <TIM_OC6_SetConfig+0x84>
  {
    /* Reset the Output Compare IDLE State */
    tmpcr2 &= ~TIM_CR2_OIS6;
 80062e4:	697b      	ldr	r3, [r7, #20]
 80062e6:	4a14      	ldr	r2, [pc, #80]	@ (8006338 <TIM_OC6_SetConfig+0xc4>)
 80062e8:	4013      	ands	r3, r2
 80062ea:	617b      	str	r3, [r7, #20]
    /* Set the Output Idle state */
    tmpcr2 |= (OC_Config->OCIdleState << 10U);
 80062ec:	683b      	ldr	r3, [r7, #0]
 80062ee:	695b      	ldr	r3, [r3, #20]
 80062f0:	029b      	lsls	r3, r3, #10
 80062f2:	697a      	ldr	r2, [r7, #20]
 80062f4:	4313      	orrs	r3, r2
 80062f6:	617b      	str	r3, [r7, #20]
  }

  /* Write to TIMx CR2 */
  TIMx->CR2 = tmpcr2;
 80062f8:	687b      	ldr	r3, [r7, #4]
 80062fa:	697a      	ldr	r2, [r7, #20]
 80062fc:	605a      	str	r2, [r3, #4]

  /* Write to TIMx CCMR3 */
  TIMx->CCMR3 = tmpccmrx;
 80062fe:	687b      	ldr	r3, [r7, #4]
 8006300:	68fa      	ldr	r2, [r7, #12]
 8006302:	655a      	str	r2, [r3, #84]	@ 0x54

  /* Set the Capture Compare Register value */
  TIMx->CCR6 = OC_Config->Pulse;
 8006304:	683b      	ldr	r3, [r7, #0]
 8006306:	685a      	ldr	r2, [r3, #4]
 8006308:	687b      	ldr	r3, [r7, #4]
 800630a:	65da      	str	r2, [r3, #92]	@ 0x5c

  /* Write to TIMx CCER */
  TIMx->CCER = tmpccer;
 800630c:	687b      	ldr	r3, [r7, #4]
 800630e:	693a      	ldr	r2, [r7, #16]
 8006310:	621a      	str	r2, [r3, #32]
}
 8006312:	46c0      	nop			@ (mov r8, r8)
 8006314:	46bd      	mov	sp, r7
 8006316:	b006      	add	sp, #24
 8006318:	bd80      	pop	{r7, pc}
 800631a:	46c0      	nop			@ (mov r8, r8)
 800631c:	ffefffff 	.word	0xffefffff
 8006320:	feff8fff 	.word	0xfeff8fff
 8006324:	ffdfffff 	.word	0xffdfffff
 8006328:	40012c00 	.word	0x40012c00
 800632c:	40014000 	.word	0x40014000
 8006330:	40014400 	.word	0x40014400
 8006334:	40014800 	.word	0x40014800
 8006338:	fffbffff 	.word	0xfffbffff

0800633c <TIM_SlaveTimer_SetConfig>:
  * @param  sSlaveConfig Slave timer configuration
  * @retval None
  */
static HAL_StatusTypeDef TIM_SlaveTimer_SetConfig(TIM_HandleTypeDef *htim,
                                                  const TIM_SlaveConfigTypeDef *sSlaveConfig)
{
 800633c:	b580      	push	{r7, lr}
 800633e:	b086      	sub	sp, #24
 8006340:	af00      	add	r7, sp, #0
 8006342:	6078      	str	r0, [r7, #4]
 8006344:	6039      	str	r1, [r7, #0]
  HAL_StatusTypeDef status = HAL_OK;
 8006346:	2317      	movs	r3, #23
 8006348:	18fb      	adds	r3, r7, r3
 800634a:	2200      	movs	r2, #0
 800634c:	701a      	strb	r2, [r3, #0]
  uint32_t tmpsmcr;
  uint32_t tmpccmr1;
  uint32_t tmpccer;

  /* Get the TIMx SMCR register value */
  tmpsmcr = htim->Instance->SMCR;
 800634e:	687b      	ldr	r3, [r7, #4]
 8006350:	681b      	ldr	r3, [r3, #0]
 8006352:	689b      	ldr	r3, [r3, #8]
 8006354:	613b      	str	r3, [r7, #16]

  /* Reset the Trigger Selection Bits */
  tmpsmcr &= ~TIM_SMCR_TS;
 8006356:	693b      	ldr	r3, [r7, #16]
 8006358:	4a41      	ldr	r2, [pc, #260]	@ (8006460 <TIM_SlaveTimer_SetConfig+0x124>)
 800635a:	4013      	ands	r3, r2
 800635c:	613b      	str	r3, [r7, #16]
  /* Set the Input Trigger source */
  tmpsmcr |= sSlaveConfig->InputTrigger;
 800635e:	683b      	ldr	r3, [r7, #0]
 8006360:	685b      	ldr	r3, [r3, #4]
 8006362:	693a      	ldr	r2, [r7, #16]
 8006364:	4313      	orrs	r3, r2
 8006366:	613b      	str	r3, [r7, #16]

  /* Reset the slave mode Bits */
  tmpsmcr &= ~TIM_SMCR_SMS;
 8006368:	693b      	ldr	r3, [r7, #16]
 800636a:	4a3e      	ldr	r2, [pc, #248]	@ (8006464 <TIM_SlaveTimer_SetConfig+0x128>)
 800636c:	4013      	ands	r3, r2
 800636e:	613b      	str	r3, [r7, #16]
  /* Set the slave mode */
  tmpsmcr |= sSlaveConfig->SlaveMode;
 8006370:	683b      	ldr	r3, [r7, #0]
 8006372:	681b      	ldr	r3, [r3, #0]
 8006374:	693a      	ldr	r2, [r7, #16]
 8006376:	4313      	orrs	r3, r2
 8006378:	613b      	str	r3, [r7, #16]

  /* Write to TIMx SMCR */
  htim->Instance->SMCR = tmpsmcr;
 800637a:	687b      	ldr	r3, [r7, #4]
 800637c:	681b      	ldr	r3, [r3, #0]
 800637e:	693a      	ldr	r2, [r7, #16]
 8006380:	609a      	str	r2, [r3, #8]

  /* Configure the trigger prescaler, filter, and polarity */
  switch (sSlaveConfig->InputTrigger)
 8006382:	683b      	ldr	r3, [r7, #0]
 8006384:	685b      	ldr	r3, [r3, #4]
 8006386:	2b70      	cmp	r3, #112	@ 0x70
 8006388:	d015      	beq.n	80063b6 <TIM_SlaveTimer_SetConfig+0x7a>
 800638a:	d900      	bls.n	800638e <TIM_SlaveTimer_SetConfig+0x52>
 800638c:	e05b      	b.n	8006446 <TIM_SlaveTimer_SetConfig+0x10a>
 800638e:	2b60      	cmp	r3, #96	@ 0x60
 8006390:	d04f      	beq.n	8006432 <TIM_SlaveTimer_SetConfig+0xf6>
 8006392:	d858      	bhi.n	8006446 <TIM_SlaveTimer_SetConfig+0x10a>
 8006394:	2b50      	cmp	r3, #80	@ 0x50
 8006396:	d042      	beq.n	800641e <TIM_SlaveTimer_SetConfig+0xe2>
 8006398:	d855      	bhi.n	8006446 <TIM_SlaveTimer_SetConfig+0x10a>
 800639a:	2b40      	cmp	r3, #64	@ 0x40
 800639c:	d016      	beq.n	80063cc <TIM_SlaveTimer_SetConfig+0x90>
 800639e:	d852      	bhi.n	8006446 <TIM_SlaveTimer_SetConfig+0x10a>
 80063a0:	2b30      	cmp	r3, #48	@ 0x30
 80063a2:	d055      	beq.n	8006450 <TIM_SlaveTimer_SetConfig+0x114>
 80063a4:	d84f      	bhi.n	8006446 <TIM_SlaveTimer_SetConfig+0x10a>
 80063a6:	2b20      	cmp	r3, #32
 80063a8:	d052      	beq.n	8006450 <TIM_SlaveTimer_SetConfig+0x114>
 80063aa:	d84c      	bhi.n	8006446 <TIM_SlaveTimer_SetConfig+0x10a>
 80063ac:	2b00      	cmp	r3, #0
 80063ae:	d04f      	beq.n	8006450 <TIM_SlaveTimer_SetConfig+0x114>
 80063b0:	2b10      	cmp	r3, #16
 80063b2:	d04d      	beq.n	8006450 <TIM_SlaveTimer_SetConfig+0x114>
 80063b4:	e047      	b.n	8006446 <TIM_SlaveTimer_SetConfig+0x10a>
      assert_param(IS_TIM_CLOCKSOURCE_ETRMODE1_INSTANCE(htim->Instance));
      assert_param(IS_TIM_TRIGGERPRESCALER(sSlaveConfig->TriggerPrescaler));
      assert_param(IS_TIM_TRIGGERPOLARITY(sSlaveConfig->TriggerPolarity));
      assert_param(IS_TIM_TRIGGERFILTER(sSlaveConfig->TriggerFilter));
      /* Configure the ETR Trigger source */
      TIM_ETR_SetConfig(htim->Instance,
 80063b6:	687b      	ldr	r3, [r7, #4]
 80063b8:	6818      	ldr	r0, [r3, #0]
                        sSlaveConfig->TriggerPrescaler,
 80063ba:	683b      	ldr	r3, [r7, #0]
 80063bc:	68d9      	ldr	r1, [r3, #12]
                        sSlaveConfig->TriggerPolarity,
 80063be:	683b      	ldr	r3, [r7, #0]
 80063c0:	689a      	ldr	r2, [r3, #8]
                        sSlaveConfig->TriggerFilter);
 80063c2:	683b      	ldr	r3, [r7, #0]
 80063c4:	691b      	ldr	r3, [r3, #16]
      TIM_ETR_SetConfig(htim->Instance,
 80063c6:	f000 f9d3 	bl	8006770 <TIM_ETR_SetConfig>
      break;
 80063ca:	e042      	b.n	8006452 <TIM_SlaveTimer_SetConfig+0x116>
    {
      /* Check the parameters */
      assert_param(IS_TIM_CC1_INSTANCE(htim->Instance));
      assert_param(IS_TIM_TRIGGERFILTER(sSlaveConfig->TriggerFilter));

      if (sSlaveConfig->SlaveMode == TIM_SLAVEMODE_GATED)
 80063cc:	683b      	ldr	r3, [r7, #0]
 80063ce:	681b      	ldr	r3, [r3, #0]
 80063d0:	2b05      	cmp	r3, #5
 80063d2:	d101      	bne.n	80063d8 <TIM_SlaveTimer_SetConfig+0x9c>
      {
        return HAL_ERROR;
 80063d4:	2301      	movs	r3, #1
 80063d6:	e03f      	b.n	8006458 <TIM_SlaveTimer_SetConfig+0x11c>
      }

      /* Disable the Channel 1: Reset the CC1E Bit */
      tmpccer = htim->Instance->CCER;
 80063d8:	687b      	ldr	r3, [r7, #4]
 80063da:	681b      	ldr	r3, [r3, #0]
 80063dc:	6a1b      	ldr	r3, [r3, #32]
 80063de:	60fb      	str	r3, [r7, #12]
      htim->Instance->CCER &= ~TIM_CCER_CC1E;
 80063e0:	687b      	ldr	r3, [r7, #4]
 80063e2:	681b      	ldr	r3, [r3, #0]
 80063e4:	6a1a      	ldr	r2, [r3, #32]
 80063e6:	687b      	ldr	r3, [r7, #4]
 80063e8:	681b      	ldr	r3, [r3, #0]
 80063ea:	2101      	movs	r1, #1
 80063ec:	438a      	bics	r2, r1
 80063ee:	621a      	str	r2, [r3, #32]
      tmpccmr1 = htim->Instance->CCMR1;
 80063f0:	687b      	ldr	r3, [r7, #4]
 80063f2:	681b      	ldr	r3, [r3, #0]
 80063f4:	699b      	ldr	r3, [r3, #24]
 80063f6:	60bb      	str	r3, [r7, #8]

      /* Set the filter */
      tmpccmr1 &= ~TIM_CCMR1_IC1F;
 80063f8:	68bb      	ldr	r3, [r7, #8]
 80063fa:	22f0      	movs	r2, #240	@ 0xf0
 80063fc:	4393      	bics	r3, r2
 80063fe:	60bb      	str	r3, [r7, #8]
      tmpccmr1 |= ((sSlaveConfig->TriggerFilter) << 4U);
 8006400:	683b      	ldr	r3, [r7, #0]
 8006402:	691b      	ldr	r3, [r3, #16]
 8006404:	011b      	lsls	r3, r3, #4
 8006406:	68ba      	ldr	r2, [r7, #8]
 8006408:	4313      	orrs	r3, r2
 800640a:	60bb      	str	r3, [r7, #8]

      /* Write to TIMx CCMR1 and CCER registers */
      htim->Instance->CCMR1 = tmpccmr1;
 800640c:	687b      	ldr	r3, [r7, #4]
 800640e:	681b      	ldr	r3, [r3, #0]
 8006410:	68ba      	ldr	r2, [r7, #8]
 8006412:	619a      	str	r2, [r3, #24]
      htim->Instance->CCER = tmpccer;
 8006414:	687b      	ldr	r3, [r7, #4]
 8006416:	681b      	ldr	r3, [r3, #0]
 8006418:	68fa      	ldr	r2, [r7, #12]
 800641a:	621a      	str	r2, [r3, #32]
      break;
 800641c:	e019      	b.n	8006452 <TIM_SlaveTimer_SetConfig+0x116>
      assert_param(IS_TIM_CC1_INSTANCE(htim->Instance));
      assert_param(IS_TIM_TRIGGERPOLARITY(sSlaveConfig->TriggerPolarity));
      assert_param(IS_TIM_TRIGGERFILTER(sSlaveConfig->TriggerFilter));

      /* Configure TI1 Filter and Polarity */
      TIM_TI1_ConfigInputStage(htim->Instance,
 800641e:	687b      	ldr	r3, [r7, #4]
 8006420:	6818      	ldr	r0, [r3, #0]
                               sSlaveConfig->TriggerPolarity,
 8006422:	683b      	ldr	r3, [r7, #0]
 8006424:	6899      	ldr	r1, [r3, #8]
                               sSlaveConfig->TriggerFilter);
 8006426:	683b      	ldr	r3, [r7, #0]
 8006428:	691b      	ldr	r3, [r3, #16]
      TIM_TI1_ConfigInputStage(htim->Instance,
 800642a:	001a      	movs	r2, r3
 800642c:	f000 f878 	bl	8006520 <TIM_TI1_ConfigInputStage>
      break;
 8006430:	e00f      	b.n	8006452 <TIM_SlaveTimer_SetConfig+0x116>
      assert_param(IS_TIM_CC2_INSTANCE(htim->Instance));
      assert_param(IS_TIM_TRIGGERPOLARITY(sSlaveConfig->TriggerPolarity));
      assert_param(IS_TIM_TRIGGERFILTER(sSlaveConfig->TriggerFilter));

      /* Configure TI2 Filter and Polarity */
      TIM_TI2_ConfigInputStage(htim->Instance,
 8006432:	687b      	ldr	r3, [r7, #4]
 8006434:	6818      	ldr	r0, [r3, #0]
                               sSlaveConfig->TriggerPolarity,
 8006436:	683b      	ldr	r3, [r7, #0]
 8006438:	6899      	ldr	r1, [r3, #8]
                               sSlaveConfig->TriggerFilter);
 800643a:	683b      	ldr	r3, [r7, #0]
 800643c:	691b      	ldr	r3, [r3, #16]
      TIM_TI2_ConfigInputStage(htim->Instance,
 800643e:	001a      	movs	r2, r3
 8006440:	f000 f8de 	bl	8006600 <TIM_TI2_ConfigInputStage>
      break;
 8006444:	e005      	b.n	8006452 <TIM_SlaveTimer_SetConfig+0x116>
      assert_param(IS_TIM_CC2_INSTANCE(htim->Instance));
      break;
    }

    default:
      status = HAL_ERROR;
 8006446:	2317      	movs	r3, #23
 8006448:	18fb      	adds	r3, r7, r3
 800644a:	2201      	movs	r2, #1
 800644c:	701a      	strb	r2, [r3, #0]
      break;
 800644e:	e000      	b.n	8006452 <TIM_SlaveTimer_SetConfig+0x116>
      break;
 8006450:	46c0      	nop			@ (mov r8, r8)
  }

  return status;
 8006452:	2317      	movs	r3, #23
 8006454:	18fb      	adds	r3, r7, r3
 8006456:	781b      	ldrb	r3, [r3, #0]
}
 8006458:	0018      	movs	r0, r3
 800645a:	46bd      	mov	sp, r7
 800645c:	b006      	add	sp, #24
 800645e:	bd80      	pop	{r7, pc}
 8006460:	ffcfff8f 	.word	0xffcfff8f
 8006464:	fffefff8 	.word	0xfffefff8

08006468 <TIM_TI1_SetConfig>:
  *       (on channel2 path) is used as the input signal. Therefore CCMR1 must be
  *        protected against un-initialized filter and polarity values.
  */
void TIM_TI1_SetConfig(TIM_TypeDef *TIMx, uint32_t TIM_ICPolarity, uint32_t TIM_ICSelection,
                       uint32_t TIM_ICFilter)
{
 8006468:	b580      	push	{r7, lr}
 800646a:	b086      	sub	sp, #24
 800646c:	af00      	add	r7, sp, #0
 800646e:	60f8      	str	r0, [r7, #12]
 8006470:	60b9      	str	r1, [r7, #8]
 8006472:	607a      	str	r2, [r7, #4]
 8006474:	603b      	str	r3, [r7, #0]
  uint32_t tmpccmr1;
  uint32_t tmpccer;

  /* Disable the Channel 1: Reset the CC1E Bit */
  tmpccer = TIMx->CCER;
 8006476:	68fb      	ldr	r3, [r7, #12]
 8006478:	6a1b      	ldr	r3, [r3, #32]
 800647a:	613b      	str	r3, [r7, #16]
  TIMx->CCER &= ~TIM_CCER_CC1E;
 800647c:	68fb      	ldr	r3, [r7, #12]
 800647e:	6a1b      	ldr	r3, [r3, #32]
 8006480:	2201      	movs	r2, #1
 8006482:	4393      	bics	r3, r2
 8006484:	001a      	movs	r2, r3
 8006486:	68fb      	ldr	r3, [r7, #12]
 8006488:	621a      	str	r2, [r3, #32]
  tmpccmr1 = TIMx->CCMR1;
 800648a:	68fb      	ldr	r3, [r7, #12]
 800648c:	699b      	ldr	r3, [r3, #24]
 800648e:	617b      	str	r3, [r7, #20]

  /* Select the Input */
  if (IS_TIM_CC2_INSTANCE(TIMx) != RESET)
 8006490:	68fb      	ldr	r3, [r7, #12]
 8006492:	4a20      	ldr	r2, [pc, #128]	@ (8006514 <TIM_TI1_SetConfig+0xac>)
 8006494:	4293      	cmp	r3, r2
 8006496:	d00c      	beq.n	80064b2 <TIM_TI1_SetConfig+0x4a>
 8006498:	68fa      	ldr	r2, [r7, #12]
 800649a:	2380      	movs	r3, #128	@ 0x80
 800649c:	05db      	lsls	r3, r3, #23
 800649e:	429a      	cmp	r2, r3
 80064a0:	d007      	beq.n	80064b2 <TIM_TI1_SetConfig+0x4a>
 80064a2:	68fb      	ldr	r3, [r7, #12]
 80064a4:	4a1c      	ldr	r2, [pc, #112]	@ (8006518 <TIM_TI1_SetConfig+0xb0>)
 80064a6:	4293      	cmp	r3, r2
 80064a8:	d003      	beq.n	80064b2 <TIM_TI1_SetConfig+0x4a>
 80064aa:	68fb      	ldr	r3, [r7, #12]
 80064ac:	4a1b      	ldr	r2, [pc, #108]	@ (800651c <TIM_TI1_SetConfig+0xb4>)
 80064ae:	4293      	cmp	r3, r2
 80064b0:	d101      	bne.n	80064b6 <TIM_TI1_SetConfig+0x4e>
 80064b2:	2301      	movs	r3, #1
 80064b4:	e000      	b.n	80064b8 <TIM_TI1_SetConfig+0x50>
 80064b6:	2300      	movs	r3, #0
 80064b8:	2b00      	cmp	r3, #0
 80064ba:	d008      	beq.n	80064ce <TIM_TI1_SetConfig+0x66>
  {
    tmpccmr1 &= ~TIM_CCMR1_CC1S;
 80064bc:	697b      	ldr	r3, [r7, #20]
 80064be:	2203      	movs	r2, #3
 80064c0:	4393      	bics	r3, r2
 80064c2:	617b      	str	r3, [r7, #20]
    tmpccmr1 |= TIM_ICSelection;
 80064c4:	697a      	ldr	r2, [r7, #20]
 80064c6:	687b      	ldr	r3, [r7, #4]
 80064c8:	4313      	orrs	r3, r2
 80064ca:	617b      	str	r3, [r7, #20]
 80064cc:	e003      	b.n	80064d6 <TIM_TI1_SetConfig+0x6e>
  }
  else
  {
    tmpccmr1 |= TIM_CCMR1_CC1S_0;
 80064ce:	697b      	ldr	r3, [r7, #20]
 80064d0:	2201      	movs	r2, #1
 80064d2:	4313      	orrs	r3, r2
 80064d4:	617b      	str	r3, [r7, #20]
  }

  /* Set the filter */
  tmpccmr1 &= ~TIM_CCMR1_IC1F;
 80064d6:	697b      	ldr	r3, [r7, #20]
 80064d8:	22f0      	movs	r2, #240	@ 0xf0
 80064da:	4393      	bics	r3, r2
 80064dc:	617b      	str	r3, [r7, #20]
  tmpccmr1 |= ((TIM_ICFilter << 4U) & TIM_CCMR1_IC1F);
 80064de:	683b      	ldr	r3, [r7, #0]
 80064e0:	011b      	lsls	r3, r3, #4
 80064e2:	22ff      	movs	r2, #255	@ 0xff
 80064e4:	4013      	ands	r3, r2
 80064e6:	697a      	ldr	r2, [r7, #20]
 80064e8:	4313      	orrs	r3, r2
 80064ea:	617b      	str	r3, [r7, #20]

  /* Select the Polarity and set the CC1E Bit */
  tmpccer &= ~(TIM_CCER_CC1P | TIM_CCER_CC1NP);
 80064ec:	693b      	ldr	r3, [r7, #16]
 80064ee:	220a      	movs	r2, #10
 80064f0:	4393      	bics	r3, r2
 80064f2:	613b      	str	r3, [r7, #16]
  tmpccer |= (TIM_ICPolarity & (TIM_CCER_CC1P | TIM_CCER_CC1NP));
 80064f4:	68bb      	ldr	r3, [r7, #8]
 80064f6:	220a      	movs	r2, #10
 80064f8:	4013      	ands	r3, r2
 80064fa:	693a      	ldr	r2, [r7, #16]
 80064fc:	4313      	orrs	r3, r2
 80064fe:	613b      	str	r3, [r7, #16]

  /* Write to TIMx CCMR1 and CCER registers */
  TIMx->CCMR1 = tmpccmr1;
 8006500:	68fb      	ldr	r3, [r7, #12]
 8006502:	697a      	ldr	r2, [r7, #20]
 8006504:	619a      	str	r2, [r3, #24]
  TIMx->CCER = tmpccer;
 8006506:	68fb      	ldr	r3, [r7, #12]
 8006508:	693a      	ldr	r2, [r7, #16]
 800650a:	621a      	str	r2, [r3, #32]
}
 800650c:	46c0      	nop			@ (mov r8, r8)
 800650e:	46bd      	mov	sp, r7
 8006510:	b006      	add	sp, #24
 8006512:	bd80      	pop	{r7, pc}
 8006514:	40012c00 	.word	0x40012c00
 8006518:	40000400 	.word	0x40000400
 800651c:	40014000 	.word	0x40014000

08006520 <TIM_TI1_ConfigInputStage>:
  * @param  TIM_ICFilter Specifies the Input Capture Filter.
  *          This parameter must be a value between 0x00 and 0x0F.
  * @retval None
  */
static void TIM_TI1_ConfigInputStage(TIM_TypeDef *TIMx, uint32_t TIM_ICPolarity, uint32_t TIM_ICFilter)
{
 8006520:	b580      	push	{r7, lr}
 8006522:	b086      	sub	sp, #24
 8006524:	af00      	add	r7, sp, #0
 8006526:	60f8      	str	r0, [r7, #12]
 8006528:	60b9      	str	r1, [r7, #8]
 800652a:	607a      	str	r2, [r7, #4]
  uint32_t tmpccmr1;
  uint32_t tmpccer;

  /* Disable the Channel 1: Reset the CC1E Bit */
  tmpccer = TIMx->CCER;
 800652c:	68fb      	ldr	r3, [r7, #12]
 800652e:	6a1b      	ldr	r3, [r3, #32]
 8006530:	617b      	str	r3, [r7, #20]
  TIMx->CCER &= ~TIM_CCER_CC1E;
 8006532:	68fb      	ldr	r3, [r7, #12]
 8006534:	6a1b      	ldr	r3, [r3, #32]
 8006536:	2201      	movs	r2, #1
 8006538:	4393      	bics	r3, r2
 800653a:	001a      	movs	r2, r3
 800653c:	68fb      	ldr	r3, [r7, #12]
 800653e:	621a      	str	r2, [r3, #32]
  tmpccmr1 = TIMx->CCMR1;
 8006540:	68fb      	ldr	r3, [r7, #12]
 8006542:	699b      	ldr	r3, [r3, #24]
 8006544:	613b      	str	r3, [r7, #16]

  /* Set the filter */
  tmpccmr1 &= ~TIM_CCMR1_IC1F;
 8006546:	693b      	ldr	r3, [r7, #16]
 8006548:	22f0      	movs	r2, #240	@ 0xf0
 800654a:	4393      	bics	r3, r2
 800654c:	613b      	str	r3, [r7, #16]
  tmpccmr1 |= (TIM_ICFilter << 4U);
 800654e:	687b      	ldr	r3, [r7, #4]
 8006550:	011b      	lsls	r3, r3, #4
 8006552:	693a      	ldr	r2, [r7, #16]
 8006554:	4313      	orrs	r3, r2
 8006556:	613b      	str	r3, [r7, #16]

  /* Select the Polarity and set the CC1E Bit */
  tmpccer &= ~(TIM_CCER_CC1P | TIM_CCER_CC1NP);
 8006558:	697b      	ldr	r3, [r7, #20]
 800655a:	220a      	movs	r2, #10
 800655c:	4393      	bics	r3, r2
 800655e:	617b      	str	r3, [r7, #20]
  tmpccer |= TIM_ICPolarity;
 8006560:	697a      	ldr	r2, [r7, #20]
 8006562:	68bb      	ldr	r3, [r7, #8]
 8006564:	4313      	orrs	r3, r2
 8006566:	617b      	str	r3, [r7, #20]

  /* Write to TIMx CCMR1 and CCER registers */
  TIMx->CCMR1 = tmpccmr1;
 8006568:	68fb      	ldr	r3, [r7, #12]
 800656a:	693a      	ldr	r2, [r7, #16]
 800656c:	619a      	str	r2, [r3, #24]
  TIMx->CCER = tmpccer;
 800656e:	68fb      	ldr	r3, [r7, #12]
 8006570:	697a      	ldr	r2, [r7, #20]
 8006572:	621a      	str	r2, [r3, #32]
}
 8006574:	46c0      	nop			@ (mov r8, r8)
 8006576:	46bd      	mov	sp, r7
 8006578:	b006      	add	sp, #24
 800657a:	bd80      	pop	{r7, pc}

0800657c <TIM_TI2_SetConfig>:
  *       (on channel1 path) is used as the input signal. Therefore CCMR1 must be
  *        protected against un-initialized filter and polarity values.
  */
static void TIM_TI2_SetConfig(TIM_TypeDef *TIMx, uint32_t TIM_ICPolarity, uint32_t TIM_ICSelection,
                              uint32_t TIM_ICFilter)
{
 800657c:	b580      	push	{r7, lr}
 800657e:	b086      	sub	sp, #24
 8006580:	af00      	add	r7, sp, #0
 8006582:	60f8      	str	r0, [r7, #12]
 8006584:	60b9      	str	r1, [r7, #8]
 8006586:	607a      	str	r2, [r7, #4]
 8006588:	603b      	str	r3, [r7, #0]
  uint32_t tmpccmr1;
  uint32_t tmpccer;

  /* Disable the Channel 2: Reset the CC2E Bit */
  tmpccer = TIMx->CCER;
 800658a:	68fb      	ldr	r3, [r7, #12]
 800658c:	6a1b      	ldr	r3, [r3, #32]
 800658e:	617b      	str	r3, [r7, #20]
  TIMx->CCER &= ~TIM_CCER_CC2E;
 8006590:	68fb      	ldr	r3, [r7, #12]
 8006592:	6a1b      	ldr	r3, [r3, #32]
 8006594:	2210      	movs	r2, #16
 8006596:	4393      	bics	r3, r2
 8006598:	001a      	movs	r2, r3
 800659a:	68fb      	ldr	r3, [r7, #12]
 800659c:	621a      	str	r2, [r3, #32]
  tmpccmr1 = TIMx->CCMR1;
 800659e:	68fb      	ldr	r3, [r7, #12]
 80065a0:	699b      	ldr	r3, [r3, #24]
 80065a2:	613b      	str	r3, [r7, #16]

  /* Select the Input */
  tmpccmr1 &= ~TIM_CCMR1_CC2S;
 80065a4:	693b      	ldr	r3, [r7, #16]
 80065a6:	4a14      	ldr	r2, [pc, #80]	@ (80065f8 <TIM_TI2_SetConfig+0x7c>)
 80065a8:	4013      	ands	r3, r2
 80065aa:	613b      	str	r3, [r7, #16]
  tmpccmr1 |= (TIM_ICSelection << 8U);
 80065ac:	687b      	ldr	r3, [r7, #4]
 80065ae:	021b      	lsls	r3, r3, #8
 80065b0:	693a      	ldr	r2, [r7, #16]
 80065b2:	4313      	orrs	r3, r2
 80065b4:	613b      	str	r3, [r7, #16]

  /* Set the filter */
  tmpccmr1 &= ~TIM_CCMR1_IC2F;
 80065b6:	693b      	ldr	r3, [r7, #16]
 80065b8:	4a10      	ldr	r2, [pc, #64]	@ (80065fc <TIM_TI2_SetConfig+0x80>)
 80065ba:	4013      	ands	r3, r2
 80065bc:	613b      	str	r3, [r7, #16]
  tmpccmr1 |= ((TIM_ICFilter << 12U) & TIM_CCMR1_IC2F);
 80065be:	683b      	ldr	r3, [r7, #0]
 80065c0:	031b      	lsls	r3, r3, #12
 80065c2:	041b      	lsls	r3, r3, #16
 80065c4:	0c1b      	lsrs	r3, r3, #16
 80065c6:	693a      	ldr	r2, [r7, #16]
 80065c8:	4313      	orrs	r3, r2
 80065ca:	613b      	str	r3, [r7, #16]

  /* Select the Polarity and set the CC2E Bit */
  tmpccer &= ~(TIM_CCER_CC2P | TIM_CCER_CC2NP);
 80065cc:	697b      	ldr	r3, [r7, #20]
 80065ce:	22a0      	movs	r2, #160	@ 0xa0
 80065d0:	4393      	bics	r3, r2
 80065d2:	617b      	str	r3, [r7, #20]
  tmpccer |= ((TIM_ICPolarity << 4U) & (TIM_CCER_CC2P | TIM_CCER_CC2NP));
 80065d4:	68bb      	ldr	r3, [r7, #8]
 80065d6:	011b      	lsls	r3, r3, #4
 80065d8:	22a0      	movs	r2, #160	@ 0xa0
 80065da:	4013      	ands	r3, r2
 80065dc:	697a      	ldr	r2, [r7, #20]
 80065de:	4313      	orrs	r3, r2
 80065e0:	617b      	str	r3, [r7, #20]

  /* Write to TIMx CCMR1 and CCER registers */
  TIMx->CCMR1 = tmpccmr1 ;
 80065e2:	68fb      	ldr	r3, [r7, #12]
 80065e4:	693a      	ldr	r2, [r7, #16]
 80065e6:	619a      	str	r2, [r3, #24]
  TIMx->CCER = tmpccer;
 80065e8:	68fb      	ldr	r3, [r7, #12]
 80065ea:	697a      	ldr	r2, [r7, #20]
 80065ec:	621a      	str	r2, [r3, #32]
}
 80065ee:	46c0      	nop			@ (mov r8, r8)
 80065f0:	46bd      	mov	sp, r7
 80065f2:	b006      	add	sp, #24
 80065f4:	bd80      	pop	{r7, pc}
 80065f6:	46c0      	nop			@ (mov r8, r8)
 80065f8:	fffffcff 	.word	0xfffffcff
 80065fc:	ffff0fff 	.word	0xffff0fff

08006600 <TIM_TI2_ConfigInputStage>:
  * @param  TIM_ICFilter Specifies the Input Capture Filter.
  *          This parameter must be a value between 0x00 and 0x0F.
  * @retval None
  */
static void TIM_TI2_ConfigInputStage(TIM_TypeDef *TIMx, uint32_t TIM_ICPolarity, uint32_t TIM_ICFilter)
{
 8006600:	b580      	push	{r7, lr}
 8006602:	b086      	sub	sp, #24
 8006604:	af00      	add	r7, sp, #0
 8006606:	60f8      	str	r0, [r7, #12]
 8006608:	60b9      	str	r1, [r7, #8]
 800660a:	607a      	str	r2, [r7, #4]
  uint32_t tmpccmr1;
  uint32_t tmpccer;

  /* Disable the Channel 2: Reset the CC2E Bit */
  tmpccer = TIMx->CCER;
 800660c:	68fb      	ldr	r3, [r7, #12]
 800660e:	6a1b      	ldr	r3, [r3, #32]
 8006610:	617b      	str	r3, [r7, #20]
  TIMx->CCER &= ~TIM_CCER_CC2E;
 8006612:	68fb      	ldr	r3, [r7, #12]
 8006614:	6a1b      	ldr	r3, [r3, #32]
 8006616:	2210      	movs	r2, #16
 8006618:	4393      	bics	r3, r2
 800661a:	001a      	movs	r2, r3
 800661c:	68fb      	ldr	r3, [r7, #12]
 800661e:	621a      	str	r2, [r3, #32]
  tmpccmr1 = TIMx->CCMR1;
 8006620:	68fb      	ldr	r3, [r7, #12]
 8006622:	699b      	ldr	r3, [r3, #24]
 8006624:	613b      	str	r3, [r7, #16]

  /* Set the filter */
  tmpccmr1 &= ~TIM_CCMR1_IC2F;
 8006626:	693b      	ldr	r3, [r7, #16]
 8006628:	4a0d      	ldr	r2, [pc, #52]	@ (8006660 <TIM_TI2_ConfigInputStage+0x60>)
 800662a:	4013      	ands	r3, r2
 800662c:	613b      	str	r3, [r7, #16]
  tmpccmr1 |= (TIM_ICFilter << 12U);
 800662e:	687b      	ldr	r3, [r7, #4]
 8006630:	031b      	lsls	r3, r3, #12
 8006632:	693a      	ldr	r2, [r7, #16]
 8006634:	4313      	orrs	r3, r2
 8006636:	613b      	str	r3, [r7, #16]

  /* Select the Polarity and set the CC2E Bit */
  tmpccer &= ~(TIM_CCER_CC2P | TIM_CCER_CC2NP);
 8006638:	697b      	ldr	r3, [r7, #20]
 800663a:	22a0      	movs	r2, #160	@ 0xa0
 800663c:	4393      	bics	r3, r2
 800663e:	617b      	str	r3, [r7, #20]
  tmpccer |= (TIM_ICPolarity << 4U);
 8006640:	68bb      	ldr	r3, [r7, #8]
 8006642:	011b      	lsls	r3, r3, #4
 8006644:	697a      	ldr	r2, [r7, #20]
 8006646:	4313      	orrs	r3, r2
 8006648:	617b      	str	r3, [r7, #20]

  /* Write to TIMx CCMR1 and CCER registers */
  TIMx->CCMR1 = tmpccmr1 ;
 800664a:	68fb      	ldr	r3, [r7, #12]
 800664c:	693a      	ldr	r2, [r7, #16]
 800664e:	619a      	str	r2, [r3, #24]
  TIMx->CCER = tmpccer;
 8006650:	68fb      	ldr	r3, [r7, #12]
 8006652:	697a      	ldr	r2, [r7, #20]
 8006654:	621a      	str	r2, [r3, #32]
}
 8006656:	46c0      	nop			@ (mov r8, r8)
 8006658:	46bd      	mov	sp, r7
 800665a:	b006      	add	sp, #24
 800665c:	bd80      	pop	{r7, pc}
 800665e:	46c0      	nop			@ (mov r8, r8)
 8006660:	ffff0fff 	.word	0xffff0fff

08006664 <TIM_TI3_SetConfig>:
  *       (on channel1 path) is used as the input signal. Therefore CCMR2 must be
  *        protected against un-initialized filter and polarity values.
  */
static void TIM_TI3_SetConfig(TIM_TypeDef *TIMx, uint32_t TIM_ICPolarity, uint32_t TIM_ICSelection,
                              uint32_t TIM_ICFilter)
{
 8006664:	b580      	push	{r7, lr}
 8006666:	b086      	sub	sp, #24
 8006668:	af00      	add	r7, sp, #0
 800666a:	60f8      	str	r0, [r7, #12]
 800666c:	60b9      	str	r1, [r7, #8]
 800666e:	607a      	str	r2, [r7, #4]
 8006670:	603b      	str	r3, [r7, #0]
  uint32_t tmpccmr2;
  uint32_t tmpccer;

  /* Disable the Channel 3: Reset the CC3E Bit */
  tmpccer = TIMx->CCER;
 8006672:	68fb      	ldr	r3, [r7, #12]
 8006674:	6a1b      	ldr	r3, [r3, #32]
 8006676:	617b      	str	r3, [r7, #20]
  TIMx->CCER &= ~TIM_CCER_CC3E;
 8006678:	68fb      	ldr	r3, [r7, #12]
 800667a:	6a1b      	ldr	r3, [r3, #32]
 800667c:	4a17      	ldr	r2, [pc, #92]	@ (80066dc <TIM_TI3_SetConfig+0x78>)
 800667e:	401a      	ands	r2, r3
 8006680:	68fb      	ldr	r3, [r7, #12]
 8006682:	621a      	str	r2, [r3, #32]
  tmpccmr2 = TIMx->CCMR2;
 8006684:	68fb      	ldr	r3, [r7, #12]
 8006686:	69db      	ldr	r3, [r3, #28]
 8006688:	613b      	str	r3, [r7, #16]

  /* Select the Input */
  tmpccmr2 &= ~TIM_CCMR2_CC3S;
 800668a:	693b      	ldr	r3, [r7, #16]
 800668c:	2203      	movs	r2, #3
 800668e:	4393      	bics	r3, r2
 8006690:	613b      	str	r3, [r7, #16]
  tmpccmr2 |= TIM_ICSelection;
 8006692:	693a      	ldr	r2, [r7, #16]
 8006694:	687b      	ldr	r3, [r7, #4]
 8006696:	4313      	orrs	r3, r2
 8006698:	613b      	str	r3, [r7, #16]

  /* Set the filter */
  tmpccmr2 &= ~TIM_CCMR2_IC3F;
 800669a:	693b      	ldr	r3, [r7, #16]
 800669c:	22f0      	movs	r2, #240	@ 0xf0
 800669e:	4393      	bics	r3, r2
 80066a0:	613b      	str	r3, [r7, #16]
  tmpccmr2 |= ((TIM_ICFilter << 4U) & TIM_CCMR2_IC3F);
 80066a2:	683b      	ldr	r3, [r7, #0]
 80066a4:	011b      	lsls	r3, r3, #4
 80066a6:	22ff      	movs	r2, #255	@ 0xff
 80066a8:	4013      	ands	r3, r2
 80066aa:	693a      	ldr	r2, [r7, #16]
 80066ac:	4313      	orrs	r3, r2
 80066ae:	613b      	str	r3, [r7, #16]

  /* Select the Polarity and set the CC3E Bit */
  tmpccer &= ~(TIM_CCER_CC3P | TIM_CCER_CC3NP);
 80066b0:	697b      	ldr	r3, [r7, #20]
 80066b2:	4a0b      	ldr	r2, [pc, #44]	@ (80066e0 <TIM_TI3_SetConfig+0x7c>)
 80066b4:	4013      	ands	r3, r2
 80066b6:	617b      	str	r3, [r7, #20]
  tmpccer |= ((TIM_ICPolarity << 8U) & (TIM_CCER_CC3P | TIM_CCER_CC3NP));
 80066b8:	68bb      	ldr	r3, [r7, #8]
 80066ba:	021a      	lsls	r2, r3, #8
 80066bc:	23a0      	movs	r3, #160	@ 0xa0
 80066be:	011b      	lsls	r3, r3, #4
 80066c0:	4013      	ands	r3, r2
 80066c2:	697a      	ldr	r2, [r7, #20]
 80066c4:	4313      	orrs	r3, r2
 80066c6:	617b      	str	r3, [r7, #20]

  /* Write to TIMx CCMR2 and CCER registers */
  TIMx->CCMR2 = tmpccmr2;
 80066c8:	68fb      	ldr	r3, [r7, #12]
 80066ca:	693a      	ldr	r2, [r7, #16]
 80066cc:	61da      	str	r2, [r3, #28]
  TIMx->CCER = tmpccer;
 80066ce:	68fb      	ldr	r3, [r7, #12]
 80066d0:	697a      	ldr	r2, [r7, #20]
 80066d2:	621a      	str	r2, [r3, #32]
}
 80066d4:	46c0      	nop			@ (mov r8, r8)
 80066d6:	46bd      	mov	sp, r7
 80066d8:	b006      	add	sp, #24
 80066da:	bd80      	pop	{r7, pc}
 80066dc:	fffffeff 	.word	0xfffffeff
 80066e0:	fffff5ff 	.word	0xfffff5ff

080066e4 <TIM_TI4_SetConfig>:
  *        protected against un-initialized filter and polarity values.
  * @retval None
  */
static void TIM_TI4_SetConfig(TIM_TypeDef *TIMx, uint32_t TIM_ICPolarity, uint32_t TIM_ICSelection,
                              uint32_t TIM_ICFilter)
{
 80066e4:	b580      	push	{r7, lr}
 80066e6:	b086      	sub	sp, #24
 80066e8:	af00      	add	r7, sp, #0
 80066ea:	60f8      	str	r0, [r7, #12]
 80066ec:	60b9      	str	r1, [r7, #8]
 80066ee:	607a      	str	r2, [r7, #4]
 80066f0:	603b      	str	r3, [r7, #0]
  uint32_t tmpccmr2;
  uint32_t tmpccer;

  /* Disable the Channel 4: Reset the CC4E Bit */
  tmpccer = TIMx->CCER;
 80066f2:	68fb      	ldr	r3, [r7, #12]
 80066f4:	6a1b      	ldr	r3, [r3, #32]
 80066f6:	617b      	str	r3, [r7, #20]
  TIMx->CCER &= ~TIM_CCER_CC4E;
 80066f8:	68fb      	ldr	r3, [r7, #12]
 80066fa:	6a1b      	ldr	r3, [r3, #32]
 80066fc:	4a18      	ldr	r2, [pc, #96]	@ (8006760 <TIM_TI4_SetConfig+0x7c>)
 80066fe:	401a      	ands	r2, r3
 8006700:	68fb      	ldr	r3, [r7, #12]
 8006702:	621a      	str	r2, [r3, #32]
  tmpccmr2 = TIMx->CCMR2;
 8006704:	68fb      	ldr	r3, [r7, #12]
 8006706:	69db      	ldr	r3, [r3, #28]
 8006708:	613b      	str	r3, [r7, #16]

  /* Select the Input */
  tmpccmr2 &= ~TIM_CCMR2_CC4S;
 800670a:	693b      	ldr	r3, [r7, #16]
 800670c:	4a15      	ldr	r2, [pc, #84]	@ (8006764 <TIM_TI4_SetConfig+0x80>)
 800670e:	4013      	ands	r3, r2
 8006710:	613b      	str	r3, [r7, #16]
  tmpccmr2 |= (TIM_ICSelection << 8U);
 8006712:	687b      	ldr	r3, [r7, #4]
 8006714:	021b      	lsls	r3, r3, #8
 8006716:	693a      	ldr	r2, [r7, #16]
 8006718:	4313      	orrs	r3, r2
 800671a:	613b      	str	r3, [r7, #16]

  /* Set the filter */
  tmpccmr2 &= ~TIM_CCMR2_IC4F;
 800671c:	693b      	ldr	r3, [r7, #16]
 800671e:	4a12      	ldr	r2, [pc, #72]	@ (8006768 <TIM_TI4_SetConfig+0x84>)
 8006720:	4013      	ands	r3, r2
 8006722:	613b      	str	r3, [r7, #16]
  tmpccmr2 |= ((TIM_ICFilter << 12U) & TIM_CCMR2_IC4F);
 8006724:	683b      	ldr	r3, [r7, #0]
 8006726:	031b      	lsls	r3, r3, #12
 8006728:	041b      	lsls	r3, r3, #16
 800672a:	0c1b      	lsrs	r3, r3, #16
 800672c:	693a      	ldr	r2, [r7, #16]
 800672e:	4313      	orrs	r3, r2
 8006730:	613b      	str	r3, [r7, #16]

  /* Select the Polarity and set the CC4E Bit */
  tmpccer &= ~(TIM_CCER_CC4P | TIM_CCER_CC4NP);
 8006732:	697b      	ldr	r3, [r7, #20]
 8006734:	4a0d      	ldr	r2, [pc, #52]	@ (800676c <TIM_TI4_SetConfig+0x88>)
 8006736:	4013      	ands	r3, r2
 8006738:	617b      	str	r3, [r7, #20]
  tmpccer |= ((TIM_ICPolarity << 12U) & (TIM_CCER_CC4P | TIM_CCER_CC4NP));
 800673a:	68bb      	ldr	r3, [r7, #8]
 800673c:	031a      	lsls	r2, r3, #12
 800673e:	23a0      	movs	r3, #160	@ 0xa0
 8006740:	021b      	lsls	r3, r3, #8
 8006742:	4013      	ands	r3, r2
 8006744:	697a      	ldr	r2, [r7, #20]
 8006746:	4313      	orrs	r3, r2
 8006748:	617b      	str	r3, [r7, #20]

  /* Write to TIMx CCMR2 and CCER registers */
  TIMx->CCMR2 = tmpccmr2;
 800674a:	68fb      	ldr	r3, [r7, #12]
 800674c:	693a      	ldr	r2, [r7, #16]
 800674e:	61da      	str	r2, [r3, #28]
  TIMx->CCER = tmpccer ;
 8006750:	68fb      	ldr	r3, [r7, #12]
 8006752:	697a      	ldr	r2, [r7, #20]
 8006754:	621a      	str	r2, [r3, #32]
}
 8006756:	46c0      	nop			@ (mov r8, r8)
 8006758:	46bd      	mov	sp, r7
 800675a:	b006      	add	sp, #24
 800675c:	bd80      	pop	{r7, pc}
 800675e:	46c0      	nop			@ (mov r8, r8)
 8006760:	ffffefff 	.word	0xffffefff
 8006764:	fffffcff 	.word	0xfffffcff
 8006768:	ffff0fff 	.word	0xffff0fff
 800676c:	ffff5fff 	.word	0xffff5fff

08006770 <TIM_ETR_SetConfig>:
  *          This parameter must be a value between 0x00 and 0x0F
  * @retval None
  */
void TIM_ETR_SetConfig(TIM_TypeDef *TIMx, uint32_t TIM_ExtTRGPrescaler,
                       uint32_t TIM_ExtTRGPolarity, uint32_t ExtTRGFilter)
{
 8006770:	b580      	push	{r7, lr}
 8006772:	b086      	sub	sp, #24
 8006774:	af00      	add	r7, sp, #0
 8006776:	60f8      	str	r0, [r7, #12]
 8006778:	60b9      	str	r1, [r7, #8]
 800677a:	607a      	str	r2, [r7, #4]
 800677c:	603b      	str	r3, [r7, #0]
  uint32_t tmpsmcr;

  tmpsmcr = TIMx->SMCR;
 800677e:	68fb      	ldr	r3, [r7, #12]
 8006780:	689b      	ldr	r3, [r3, #8]
 8006782:	617b      	str	r3, [r7, #20]

  /* Reset the ETR Bits */
  tmpsmcr &= ~(TIM_SMCR_ETF | TIM_SMCR_ETPS | TIM_SMCR_ECE | TIM_SMCR_ETP);
 8006784:	697b      	ldr	r3, [r7, #20]
 8006786:	4a09      	ldr	r2, [pc, #36]	@ (80067ac <TIM_ETR_SetConfig+0x3c>)
 8006788:	4013      	ands	r3, r2
 800678a:	617b      	str	r3, [r7, #20]

  /* Set the Prescaler, the Filter value and the Polarity */
  tmpsmcr |= (uint32_t)(TIM_ExtTRGPrescaler | (TIM_ExtTRGPolarity | (ExtTRGFilter << 8U)));
 800678c:	683b      	ldr	r3, [r7, #0]
 800678e:	021a      	lsls	r2, r3, #8
 8006790:	687b      	ldr	r3, [r7, #4]
 8006792:	431a      	orrs	r2, r3
 8006794:	68bb      	ldr	r3, [r7, #8]
 8006796:	4313      	orrs	r3, r2
 8006798:	697a      	ldr	r2, [r7, #20]
 800679a:	4313      	orrs	r3, r2
 800679c:	617b      	str	r3, [r7, #20]

  /* Write to TIMx SMCR */
  TIMx->SMCR = tmpsmcr;
 800679e:	68fb      	ldr	r3, [r7, #12]
 80067a0:	697a      	ldr	r2, [r7, #20]
 80067a2:	609a      	str	r2, [r3, #8]
}
 80067a4:	46c0      	nop			@ (mov r8, r8)
 80067a6:	46bd      	mov	sp, r7
 80067a8:	b006      	add	sp, #24
 80067aa:	bd80      	pop	{r7, pc}
 80067ac:	ffff00ff 	.word	0xffff00ff

080067b0 <TIM_CCxChannelCmd>:
  * @param  ChannelState specifies the TIM Channel CCxE bit new state.
  *          This parameter can be: TIM_CCx_ENABLE or TIM_CCx_DISABLE.
  * @retval None
  */
void TIM_CCxChannelCmd(TIM_TypeDef *TIMx, uint32_t Channel, uint32_t ChannelState)
{
 80067b0:	b580      	push	{r7, lr}
 80067b2:	b086      	sub	sp, #24
 80067b4:	af00      	add	r7, sp, #0
 80067b6:	60f8      	str	r0, [r7, #12]
 80067b8:	60b9      	str	r1, [r7, #8]
 80067ba:	607a      	str	r2, [r7, #4]

  /* Check the parameters */
  assert_param(IS_TIM_CC1_INSTANCE(TIMx));
  assert_param(IS_TIM_CHANNELS(Channel));

  tmp = TIM_CCER_CC1E << (Channel & 0x1FU); /* 0x1FU = 31 bits max shift */
 80067bc:	68bb      	ldr	r3, [r7, #8]
 80067be:	221f      	movs	r2, #31
 80067c0:	4013      	ands	r3, r2
 80067c2:	2201      	movs	r2, #1
 80067c4:	409a      	lsls	r2, r3
 80067c6:	0013      	movs	r3, r2
 80067c8:	617b      	str	r3, [r7, #20]

  /* Reset the CCxE Bit */
  TIMx->CCER &= ~tmp;
 80067ca:	68fb      	ldr	r3, [r7, #12]
 80067cc:	6a1b      	ldr	r3, [r3, #32]
 80067ce:	697a      	ldr	r2, [r7, #20]
 80067d0:	43d2      	mvns	r2, r2
 80067d2:	401a      	ands	r2, r3
 80067d4:	68fb      	ldr	r3, [r7, #12]
 80067d6:	621a      	str	r2, [r3, #32]

  /* Set or reset the CCxE Bit */
  TIMx->CCER |= (uint32_t)(ChannelState << (Channel & 0x1FU)); /* 0x1FU = 31 bits max shift */
 80067d8:	68fb      	ldr	r3, [r7, #12]
 80067da:	6a1a      	ldr	r2, [r3, #32]
 80067dc:	68bb      	ldr	r3, [r7, #8]
 80067de:	211f      	movs	r1, #31
 80067e0:	400b      	ands	r3, r1
 80067e2:	6879      	ldr	r1, [r7, #4]
 80067e4:	4099      	lsls	r1, r3
 80067e6:	000b      	movs	r3, r1
 80067e8:	431a      	orrs	r2, r3
 80067ea:	68fb      	ldr	r3, [r7, #12]
 80067ec:	621a      	str	r2, [r3, #32]
}
 80067ee:	46c0      	nop			@ (mov r8, r8)
 80067f0:	46bd      	mov	sp, r7
 80067f2:	b006      	add	sp, #24
 80067f4:	bd80      	pop	{r7, pc}
	...

080067f8 <HAL_TIMEx_MasterConfigSynchronization>:
  *         mode.
  * @retval HAL status
  */
HAL_StatusTypeDef HAL_TIMEx_MasterConfigSynchronization(TIM_HandleTypeDef *htim,
                                                        const TIM_MasterConfigTypeDef *sMasterConfig)
{
 80067f8:	b580      	push	{r7, lr}
 80067fa:	b084      	sub	sp, #16
 80067fc:	af00      	add	r7, sp, #0
 80067fe:	6078      	str	r0, [r7, #4]
 8006800:	6039      	str	r1, [r7, #0]
  assert_param(IS_TIM_MASTER_INSTANCE(htim->Instance));
  assert_param(IS_TIM_TRGO_SOURCE(sMasterConfig->MasterOutputTrigger));
  assert_param(IS_TIM_MSM_STATE(sMasterConfig->MasterSlaveMode));

  /* Check input state */
  __HAL_LOCK(htim);
 8006802:	687b      	ldr	r3, [r7, #4]
 8006804:	223c      	movs	r2, #60	@ 0x3c
 8006806:	5c9b      	ldrb	r3, [r3, r2]
 8006808:	2b01      	cmp	r3, #1
 800680a:	d101      	bne.n	8006810 <HAL_TIMEx_MasterConfigSynchronization+0x18>
 800680c:	2302      	movs	r3, #2
 800680e:	e055      	b.n	80068bc <HAL_TIMEx_MasterConfigSynchronization+0xc4>
 8006810:	687b      	ldr	r3, [r7, #4]
 8006812:	223c      	movs	r2, #60	@ 0x3c
 8006814:	2101      	movs	r1, #1
 8006816:	5499      	strb	r1, [r3, r2]

  /* Change the handler state */
  htim->State = HAL_TIM_STATE_BUSY;
 8006818:	687b      	ldr	r3, [r7, #4]
 800681a:	223d      	movs	r2, #61	@ 0x3d
 800681c:	2102      	movs	r1, #2
 800681e:	5499      	strb	r1, [r3, r2]

  /* Get the TIMx CR2 register value */
  tmpcr2 = htim->Instance->CR2;
 8006820:	687b      	ldr	r3, [r7, #4]
 8006822:	681b      	ldr	r3, [r3, #0]
 8006824:	685b      	ldr	r3, [r3, #4]
 8006826:	60fb      	str	r3, [r7, #12]

  /* Get the TIMx SMCR register value */
  tmpsmcr = htim->Instance->SMCR;
 8006828:	687b      	ldr	r3, [r7, #4]
 800682a:	681b      	ldr	r3, [r3, #0]
 800682c:	689b      	ldr	r3, [r3, #8]
 800682e:	60bb      	str	r3, [r7, #8]

  /* If the timer supports ADC synchronization through TRGO2, set the master mode selection 2 */
  if (IS_TIM_TRGO2_INSTANCE(htim->Instance))
 8006830:	687b      	ldr	r3, [r7, #4]
 8006832:	681b      	ldr	r3, [r3, #0]
 8006834:	4a23      	ldr	r2, [pc, #140]	@ (80068c4 <HAL_TIMEx_MasterConfigSynchronization+0xcc>)
 8006836:	4293      	cmp	r3, r2
 8006838:	d108      	bne.n	800684c <HAL_TIMEx_MasterConfigSynchronization+0x54>
  {
    /* Check the parameters */
    assert_param(IS_TIM_TRGO2_SOURCE(sMasterConfig->MasterOutputTrigger2));

    /* Clear the MMS2 bits */
    tmpcr2 &= ~TIM_CR2_MMS2;
 800683a:	68fb      	ldr	r3, [r7, #12]
 800683c:	4a22      	ldr	r2, [pc, #136]	@ (80068c8 <HAL_TIMEx_MasterConfigSynchronization+0xd0>)
 800683e:	4013      	ands	r3, r2
 8006840:	60fb      	str	r3, [r7, #12]
    /* Select the TRGO2 source*/
    tmpcr2 |= sMasterConfig->MasterOutputTrigger2;
 8006842:	683b      	ldr	r3, [r7, #0]
 8006844:	685b      	ldr	r3, [r3, #4]
 8006846:	68fa      	ldr	r2, [r7, #12]
 8006848:	4313      	orrs	r3, r2
 800684a:	60fb      	str	r3, [r7, #12]
  }

  /* Reset the MMS Bits */
  tmpcr2 &= ~TIM_CR2_MMS;
 800684c:	68fb      	ldr	r3, [r7, #12]
 800684e:	2270      	movs	r2, #112	@ 0x70
 8006850:	4393      	bics	r3, r2
 8006852:	60fb      	str	r3, [r7, #12]
  /* Select the TRGO source */
  tmpcr2 |=  sMasterConfig->MasterOutputTrigger;
 8006854:	683b      	ldr	r3, [r7, #0]
 8006856:	681b      	ldr	r3, [r3, #0]
 8006858:	68fa      	ldr	r2, [r7, #12]
 800685a:	4313      	orrs	r3, r2
 800685c:	60fb      	str	r3, [r7, #12]

  /* Update TIMx CR2 */
  htim->Instance->CR2 = tmpcr2;
 800685e:	687b      	ldr	r3, [r7, #4]
 8006860:	681b      	ldr	r3, [r3, #0]
 8006862:	68fa      	ldr	r2, [r7, #12]
 8006864:	605a      	str	r2, [r3, #4]

  if (IS_TIM_SLAVE_INSTANCE(htim->Instance))
 8006866:	687b      	ldr	r3, [r7, #4]
 8006868:	681b      	ldr	r3, [r3, #0]
 800686a:	4a16      	ldr	r2, [pc, #88]	@ (80068c4 <HAL_TIMEx_MasterConfigSynchronization+0xcc>)
 800686c:	4293      	cmp	r3, r2
 800686e:	d00f      	beq.n	8006890 <HAL_TIMEx_MasterConfigSynchronization+0x98>
 8006870:	687b      	ldr	r3, [r7, #4]
 8006872:	681a      	ldr	r2, [r3, #0]
 8006874:	2380      	movs	r3, #128	@ 0x80
 8006876:	05db      	lsls	r3, r3, #23
 8006878:	429a      	cmp	r2, r3
 800687a:	d009      	beq.n	8006890 <HAL_TIMEx_MasterConfigSynchronization+0x98>
 800687c:	687b      	ldr	r3, [r7, #4]
 800687e:	681b      	ldr	r3, [r3, #0]
 8006880:	4a12      	ldr	r2, [pc, #72]	@ (80068cc <HAL_TIMEx_MasterConfigSynchronization+0xd4>)
 8006882:	4293      	cmp	r3, r2
 8006884:	d004      	beq.n	8006890 <HAL_TIMEx_MasterConfigSynchronization+0x98>
 8006886:	687b      	ldr	r3, [r7, #4]
 8006888:	681b      	ldr	r3, [r3, #0]
 800688a:	4a11      	ldr	r2, [pc, #68]	@ (80068d0 <HAL_TIMEx_MasterConfigSynchronization+0xd8>)
 800688c:	4293      	cmp	r3, r2
 800688e:	d10c      	bne.n	80068aa <HAL_TIMEx_MasterConfigSynchronization+0xb2>
  {
    /* Reset the MSM Bit */
    tmpsmcr &= ~TIM_SMCR_MSM;
 8006890:	68bb      	ldr	r3, [r7, #8]
 8006892:	2280      	movs	r2, #128	@ 0x80
 8006894:	4393      	bics	r3, r2
 8006896:	60bb      	str	r3, [r7, #8]
    /* Set master mode */
    tmpsmcr |= sMasterConfig->MasterSlaveMode;
 8006898:	683b      	ldr	r3, [r7, #0]
 800689a:	689b      	ldr	r3, [r3, #8]
 800689c:	68ba      	ldr	r2, [r7, #8]
 800689e:	4313      	orrs	r3, r2
 80068a0:	60bb      	str	r3, [r7, #8]

    /* Update TIMx SMCR */
    htim->Instance->SMCR = tmpsmcr;
 80068a2:	687b      	ldr	r3, [r7, #4]
 80068a4:	681b      	ldr	r3, [r3, #0]
 80068a6:	68ba      	ldr	r2, [r7, #8]
 80068a8:	609a      	str	r2, [r3, #8]
  }

  /* Change the htim state */
  htim->State = HAL_TIM_STATE_READY;
 80068aa:	687b      	ldr	r3, [r7, #4]
 80068ac:	223d      	movs	r2, #61	@ 0x3d
 80068ae:	2101      	movs	r1, #1
 80068b0:	5499      	strb	r1, [r3, r2]

  __HAL_UNLOCK(htim);
 80068b2:	687b      	ldr	r3, [r7, #4]
 80068b4:	223c      	movs	r2, #60	@ 0x3c
 80068b6:	2100      	movs	r1, #0
 80068b8:	5499      	strb	r1, [r3, r2]

  return HAL_OK;
 80068ba:	2300      	movs	r3, #0
}
 80068bc:	0018      	movs	r0, r3
 80068be:	46bd      	mov	sp, r7
 80068c0:	b004      	add	sp, #16
 80068c2:	bd80      	pop	{r7, pc}
 80068c4:	40012c00 	.word	0x40012c00
 80068c8:	ff0fffff 	.word	0xff0fffff
 80068cc:	40000400 	.word	0x40000400
 80068d0:	40014000 	.word	0x40014000

080068d4 <HAL_TIMEx_ConfigBreakDeadTime>:
  *         interrupt can be enabled by calling the @ref __HAL_TIM_ENABLE_IT macro.
  * @retval HAL status
  */
HAL_StatusTypeDef HAL_TIMEx_ConfigBreakDeadTime(TIM_HandleTypeDef *htim,
                                                const TIM_BreakDeadTimeConfigTypeDef *sBreakDeadTimeConfig)
{
 80068d4:	b580      	push	{r7, lr}
 80068d6:	b084      	sub	sp, #16
 80068d8:	af00      	add	r7, sp, #0
 80068da:	6078      	str	r0, [r7, #4]
 80068dc:	6039      	str	r1, [r7, #0]
  /* Keep this variable initialized to 0 as it is used to configure BDTR register */
  uint32_t tmpbdtr = 0U;
 80068de:	2300      	movs	r3, #0
 80068e0:	60fb      	str	r3, [r7, #12]
  assert_param(IS_TIM_BREAK_FILTER(sBreakDeadTimeConfig->BreakFilter));
  assert_param(IS_TIM_AUTOMATIC_OUTPUT_STATE(sBreakDeadTimeConfig->AutomaticOutput));
  assert_param(IS_TIM_BREAK_AFMODE(sBreakDeadTimeConfig->BreakAFMode));

  /* Check input state */
  __HAL_LOCK(htim);
 80068e2:	687b      	ldr	r3, [r7, #4]
 80068e4:	223c      	movs	r2, #60	@ 0x3c
 80068e6:	5c9b      	ldrb	r3, [r3, r2]
 80068e8:	2b01      	cmp	r3, #1
 80068ea:	d101      	bne.n	80068f0 <HAL_TIMEx_ConfigBreakDeadTime+0x1c>
 80068ec:	2302      	movs	r3, #2
 80068ee:	e06f      	b.n	80069d0 <HAL_TIMEx_ConfigBreakDeadTime+0xfc>
 80068f0:	687b      	ldr	r3, [r7, #4]
 80068f2:	223c      	movs	r2, #60	@ 0x3c
 80068f4:	2101      	movs	r1, #1
 80068f6:	5499      	strb	r1, [r3, r2]

  /* Set the Lock level, the Break enable Bit and the Polarity, the OSSR State,
     the OSSI State, the dead time value and the Automatic Output Enable Bit */

  /* Set the BDTR bits */
  MODIFY_REG(tmpbdtr, TIM_BDTR_DTG, sBreakDeadTimeConfig->DeadTime);
 80068f8:	68fb      	ldr	r3, [r7, #12]
 80068fa:	22ff      	movs	r2, #255	@ 0xff
 80068fc:	4393      	bics	r3, r2
 80068fe:	001a      	movs	r2, r3
 8006900:	683b      	ldr	r3, [r7, #0]
 8006902:	68db      	ldr	r3, [r3, #12]
 8006904:	4313      	orrs	r3, r2
 8006906:	60fb      	str	r3, [r7, #12]
  MODIFY_REG(tmpbdtr, TIM_BDTR_LOCK, sBreakDeadTimeConfig->LockLevel);
 8006908:	68fb      	ldr	r3, [r7, #12]
 800690a:	4a33      	ldr	r2, [pc, #204]	@ (80069d8 <HAL_TIMEx_ConfigBreakDeadTime+0x104>)
 800690c:	401a      	ands	r2, r3
 800690e:	683b      	ldr	r3, [r7, #0]
 8006910:	689b      	ldr	r3, [r3, #8]
 8006912:	4313      	orrs	r3, r2
 8006914:	60fb      	str	r3, [r7, #12]
  MODIFY_REG(tmpbdtr, TIM_BDTR_OSSI, sBreakDeadTimeConfig->OffStateIDLEMode);
 8006916:	68fb      	ldr	r3, [r7, #12]
 8006918:	4a30      	ldr	r2, [pc, #192]	@ (80069dc <HAL_TIMEx_ConfigBreakDeadTime+0x108>)
 800691a:	401a      	ands	r2, r3
 800691c:	683b      	ldr	r3, [r7, #0]
 800691e:	685b      	ldr	r3, [r3, #4]
 8006920:	4313      	orrs	r3, r2
 8006922:	60fb      	str	r3, [r7, #12]
  MODIFY_REG(tmpbdtr, TIM_BDTR_OSSR, sBreakDeadTimeConfig->OffStateRunMode);
 8006924:	68fb      	ldr	r3, [r7, #12]
 8006926:	4a2e      	ldr	r2, [pc, #184]	@ (80069e0 <HAL_TIMEx_ConfigBreakDeadTime+0x10c>)
 8006928:	401a      	ands	r2, r3
 800692a:	683b      	ldr	r3, [r7, #0]
 800692c:	681b      	ldr	r3, [r3, #0]
 800692e:	4313      	orrs	r3, r2
 8006930:	60fb      	str	r3, [r7, #12]
  MODIFY_REG(tmpbdtr, TIM_BDTR_BKE, sBreakDeadTimeConfig->BreakState);
 8006932:	68fb      	ldr	r3, [r7, #12]
 8006934:	4a2b      	ldr	r2, [pc, #172]	@ (80069e4 <HAL_TIMEx_ConfigBreakDeadTime+0x110>)
 8006936:	401a      	ands	r2, r3
 8006938:	683b      	ldr	r3, [r7, #0]
 800693a:	691b      	ldr	r3, [r3, #16]
 800693c:	4313      	orrs	r3, r2
 800693e:	60fb      	str	r3, [r7, #12]
  MODIFY_REG(tmpbdtr, TIM_BDTR_BKP, sBreakDeadTimeConfig->BreakPolarity);
 8006940:	68fb      	ldr	r3, [r7, #12]
 8006942:	4a29      	ldr	r2, [pc, #164]	@ (80069e8 <HAL_TIMEx_ConfigBreakDeadTime+0x114>)
 8006944:	401a      	ands	r2, r3
 8006946:	683b      	ldr	r3, [r7, #0]
 8006948:	695b      	ldr	r3, [r3, #20]
 800694a:	4313      	orrs	r3, r2
 800694c:	60fb      	str	r3, [r7, #12]
  MODIFY_REG(tmpbdtr, TIM_BDTR_AOE, sBreakDeadTimeConfig->AutomaticOutput);
 800694e:	68fb      	ldr	r3, [r7, #12]
 8006950:	4a26      	ldr	r2, [pc, #152]	@ (80069ec <HAL_TIMEx_ConfigBreakDeadTime+0x118>)
 8006952:	401a      	ands	r2, r3
 8006954:	683b      	ldr	r3, [r7, #0]
 8006956:	6b1b      	ldr	r3, [r3, #48]	@ 0x30
 8006958:	4313      	orrs	r3, r2
 800695a:	60fb      	str	r3, [r7, #12]
  MODIFY_REG(tmpbdtr, TIM_BDTR_BKF, (sBreakDeadTimeConfig->BreakFilter << TIM_BDTR_BKF_Pos));
 800695c:	68fb      	ldr	r3, [r7, #12]
 800695e:	4a24      	ldr	r2, [pc, #144]	@ (80069f0 <HAL_TIMEx_ConfigBreakDeadTime+0x11c>)
 8006960:	401a      	ands	r2, r3
 8006962:	683b      	ldr	r3, [r7, #0]
 8006964:	699b      	ldr	r3, [r3, #24]
 8006966:	041b      	lsls	r3, r3, #16
 8006968:	4313      	orrs	r3, r2
 800696a:	60fb      	str	r3, [r7, #12]
  MODIFY_REG(tmpbdtr, TIM_BDTR_BKBID, sBreakDeadTimeConfig->BreakAFMode);
 800696c:	68fb      	ldr	r3, [r7, #12]
 800696e:	4a21      	ldr	r2, [pc, #132]	@ (80069f4 <HAL_TIMEx_ConfigBreakDeadTime+0x120>)
 8006970:	401a      	ands	r2, r3
 8006972:	683b      	ldr	r3, [r7, #0]
 8006974:	69db      	ldr	r3, [r3, #28]
 8006976:	4313      	orrs	r3, r2
 8006978:	60fb      	str	r3, [r7, #12]

  if (IS_TIM_BKIN2_INSTANCE(htim->Instance))
 800697a:	687b      	ldr	r3, [r7, #4]
 800697c:	681b      	ldr	r3, [r3, #0]
 800697e:	4a1e      	ldr	r2, [pc, #120]	@ (80069f8 <HAL_TIMEx_ConfigBreakDeadTime+0x124>)
 8006980:	4293      	cmp	r3, r2
 8006982:	d11c      	bne.n	80069be <HAL_TIMEx_ConfigBreakDeadTime+0xea>
    assert_param(IS_TIM_BREAK2_POLARITY(sBreakDeadTimeConfig->Break2Polarity));
    assert_param(IS_TIM_BREAK_FILTER(sBreakDeadTimeConfig->Break2Filter));
    assert_param(IS_TIM_BREAK2_AFMODE(sBreakDeadTimeConfig->Break2AFMode));

    /* Set the BREAK2 input related BDTR bits */
    MODIFY_REG(tmpbdtr, TIM_BDTR_BK2F, (sBreakDeadTimeConfig->Break2Filter << TIM_BDTR_BK2F_Pos));
 8006984:	68fb      	ldr	r3, [r7, #12]
 8006986:	4a1d      	ldr	r2, [pc, #116]	@ (80069fc <HAL_TIMEx_ConfigBreakDeadTime+0x128>)
 8006988:	401a      	ands	r2, r3
 800698a:	683b      	ldr	r3, [r7, #0]
 800698c:	6a9b      	ldr	r3, [r3, #40]	@ 0x28
 800698e:	051b      	lsls	r3, r3, #20
 8006990:	4313      	orrs	r3, r2
 8006992:	60fb      	str	r3, [r7, #12]
    MODIFY_REG(tmpbdtr, TIM_BDTR_BK2E, sBreakDeadTimeConfig->Break2State);
 8006994:	68fb      	ldr	r3, [r7, #12]
 8006996:	4a1a      	ldr	r2, [pc, #104]	@ (8006a00 <HAL_TIMEx_ConfigBreakDeadTime+0x12c>)
 8006998:	401a      	ands	r2, r3
 800699a:	683b      	ldr	r3, [r7, #0]
 800699c:	6a1b      	ldr	r3, [r3, #32]
 800699e:	4313      	orrs	r3, r2
 80069a0:	60fb      	str	r3, [r7, #12]
    MODIFY_REG(tmpbdtr, TIM_BDTR_BK2P, sBreakDeadTimeConfig->Break2Polarity);
 80069a2:	68fb      	ldr	r3, [r7, #12]
 80069a4:	4a17      	ldr	r2, [pc, #92]	@ (8006a04 <HAL_TIMEx_ConfigBreakDeadTime+0x130>)
 80069a6:	401a      	ands	r2, r3
 80069a8:	683b      	ldr	r3, [r7, #0]
 80069aa:	6a5b      	ldr	r3, [r3, #36]	@ 0x24
 80069ac:	4313      	orrs	r3, r2
 80069ae:	60fb      	str	r3, [r7, #12]
    MODIFY_REG(tmpbdtr, TIM_BDTR_BK2BID, sBreakDeadTimeConfig->Break2AFMode);
 80069b0:	68fb      	ldr	r3, [r7, #12]
 80069b2:	4a15      	ldr	r2, [pc, #84]	@ (8006a08 <HAL_TIMEx_ConfigBreakDeadTime+0x134>)
 80069b4:	401a      	ands	r2, r3
 80069b6:	683b      	ldr	r3, [r7, #0]
 80069b8:	6adb      	ldr	r3, [r3, #44]	@ 0x2c
 80069ba:	4313      	orrs	r3, r2
 80069bc:	60fb      	str	r3, [r7, #12]
  }

  /* Set TIMx_BDTR */
  htim->Instance->BDTR = tmpbdtr;
 80069be:	687b      	ldr	r3, [r7, #4]
 80069c0:	681b      	ldr	r3, [r3, #0]
 80069c2:	68fa      	ldr	r2, [r7, #12]
 80069c4:	645a      	str	r2, [r3, #68]	@ 0x44

  __HAL_UNLOCK(htim);
 80069c6:	687b      	ldr	r3, [r7, #4]
 80069c8:	223c      	movs	r2, #60	@ 0x3c
 80069ca:	2100      	movs	r1, #0
 80069cc:	5499      	strb	r1, [r3, r2]

  return HAL_OK;
 80069ce:	2300      	movs	r3, #0
}
 80069d0:	0018      	movs	r0, r3
 80069d2:	46bd      	mov	sp, r7
 80069d4:	b004      	add	sp, #16
 80069d6:	bd80      	pop	{r7, pc}
 80069d8:	fffffcff 	.word	0xfffffcff
 80069dc:	fffffbff 	.word	0xfffffbff
 80069e0:	fffff7ff 	.word	0xfffff7ff
 80069e4:	ffffefff 	.word	0xffffefff
 80069e8:	ffffdfff 	.word	0xffffdfff
 80069ec:	ffffbfff 	.word	0xffffbfff
 80069f0:	fff0ffff 	.word	0xfff0ffff
 80069f4:	efffffff 	.word	0xefffffff
 80069f8:	40012c00 	.word	0x40012c00
 80069fc:	ff0fffff 	.word	0xff0fffff
 8006a00:	feffffff 	.word	0xfeffffff
 8006a04:	fdffffff 	.word	0xfdffffff
 8006a08:	dfffffff 	.word	0xdfffffff

08006a0c <HAL_TIMEx_CommutCallback>:
  * @brief  Commutation callback in non-blocking mode
  * @param  htim TIM handle
  * @retval None
  */
__weak void HAL_TIMEx_CommutCallback(TIM_HandleTypeDef *htim)
{
 8006a0c:	b580      	push	{r7, lr}
 8006a0e:	b082      	sub	sp, #8
 8006a10:	af00      	add	r7, sp, #0
 8006a12:	6078      	str	r0, [r7, #4]
  UNUSED(htim);

  /* NOTE : This function should not be modified, when the callback is needed,
            the HAL_TIMEx_CommutCallback could be implemented in the user file
   */
}
 8006a14:	46c0      	nop			@ (mov r8, r8)
 8006a16:	46bd      	mov	sp, r7
 8006a18:	b002      	add	sp, #8
 8006a1a:	bd80      	pop	{r7, pc}

08006a1c <HAL_TIMEx_BreakCallback>:
  * @brief  Break detection callback in non-blocking mode
  * @param  htim TIM handle
  * @retval None
  */
__weak void HAL_TIMEx_BreakCallback(TIM_HandleTypeDef *htim)
{
 8006a1c:	b580      	push	{r7, lr}
 8006a1e:	b082      	sub	sp, #8
 8006a20:	af00      	add	r7, sp, #0
 8006a22:	6078      	str	r0, [r7, #4]
  UNUSED(htim);

  /* NOTE : This function should not be modified, when the callback is needed,
            the HAL_TIMEx_BreakCallback could be implemented in the user file
   */
}
 8006a24:	46c0      	nop			@ (mov r8, r8)
 8006a26:	46bd      	mov	sp, r7
 8006a28:	b002      	add	sp, #8
 8006a2a:	bd80      	pop	{r7, pc}

08006a2c <HAL_TIMEx_Break2Callback>:
  * @brief  Break2 detection callback in non blocking mode
  * @param  htim: TIM handle
  * @retval None
  */
__weak void HAL_TIMEx_Break2Callback(TIM_HandleTypeDef *htim)
{
 8006a2c:	b580      	push	{r7, lr}
 8006a2e:	b082      	sub	sp, #8
 8006a30:	af00      	add	r7, sp, #0
 8006a32:	6078      	str	r0, [r7, #4]
  UNUSED(htim);

  /* NOTE : This function Should not be modified, when the callback is needed,
            the HAL_TIMEx_Break2Callback could be implemented in the user file
   */
}
 8006a34:	46c0      	nop			@ (mov r8, r8)
 8006a36:	46bd      	mov	sp, r7
 8006a38:	b002      	add	sp, #8
 8006a3a:	bd80      	pop	{r7, pc}

08006a3c <HAL_UART_Init>:
  *        parameters in the UART_InitTypeDef and initialize the associated handle.
  * @param huart UART handle.
  * @retval HAL status
  */
HAL_StatusTypeDef HAL_UART_Init(UART_HandleTypeDef *huart)
{
 8006a3c:	b580      	push	{r7, lr}
 8006a3e:	b082      	sub	sp, #8
 8006a40:	af00      	add	r7, sp, #0
 8006a42:	6078      	str	r0, [r7, #4]
  /* Check the UART handle allocation */
  if (huart == NULL)
 8006a44:	687b      	ldr	r3, [r7, #4]
 8006a46:	2b00      	cmp	r3, #0
 8006a48:	d101      	bne.n	8006a4e <HAL_UART_Init+0x12>
  {
    return HAL_ERROR;
 8006a4a:	2301      	movs	r3, #1
 8006a4c:	e046      	b.n	8006adc <HAL_UART_Init+0xa0>
  {
    /* Check the parameters */
    assert_param((IS_UART_INSTANCE(huart->Instance)) || (IS_LPUART_INSTANCE(huart->Instance)));
  }

  if (huart->gState == HAL_UART_STATE_RESET)
 8006a4e:	687b      	ldr	r3, [r7, #4]
 8006a50:	2288      	movs	r2, #136	@ 0x88
 8006a52:	589b      	ldr	r3, [r3, r2]
 8006a54:	2b00      	cmp	r3, #0
 8006a56:	d107      	bne.n	8006a68 <HAL_UART_Init+0x2c>
  {
    /* Allocate lock resource and initialize it */
    huart->Lock = HAL_UNLOCKED;
 8006a58:	687b      	ldr	r3, [r7, #4]
 8006a5a:	2284      	movs	r2, #132	@ 0x84
 8006a5c:	2100      	movs	r1, #0
 8006a5e:	5499      	strb	r1, [r3, r2]

    /* Init the low level hardware */
    huart->MspInitCallback(huart);
#else
    /* Init the low level hardware : GPIO, CLOCK */
    HAL_UART_MspInit(huart);
 8006a60:	687b      	ldr	r3, [r7, #4]
 8006a62:	0018      	movs	r0, r3
 8006a64:	f7fb f830 	bl	8001ac8 <HAL_UART_MspInit>
#endif /* (USE_HAL_UART_REGISTER_CALLBACKS) */
  }

  huart->gState = HAL_UART_STATE_BUSY;
 8006a68:	687b      	ldr	r3, [r7, #4]
 8006a6a:	2288      	movs	r2, #136	@ 0x88
 8006a6c:	2124      	movs	r1, #36	@ 0x24
 8006a6e:	5099      	str	r1, [r3, r2]

  __HAL_UART_DISABLE(huart);
 8006a70:	687b      	ldr	r3, [r7, #4]
 8006a72:	681b      	ldr	r3, [r3, #0]
 8006a74:	681a      	ldr	r2, [r3, #0]
 8006a76:	687b      	ldr	r3, [r7, #4]
 8006a78:	681b      	ldr	r3, [r3, #0]
 8006a7a:	2101      	movs	r1, #1
 8006a7c:	438a      	bics	r2, r1
 8006a7e:	601a      	str	r2, [r3, #0]

  /* Perform advanced settings configuration */
  /* For some items, configuration requires to be done prior TE and RE bits are set */
  if (huart->AdvancedInit.AdvFeatureInit != UART_ADVFEATURE_NO_INIT)
 8006a80:	687b      	ldr	r3, [r7, #4]
 8006a82:	6a9b      	ldr	r3, [r3, #40]	@ 0x28
 8006a84:	2b00      	cmp	r3, #0
 8006a86:	d003      	beq.n	8006a90 <HAL_UART_Init+0x54>
  {
    UART_AdvFeatureConfig(huart);
 8006a88:	687b      	ldr	r3, [r7, #4]
 8006a8a:	0018      	movs	r0, r3
 8006a8c:	f000 faea 	bl	8007064 <UART_AdvFeatureConfig>
  }

  /* Set the UART Communication parameters */
  if (UART_SetConfig(huart) == HAL_ERROR)
 8006a90:	687b      	ldr	r3, [r7, #4]
 8006a92:	0018      	movs	r0, r3
 8006a94:	f000 f828 	bl	8006ae8 <UART_SetConfig>
 8006a98:	0003      	movs	r3, r0
 8006a9a:	2b01      	cmp	r3, #1
 8006a9c:	d101      	bne.n	8006aa2 <HAL_UART_Init+0x66>
  {
    return HAL_ERROR;
 8006a9e:	2301      	movs	r3, #1
 8006aa0:	e01c      	b.n	8006adc <HAL_UART_Init+0xa0>
  }

  /* In asynchronous mode, the following bits must be kept cleared:
  - LINEN and CLKEN bits in the USART_CR2 register,
  - SCEN, HDSEL and IREN  bits in the USART_CR3 register.*/
  CLEAR_BIT(huart->Instance->CR2, (USART_CR2_LINEN | USART_CR2_CLKEN));
 8006aa2:	687b      	ldr	r3, [r7, #4]
 8006aa4:	681b      	ldr	r3, [r3, #0]
 8006aa6:	685a      	ldr	r2, [r3, #4]
 8006aa8:	687b      	ldr	r3, [r7, #4]
 8006aaa:	681b      	ldr	r3, [r3, #0]
 8006aac:	490d      	ldr	r1, [pc, #52]	@ (8006ae4 <HAL_UART_Init+0xa8>)
 8006aae:	400a      	ands	r2, r1
 8006ab0:	605a      	str	r2, [r3, #4]
  CLEAR_BIT(huart->Instance->CR3, (USART_CR3_SCEN | USART_CR3_HDSEL | USART_CR3_IREN));
 8006ab2:	687b      	ldr	r3, [r7, #4]
 8006ab4:	681b      	ldr	r3, [r3, #0]
 8006ab6:	689a      	ldr	r2, [r3, #8]
 8006ab8:	687b      	ldr	r3, [r7, #4]
 8006aba:	681b      	ldr	r3, [r3, #0]
 8006abc:	212a      	movs	r1, #42	@ 0x2a
 8006abe:	438a      	bics	r2, r1
 8006ac0:	609a      	str	r2, [r3, #8]

  __HAL_UART_ENABLE(huart);
 8006ac2:	687b      	ldr	r3, [r7, #4]
 8006ac4:	681b      	ldr	r3, [r3, #0]
 8006ac6:	681a      	ldr	r2, [r3, #0]
 8006ac8:	687b      	ldr	r3, [r7, #4]
 8006aca:	681b      	ldr	r3, [r3, #0]
 8006acc:	2101      	movs	r1, #1
 8006ace:	430a      	orrs	r2, r1
 8006ad0:	601a      	str	r2, [r3, #0]

  /* TEACK and/or REACK to check before moving huart->gState and huart->RxState to Ready */
  return (UART_CheckIdleState(huart));
 8006ad2:	687b      	ldr	r3, [r7, #4]
 8006ad4:	0018      	movs	r0, r3
 8006ad6:	f000 fb79 	bl	80071cc <UART_CheckIdleState>
 8006ada:	0003      	movs	r3, r0
}
 8006adc:	0018      	movs	r0, r3
 8006ade:	46bd      	mov	sp, r7
 8006ae0:	b002      	add	sp, #8
 8006ae2:	bd80      	pop	{r7, pc}
 8006ae4:	ffffb7ff 	.word	0xffffb7ff

08006ae8 <UART_SetConfig>:
  * @brief Configure the UART peripheral.
  * @param huart UART handle.
  * @retval HAL status
  */
HAL_StatusTypeDef UART_SetConfig(UART_HandleTypeDef *huart)
{
 8006ae8:	b5b0      	push	{r4, r5, r7, lr}
 8006aea:	b090      	sub	sp, #64	@ 0x40
 8006aec:	af00      	add	r7, sp, #0
 8006aee:	6278      	str	r0, [r7, #36]	@ 0x24
  uint32_t tmpreg;
  uint16_t brrtemp;
  UART_ClockSourceTypeDef clocksource;
  uint32_t usartdiv;
  HAL_StatusTypeDef ret               = HAL_OK;
 8006af0:	231a      	movs	r3, #26
 8006af2:	2220      	movs	r2, #32
 8006af4:	189b      	adds	r3, r3, r2
 8006af6:	19db      	adds	r3, r3, r7
 8006af8:	2200      	movs	r2, #0
 8006afa:	701a      	strb	r2, [r3, #0]
  *  the UART Word Length, Parity, Mode and oversampling:
  *  set the M bits according to huart->Init.WordLength value
  *  set PCE and PS bits according to huart->Init.Parity value
  *  set TE and RE bits according to huart->Init.Mode value
  *  set OVER8 bit according to huart->Init.OverSampling value */
  tmpreg = (uint32_t)huart->Init.WordLength | huart->Init.Parity | huart->Init.Mode | huart->Init.OverSampling ;
 8006afc:	6a7b      	ldr	r3, [r7, #36]	@ 0x24
 8006afe:	689a      	ldr	r2, [r3, #8]
 8006b00:	6a7b      	ldr	r3, [r7, #36]	@ 0x24
 8006b02:	691b      	ldr	r3, [r3, #16]
 8006b04:	431a      	orrs	r2, r3
 8006b06:	6a7b      	ldr	r3, [r7, #36]	@ 0x24
 8006b08:	695b      	ldr	r3, [r3, #20]
 8006b0a:	431a      	orrs	r2, r3
 8006b0c:	6a7b      	ldr	r3, [r7, #36]	@ 0x24
 8006b0e:	69db      	ldr	r3, [r3, #28]
 8006b10:	4313      	orrs	r3, r2
 8006b12:	63fb      	str	r3, [r7, #60]	@ 0x3c
  MODIFY_REG(huart->Instance->CR1, USART_CR1_FIELDS, tmpreg);
 8006b14:	6a7b      	ldr	r3, [r7, #36]	@ 0x24
 8006b16:	681b      	ldr	r3, [r3, #0]
 8006b18:	681b      	ldr	r3, [r3, #0]
 8006b1a:	4aaf      	ldr	r2, [pc, #700]	@ (8006dd8 <UART_SetConfig+0x2f0>)
 8006b1c:	4013      	ands	r3, r2
 8006b1e:	0019      	movs	r1, r3
 8006b20:	6a7b      	ldr	r3, [r7, #36]	@ 0x24
 8006b22:	681a      	ldr	r2, [r3, #0]
 8006b24:	6bfb      	ldr	r3, [r7, #60]	@ 0x3c
 8006b26:	430b      	orrs	r3, r1
 8006b28:	6013      	str	r3, [r2, #0]

  /*-------------------------- USART CR2 Configuration -----------------------*/
  /* Configure the UART Stop Bits: Set STOP[13:12] bits according
  * to huart->Init.StopBits value */
  MODIFY_REG(huart->Instance->CR2, USART_CR2_STOP, huart->Init.StopBits);
 8006b2a:	6a7b      	ldr	r3, [r7, #36]	@ 0x24
 8006b2c:	681b      	ldr	r3, [r3, #0]
 8006b2e:	685b      	ldr	r3, [r3, #4]
 8006b30:	4aaa      	ldr	r2, [pc, #680]	@ (8006ddc <UART_SetConfig+0x2f4>)
 8006b32:	4013      	ands	r3, r2
 8006b34:	0018      	movs	r0, r3
 8006b36:	6a7b      	ldr	r3, [r7, #36]	@ 0x24
 8006b38:	68d9      	ldr	r1, [r3, #12]
 8006b3a:	6a7b      	ldr	r3, [r7, #36]	@ 0x24
 8006b3c:	681a      	ldr	r2, [r3, #0]
 8006b3e:	0003      	movs	r3, r0
 8006b40:	430b      	orrs	r3, r1
 8006b42:	6053      	str	r3, [r2, #4]
  /* Configure
  * - UART HardWare Flow Control: set CTSE and RTSE bits according
  *   to huart->Init.HwFlowCtl value
  * - one-bit sampling method versus three samples' majority rule according
  *   to huart->Init.OneBitSampling (not applicable to LPUART) */
  tmpreg = (uint32_t)huart->Init.HwFlowCtl;
 8006b44:	6a7b      	ldr	r3, [r7, #36]	@ 0x24
 8006b46:	699b      	ldr	r3, [r3, #24]
 8006b48:	63fb      	str	r3, [r7, #60]	@ 0x3c

  if (!(UART_INSTANCE_LOWPOWER(huart)))
 8006b4a:	6a7b      	ldr	r3, [r7, #36]	@ 0x24
 8006b4c:	681b      	ldr	r3, [r3, #0]
 8006b4e:	4aa4      	ldr	r2, [pc, #656]	@ (8006de0 <UART_SetConfig+0x2f8>)
 8006b50:	4293      	cmp	r3, r2
 8006b52:	d004      	beq.n	8006b5e <UART_SetConfig+0x76>
  {
    tmpreg |= huart->Init.OneBitSampling;
 8006b54:	6a7b      	ldr	r3, [r7, #36]	@ 0x24
 8006b56:	6a1b      	ldr	r3, [r3, #32]
 8006b58:	6bfa      	ldr	r2, [r7, #60]	@ 0x3c
 8006b5a:	4313      	orrs	r3, r2
 8006b5c:	63fb      	str	r3, [r7, #60]	@ 0x3c
  }
  MODIFY_REG(huart->Instance->CR3, USART_CR3_FIELDS, tmpreg);
 8006b5e:	6a7b      	ldr	r3, [r7, #36]	@ 0x24
 8006b60:	681b      	ldr	r3, [r3, #0]
 8006b62:	689b      	ldr	r3, [r3, #8]
 8006b64:	4a9f      	ldr	r2, [pc, #636]	@ (8006de4 <UART_SetConfig+0x2fc>)
 8006b66:	4013      	ands	r3, r2
 8006b68:	0019      	movs	r1, r3
 8006b6a:	6a7b      	ldr	r3, [r7, #36]	@ 0x24
 8006b6c:	681a      	ldr	r2, [r3, #0]
 8006b6e:	6bfb      	ldr	r3, [r7, #60]	@ 0x3c
 8006b70:	430b      	orrs	r3, r1
 8006b72:	6093      	str	r3, [r2, #8]

  /*-------------------------- USART PRESC Configuration -----------------------*/
  /* Configure
  * - UART Clock Prescaler : set PRESCALER according to huart->Init.ClockPrescaler value */
  MODIFY_REG(huart->Instance->PRESC, USART_PRESC_PRESCALER, huart->Init.ClockPrescaler);
 8006b74:	6a7b      	ldr	r3, [r7, #36]	@ 0x24
 8006b76:	681b      	ldr	r3, [r3, #0]
 8006b78:	6adb      	ldr	r3, [r3, #44]	@ 0x2c
 8006b7a:	220f      	movs	r2, #15
 8006b7c:	4393      	bics	r3, r2
 8006b7e:	0018      	movs	r0, r3
 8006b80:	6a7b      	ldr	r3, [r7, #36]	@ 0x24
 8006b82:	6a59      	ldr	r1, [r3, #36]	@ 0x24
 8006b84:	6a7b      	ldr	r3, [r7, #36]	@ 0x24
 8006b86:	681a      	ldr	r2, [r3, #0]
 8006b88:	0003      	movs	r3, r0
 8006b8a:	430b      	orrs	r3, r1
 8006b8c:	62d3      	str	r3, [r2, #44]	@ 0x2c

  /*-------------------------- USART BRR Configuration -----------------------*/
  UART_GETCLOCKSOURCE(huart, clocksource);
 8006b8e:	6a7b      	ldr	r3, [r7, #36]	@ 0x24
 8006b90:	681b      	ldr	r3, [r3, #0]
 8006b92:	4a95      	ldr	r2, [pc, #596]	@ (8006de8 <UART_SetConfig+0x300>)
 8006b94:	4293      	cmp	r3, r2
 8006b96:	d131      	bne.n	8006bfc <UART_SetConfig+0x114>
 8006b98:	4b94      	ldr	r3, [pc, #592]	@ (8006dec <UART_SetConfig+0x304>)
 8006b9a:	6d5b      	ldr	r3, [r3, #84]	@ 0x54
 8006b9c:	2203      	movs	r2, #3
 8006b9e:	4013      	ands	r3, r2
 8006ba0:	2b03      	cmp	r3, #3
 8006ba2:	d01d      	beq.n	8006be0 <UART_SetConfig+0xf8>
 8006ba4:	d823      	bhi.n	8006bee <UART_SetConfig+0x106>
 8006ba6:	2b02      	cmp	r3, #2
 8006ba8:	d00c      	beq.n	8006bc4 <UART_SetConfig+0xdc>
 8006baa:	d820      	bhi.n	8006bee <UART_SetConfig+0x106>
 8006bac:	2b00      	cmp	r3, #0
 8006bae:	d002      	beq.n	8006bb6 <UART_SetConfig+0xce>
 8006bb0:	2b01      	cmp	r3, #1
 8006bb2:	d00e      	beq.n	8006bd2 <UART_SetConfig+0xea>
 8006bb4:	e01b      	b.n	8006bee <UART_SetConfig+0x106>
 8006bb6:	231b      	movs	r3, #27
 8006bb8:	2220      	movs	r2, #32
 8006bba:	189b      	adds	r3, r3, r2
 8006bbc:	19db      	adds	r3, r3, r7
 8006bbe:	2200      	movs	r2, #0
 8006bc0:	701a      	strb	r2, [r3, #0]
 8006bc2:	e0b4      	b.n	8006d2e <UART_SetConfig+0x246>
 8006bc4:	231b      	movs	r3, #27
 8006bc6:	2220      	movs	r2, #32
 8006bc8:	189b      	adds	r3, r3, r2
 8006bca:	19db      	adds	r3, r3, r7
 8006bcc:	2202      	movs	r2, #2
 8006bce:	701a      	strb	r2, [r3, #0]
 8006bd0:	e0ad      	b.n	8006d2e <UART_SetConfig+0x246>
 8006bd2:	231b      	movs	r3, #27
 8006bd4:	2220      	movs	r2, #32
 8006bd6:	189b      	adds	r3, r3, r2
 8006bd8:	19db      	adds	r3, r3, r7
 8006bda:	2204      	movs	r2, #4
 8006bdc:	701a      	strb	r2, [r3, #0]
 8006bde:	e0a6      	b.n	8006d2e <UART_SetConfig+0x246>
 8006be0:	231b      	movs	r3, #27
 8006be2:	2220      	movs	r2, #32
 8006be4:	189b      	adds	r3, r3, r2
 8006be6:	19db      	adds	r3, r3, r7
 8006be8:	2208      	movs	r2, #8
 8006bea:	701a      	strb	r2, [r3, #0]
 8006bec:	e09f      	b.n	8006d2e <UART_SetConfig+0x246>
 8006bee:	231b      	movs	r3, #27
 8006bf0:	2220      	movs	r2, #32
 8006bf2:	189b      	adds	r3, r3, r2
 8006bf4:	19db      	adds	r3, r3, r7
 8006bf6:	2210      	movs	r2, #16
 8006bf8:	701a      	strb	r2, [r3, #0]
 8006bfa:	e098      	b.n	8006d2e <UART_SetConfig+0x246>
 8006bfc:	6a7b      	ldr	r3, [r7, #36]	@ 0x24
 8006bfe:	681b      	ldr	r3, [r3, #0]
 8006c00:	4a7b      	ldr	r2, [pc, #492]	@ (8006df0 <UART_SetConfig+0x308>)
 8006c02:	4293      	cmp	r3, r2
 8006c04:	d131      	bne.n	8006c6a <UART_SetConfig+0x182>
 8006c06:	4b79      	ldr	r3, [pc, #484]	@ (8006dec <UART_SetConfig+0x304>)
 8006c08:	6d5b      	ldr	r3, [r3, #84]	@ 0x54
 8006c0a:	220c      	movs	r2, #12
 8006c0c:	4013      	ands	r3, r2
 8006c0e:	2b0c      	cmp	r3, #12
 8006c10:	d01d      	beq.n	8006c4e <UART_SetConfig+0x166>
 8006c12:	d823      	bhi.n	8006c5c <UART_SetConfig+0x174>
 8006c14:	2b08      	cmp	r3, #8
 8006c16:	d00c      	beq.n	8006c32 <UART_SetConfig+0x14a>
 8006c18:	d820      	bhi.n	8006c5c <UART_SetConfig+0x174>
 8006c1a:	2b00      	cmp	r3, #0
 8006c1c:	d002      	beq.n	8006c24 <UART_SetConfig+0x13c>
 8006c1e:	2b04      	cmp	r3, #4
 8006c20:	d00e      	beq.n	8006c40 <UART_SetConfig+0x158>
 8006c22:	e01b      	b.n	8006c5c <UART_SetConfig+0x174>
 8006c24:	231b      	movs	r3, #27
 8006c26:	2220      	movs	r2, #32
 8006c28:	189b      	adds	r3, r3, r2
 8006c2a:	19db      	adds	r3, r3, r7
 8006c2c:	2200      	movs	r2, #0
 8006c2e:	701a      	strb	r2, [r3, #0]
 8006c30:	e07d      	b.n	8006d2e <UART_SetConfig+0x246>
 8006c32:	231b      	movs	r3, #27
 8006c34:	2220      	movs	r2, #32
 8006c36:	189b      	adds	r3, r3, r2
 8006c38:	19db      	adds	r3, r3, r7
 8006c3a:	2202      	movs	r2, #2
 8006c3c:	701a      	strb	r2, [r3, #0]
 8006c3e:	e076      	b.n	8006d2e <UART_SetConfig+0x246>
 8006c40:	231b      	movs	r3, #27
 8006c42:	2220      	movs	r2, #32
 8006c44:	189b      	adds	r3, r3, r2
 8006c46:	19db      	adds	r3, r3, r7
 8006c48:	2204      	movs	r2, #4
 8006c4a:	701a      	strb	r2, [r3, #0]
 8006c4c:	e06f      	b.n	8006d2e <UART_SetConfig+0x246>
 8006c4e:	231b      	movs	r3, #27
 8006c50:	2220      	movs	r2, #32
 8006c52:	189b      	adds	r3, r3, r2
 8006c54:	19db      	adds	r3, r3, r7
 8006c56:	2208      	movs	r2, #8
 8006c58:	701a      	strb	r2, [r3, #0]
 8006c5a:	e068      	b.n	8006d2e <UART_SetConfig+0x246>
 8006c5c:	231b      	movs	r3, #27
 8006c5e:	2220      	movs	r2, #32
 8006c60:	189b      	adds	r3, r3, r2
 8006c62:	19db      	adds	r3, r3, r7
 8006c64:	2210      	movs	r2, #16
 8006c66:	701a      	strb	r2, [r3, #0]
 8006c68:	e061      	b.n	8006d2e <UART_SetConfig+0x246>
 8006c6a:	6a7b      	ldr	r3, [r7, #36]	@ 0x24
 8006c6c:	681b      	ldr	r3, [r3, #0]
 8006c6e:	4a61      	ldr	r2, [pc, #388]	@ (8006df4 <UART_SetConfig+0x30c>)
 8006c70:	4293      	cmp	r3, r2
 8006c72:	d106      	bne.n	8006c82 <UART_SetConfig+0x19a>
 8006c74:	231b      	movs	r3, #27
 8006c76:	2220      	movs	r2, #32
 8006c78:	189b      	adds	r3, r3, r2
 8006c7a:	19db      	adds	r3, r3, r7
 8006c7c:	2200      	movs	r2, #0
 8006c7e:	701a      	strb	r2, [r3, #0]
 8006c80:	e055      	b.n	8006d2e <UART_SetConfig+0x246>
 8006c82:	6a7b      	ldr	r3, [r7, #36]	@ 0x24
 8006c84:	681b      	ldr	r3, [r3, #0]
 8006c86:	4a5c      	ldr	r2, [pc, #368]	@ (8006df8 <UART_SetConfig+0x310>)
 8006c88:	4293      	cmp	r3, r2
 8006c8a:	d106      	bne.n	8006c9a <UART_SetConfig+0x1b2>
 8006c8c:	231b      	movs	r3, #27
 8006c8e:	2220      	movs	r2, #32
 8006c90:	189b      	adds	r3, r3, r2
 8006c92:	19db      	adds	r3, r3, r7
 8006c94:	2200      	movs	r2, #0
 8006c96:	701a      	strb	r2, [r3, #0]
 8006c98:	e049      	b.n	8006d2e <UART_SetConfig+0x246>
 8006c9a:	6a7b      	ldr	r3, [r7, #36]	@ 0x24
 8006c9c:	681b      	ldr	r3, [r3, #0]
 8006c9e:	4a50      	ldr	r2, [pc, #320]	@ (8006de0 <UART_SetConfig+0x2f8>)
 8006ca0:	4293      	cmp	r3, r2
 8006ca2:	d13e      	bne.n	8006d22 <UART_SetConfig+0x23a>
 8006ca4:	4b51      	ldr	r3, [pc, #324]	@ (8006dec <UART_SetConfig+0x304>)
 8006ca6:	6d5a      	ldr	r2, [r3, #84]	@ 0x54
 8006ca8:	23c0      	movs	r3, #192	@ 0xc0
 8006caa:	011b      	lsls	r3, r3, #4
 8006cac:	4013      	ands	r3, r2
 8006cae:	22c0      	movs	r2, #192	@ 0xc0
 8006cb0:	0112      	lsls	r2, r2, #4
 8006cb2:	4293      	cmp	r3, r2
 8006cb4:	d027      	beq.n	8006d06 <UART_SetConfig+0x21e>
 8006cb6:	22c0      	movs	r2, #192	@ 0xc0
 8006cb8:	0112      	lsls	r2, r2, #4
 8006cba:	4293      	cmp	r3, r2
 8006cbc:	d82a      	bhi.n	8006d14 <UART_SetConfig+0x22c>
 8006cbe:	2280      	movs	r2, #128	@ 0x80
 8006cc0:	0112      	lsls	r2, r2, #4
 8006cc2:	4293      	cmp	r3, r2
 8006cc4:	d011      	beq.n	8006cea <UART_SetConfig+0x202>
 8006cc6:	2280      	movs	r2, #128	@ 0x80
 8006cc8:	0112      	lsls	r2, r2, #4
 8006cca:	4293      	cmp	r3, r2
 8006ccc:	d822      	bhi.n	8006d14 <UART_SetConfig+0x22c>
 8006cce:	2b00      	cmp	r3, #0
 8006cd0:	d004      	beq.n	8006cdc <UART_SetConfig+0x1f4>
 8006cd2:	2280      	movs	r2, #128	@ 0x80
 8006cd4:	00d2      	lsls	r2, r2, #3
 8006cd6:	4293      	cmp	r3, r2
 8006cd8:	d00e      	beq.n	8006cf8 <UART_SetConfig+0x210>
 8006cda:	e01b      	b.n	8006d14 <UART_SetConfig+0x22c>
 8006cdc:	231b      	movs	r3, #27
 8006cde:	2220      	movs	r2, #32
 8006ce0:	189b      	adds	r3, r3, r2
 8006ce2:	19db      	adds	r3, r3, r7
 8006ce4:	2200      	movs	r2, #0
 8006ce6:	701a      	strb	r2, [r3, #0]
 8006ce8:	e021      	b.n	8006d2e <UART_SetConfig+0x246>
 8006cea:	231b      	movs	r3, #27
 8006cec:	2220      	movs	r2, #32
 8006cee:	189b      	adds	r3, r3, r2
 8006cf0:	19db      	adds	r3, r3, r7
 8006cf2:	2202      	movs	r2, #2
 8006cf4:	701a      	strb	r2, [r3, #0]
 8006cf6:	e01a      	b.n	8006d2e <UART_SetConfig+0x246>
 8006cf8:	231b      	movs	r3, #27
 8006cfa:	2220      	movs	r2, #32
 8006cfc:	189b      	adds	r3, r3, r2
 8006cfe:	19db      	adds	r3, r3, r7
 8006d00:	2204      	movs	r2, #4
 8006d02:	701a      	strb	r2, [r3, #0]
 8006d04:	e013      	b.n	8006d2e <UART_SetConfig+0x246>
 8006d06:	231b      	movs	r3, #27
 8006d08:	2220      	movs	r2, #32
 8006d0a:	189b      	adds	r3, r3, r2
 8006d0c:	19db      	adds	r3, r3, r7
 8006d0e:	2208      	movs	r2, #8
 8006d10:	701a      	strb	r2, [r3, #0]
 8006d12:	e00c      	b.n	8006d2e <UART_SetConfig+0x246>
 8006d14:	231b      	movs	r3, #27
 8006d16:	2220      	movs	r2, #32
 8006d18:	189b      	adds	r3, r3, r2
 8006d1a:	19db      	adds	r3, r3, r7
 8006d1c:	2210      	movs	r2, #16
 8006d1e:	701a      	strb	r2, [r3, #0]
 8006d20:	e005      	b.n	8006d2e <UART_SetConfig+0x246>
 8006d22:	231b      	movs	r3, #27
 8006d24:	2220      	movs	r2, #32
 8006d26:	189b      	adds	r3, r3, r2
 8006d28:	19db      	adds	r3, r3, r7
 8006d2a:	2210      	movs	r2, #16
 8006d2c:	701a      	strb	r2, [r3, #0]

  /* Check LPUART instance */
  if (UART_INSTANCE_LOWPOWER(huart))
 8006d2e:	6a7b      	ldr	r3, [r7, #36]	@ 0x24
 8006d30:	681b      	ldr	r3, [r3, #0]
 8006d32:	4a2b      	ldr	r2, [pc, #172]	@ (8006de0 <UART_SetConfig+0x2f8>)
 8006d34:	4293      	cmp	r3, r2
 8006d36:	d000      	beq.n	8006d3a <UART_SetConfig+0x252>
 8006d38:	e0a9      	b.n	8006e8e <UART_SetConfig+0x3a6>
  {
    /* Retrieve frequency clock */
    switch (clocksource)
 8006d3a:	231b      	movs	r3, #27
 8006d3c:	2220      	movs	r2, #32
 8006d3e:	189b      	adds	r3, r3, r2
 8006d40:	19db      	adds	r3, r3, r7
 8006d42:	781b      	ldrb	r3, [r3, #0]
 8006d44:	2b08      	cmp	r3, #8
 8006d46:	d015      	beq.n	8006d74 <UART_SetConfig+0x28c>
 8006d48:	dc18      	bgt.n	8006d7c <UART_SetConfig+0x294>
 8006d4a:	2b04      	cmp	r3, #4
 8006d4c:	d00d      	beq.n	8006d6a <UART_SetConfig+0x282>
 8006d4e:	dc15      	bgt.n	8006d7c <UART_SetConfig+0x294>
 8006d50:	2b00      	cmp	r3, #0
 8006d52:	d002      	beq.n	8006d5a <UART_SetConfig+0x272>
 8006d54:	2b02      	cmp	r3, #2
 8006d56:	d005      	beq.n	8006d64 <UART_SetConfig+0x27c>
 8006d58:	e010      	b.n	8006d7c <UART_SetConfig+0x294>
    {
      case UART_CLOCKSOURCE_PCLK1:
        pclk = HAL_RCC_GetPCLK1Freq();
 8006d5a:	f7fd ff3d 	bl	8004bd8 <HAL_RCC_GetPCLK1Freq>
 8006d5e:	0003      	movs	r3, r0
 8006d60:	637b      	str	r3, [r7, #52]	@ 0x34
        break;
 8006d62:	e014      	b.n	8006d8e <UART_SetConfig+0x2a6>
      case UART_CLOCKSOURCE_HSI:
        pclk = (uint32_t) HSI_VALUE;
 8006d64:	4b25      	ldr	r3, [pc, #148]	@ (8006dfc <UART_SetConfig+0x314>)
 8006d66:	637b      	str	r3, [r7, #52]	@ 0x34
        break;
 8006d68:	e011      	b.n	8006d8e <UART_SetConfig+0x2a6>
      case UART_CLOCKSOURCE_SYSCLK:
        pclk = HAL_RCC_GetSysClockFreq();
 8006d6a:	f7fd fea9 	bl	8004ac0 <HAL_RCC_GetSysClockFreq>
 8006d6e:	0003      	movs	r3, r0
 8006d70:	637b      	str	r3, [r7, #52]	@ 0x34
        break;
 8006d72:	e00c      	b.n	8006d8e <UART_SetConfig+0x2a6>
      case UART_CLOCKSOURCE_LSE:
        pclk = (uint32_t) LSE_VALUE;
 8006d74:	2380      	movs	r3, #128	@ 0x80
 8006d76:	021b      	lsls	r3, r3, #8
 8006d78:	637b      	str	r3, [r7, #52]	@ 0x34
        break;
 8006d7a:	e008      	b.n	8006d8e <UART_SetConfig+0x2a6>
      default:
        pclk = 0U;
 8006d7c:	2300      	movs	r3, #0
 8006d7e:	637b      	str	r3, [r7, #52]	@ 0x34
        ret = HAL_ERROR;
 8006d80:	231a      	movs	r3, #26
 8006d82:	2220      	movs	r2, #32
 8006d84:	189b      	adds	r3, r3, r2
 8006d86:	19db      	adds	r3, r3, r7
 8006d88:	2201      	movs	r2, #1
 8006d8a:	701a      	strb	r2, [r3, #0]
        break;
 8006d8c:	46c0      	nop			@ (mov r8, r8)
    }

    /* If proper clock source reported */
    if (pclk != 0U)
 8006d8e:	6b7b      	ldr	r3, [r7, #52]	@ 0x34
 8006d90:	2b00      	cmp	r3, #0
 8006d92:	d100      	bne.n	8006d96 <UART_SetConfig+0x2ae>
 8006d94:	e14b      	b.n	800702e <UART_SetConfig+0x546>
    {
      /* Compute clock after Prescaler */
      lpuart_ker_ck_pres = (pclk / UARTPrescTable[huart->Init.ClockPrescaler]);
 8006d96:	6a7b      	ldr	r3, [r7, #36]	@ 0x24
 8006d98:	6a5a      	ldr	r2, [r3, #36]	@ 0x24
 8006d9a:	4b19      	ldr	r3, [pc, #100]	@ (8006e00 <UART_SetConfig+0x318>)
 8006d9c:	0052      	lsls	r2, r2, #1
 8006d9e:	5ad3      	ldrh	r3, [r2, r3]
 8006da0:	0019      	movs	r1, r3
 8006da2:	6b78      	ldr	r0, [r7, #52]	@ 0x34
 8006da4:	f7f9 f9ae 	bl	8000104 <__udivsi3>
 8006da8:	0003      	movs	r3, r0
 8006daa:	62bb      	str	r3, [r7, #40]	@ 0x28

      /* Ensure that Frequency clock is in the range [3 * baudrate, 4096 * baudrate] */
      if ((lpuart_ker_ck_pres < (3U * huart->Init.BaudRate)) ||
 8006dac:	6a7b      	ldr	r3, [r7, #36]	@ 0x24
 8006dae:	685a      	ldr	r2, [r3, #4]
 8006db0:	0013      	movs	r3, r2
 8006db2:	005b      	lsls	r3, r3, #1
 8006db4:	189b      	adds	r3, r3, r2
 8006db6:	6aba      	ldr	r2, [r7, #40]	@ 0x28
 8006db8:	429a      	cmp	r2, r3
 8006dba:	d305      	bcc.n	8006dc8 <UART_SetConfig+0x2e0>
          (lpuart_ker_ck_pres > (4096U * huart->Init.BaudRate)))
 8006dbc:	6a7b      	ldr	r3, [r7, #36]	@ 0x24
 8006dbe:	685b      	ldr	r3, [r3, #4]
 8006dc0:	031b      	lsls	r3, r3, #12
      if ((lpuart_ker_ck_pres < (3U * huart->Init.BaudRate)) ||
 8006dc2:	6aba      	ldr	r2, [r7, #40]	@ 0x28
 8006dc4:	429a      	cmp	r2, r3
 8006dc6:	d91d      	bls.n	8006e04 <UART_SetConfig+0x31c>
      {
        ret = HAL_ERROR;
 8006dc8:	231a      	movs	r3, #26
 8006dca:	2220      	movs	r2, #32
 8006dcc:	189b      	adds	r3, r3, r2
 8006dce:	19db      	adds	r3, r3, r7
 8006dd0:	2201      	movs	r2, #1
 8006dd2:	701a      	strb	r2, [r3, #0]
 8006dd4:	e12b      	b.n	800702e <UART_SetConfig+0x546>
 8006dd6:	46c0      	nop			@ (mov r8, r8)
 8006dd8:	cfff69f3 	.word	0xcfff69f3
 8006ddc:	ffffcfff 	.word	0xffffcfff
 8006de0:	40008000 	.word	0x40008000
 8006de4:	11fff4ff 	.word	0x11fff4ff
 8006de8:	40013800 	.word	0x40013800
 8006dec:	40021000 	.word	0x40021000
 8006df0:	40004400 	.word	0x40004400
 8006df4:	40004800 	.word	0x40004800
 8006df8:	40004c00 	.word	0x40004c00
 8006dfc:	00f42400 	.word	0x00f42400
 8006e00:	0800788c 	.word	0x0800788c
      }
      else
      {
        /* Check computed UsartDiv value is in allocated range
           (it is forbidden to write values lower than 0x300 in the LPUART_BRR register) */
        usartdiv = (uint32_t)(UART_DIV_LPUART(pclk, huart->Init.BaudRate, huart->Init.ClockPrescaler));
 8006e04:	6b7b      	ldr	r3, [r7, #52]	@ 0x34
 8006e06:	61bb      	str	r3, [r7, #24]
 8006e08:	2300      	movs	r3, #0
 8006e0a:	61fb      	str	r3, [r7, #28]
 8006e0c:	6a7b      	ldr	r3, [r7, #36]	@ 0x24
 8006e0e:	6a5a      	ldr	r2, [r3, #36]	@ 0x24
 8006e10:	4b92      	ldr	r3, [pc, #584]	@ (800705c <UART_SetConfig+0x574>)
 8006e12:	0052      	lsls	r2, r2, #1
 8006e14:	5ad3      	ldrh	r3, [r2, r3]
 8006e16:	613b      	str	r3, [r7, #16]
 8006e18:	2300      	movs	r3, #0
 8006e1a:	617b      	str	r3, [r7, #20]
 8006e1c:	693a      	ldr	r2, [r7, #16]
 8006e1e:	697b      	ldr	r3, [r7, #20]
 8006e20:	69b8      	ldr	r0, [r7, #24]
 8006e22:	69f9      	ldr	r1, [r7, #28]
 8006e24:	f7f9 fae4 	bl	80003f0 <__aeabi_uldivmod>
 8006e28:	0002      	movs	r2, r0
 8006e2a:	000b      	movs	r3, r1
 8006e2c:	0e11      	lsrs	r1, r2, #24
 8006e2e:	021d      	lsls	r5, r3, #8
 8006e30:	430d      	orrs	r5, r1
 8006e32:	0214      	lsls	r4, r2, #8
 8006e34:	6a7b      	ldr	r3, [r7, #36]	@ 0x24
 8006e36:	685b      	ldr	r3, [r3, #4]
 8006e38:	085b      	lsrs	r3, r3, #1
 8006e3a:	60bb      	str	r3, [r7, #8]
 8006e3c:	2300      	movs	r3, #0
 8006e3e:	60fb      	str	r3, [r7, #12]
 8006e40:	68b8      	ldr	r0, [r7, #8]
 8006e42:	68f9      	ldr	r1, [r7, #12]
 8006e44:	1900      	adds	r0, r0, r4
 8006e46:	4169      	adcs	r1, r5
 8006e48:	6a7b      	ldr	r3, [r7, #36]	@ 0x24
 8006e4a:	685b      	ldr	r3, [r3, #4]
 8006e4c:	603b      	str	r3, [r7, #0]
 8006e4e:	2300      	movs	r3, #0
 8006e50:	607b      	str	r3, [r7, #4]
 8006e52:	683a      	ldr	r2, [r7, #0]
 8006e54:	687b      	ldr	r3, [r7, #4]
 8006e56:	f7f9 facb 	bl	80003f0 <__aeabi_uldivmod>
 8006e5a:	0002      	movs	r2, r0
 8006e5c:	000b      	movs	r3, r1
 8006e5e:	0013      	movs	r3, r2
 8006e60:	633b      	str	r3, [r7, #48]	@ 0x30
        if ((usartdiv >= LPUART_BRR_MIN) && (usartdiv <= LPUART_BRR_MAX))
 8006e62:	6b3a      	ldr	r2, [r7, #48]	@ 0x30
 8006e64:	23c0      	movs	r3, #192	@ 0xc0
 8006e66:	009b      	lsls	r3, r3, #2
 8006e68:	429a      	cmp	r2, r3
 8006e6a:	d309      	bcc.n	8006e80 <UART_SetConfig+0x398>
 8006e6c:	6b3a      	ldr	r2, [r7, #48]	@ 0x30
 8006e6e:	2380      	movs	r3, #128	@ 0x80
 8006e70:	035b      	lsls	r3, r3, #13
 8006e72:	429a      	cmp	r2, r3
 8006e74:	d204      	bcs.n	8006e80 <UART_SetConfig+0x398>
        {
          huart->Instance->BRR = usartdiv;
 8006e76:	6a7b      	ldr	r3, [r7, #36]	@ 0x24
 8006e78:	681b      	ldr	r3, [r3, #0]
 8006e7a:	6b3a      	ldr	r2, [r7, #48]	@ 0x30
 8006e7c:	60da      	str	r2, [r3, #12]
 8006e7e:	e0d6      	b.n	800702e <UART_SetConfig+0x546>
        }
        else
        {
          ret = HAL_ERROR;
 8006e80:	231a      	movs	r3, #26
 8006e82:	2220      	movs	r2, #32
 8006e84:	189b      	adds	r3, r3, r2
 8006e86:	19db      	adds	r3, r3, r7
 8006e88:	2201      	movs	r2, #1
 8006e8a:	701a      	strb	r2, [r3, #0]
 8006e8c:	e0cf      	b.n	800702e <UART_SetConfig+0x546>
      } /* if ( (lpuart_ker_ck_pres < (3 * huart->Init.BaudRate) ) ||
                (lpuart_ker_ck_pres > (4096 * huart->Init.BaudRate) )) */
    } /* if (pclk != 0) */
  }
  /* Check UART Over Sampling to set Baud Rate Register */
  else if (huart->Init.OverSampling == UART_OVERSAMPLING_8)
 8006e8e:	6a7b      	ldr	r3, [r7, #36]	@ 0x24
 8006e90:	69da      	ldr	r2, [r3, #28]
 8006e92:	2380      	movs	r3, #128	@ 0x80
 8006e94:	021b      	lsls	r3, r3, #8
 8006e96:	429a      	cmp	r2, r3
 8006e98:	d000      	beq.n	8006e9c <UART_SetConfig+0x3b4>
 8006e9a:	e070      	b.n	8006f7e <UART_SetConfig+0x496>
  {
    switch (clocksource)
 8006e9c:	231b      	movs	r3, #27
 8006e9e:	2220      	movs	r2, #32
 8006ea0:	189b      	adds	r3, r3, r2
 8006ea2:	19db      	adds	r3, r3, r7
 8006ea4:	781b      	ldrb	r3, [r3, #0]
 8006ea6:	2b08      	cmp	r3, #8
 8006ea8:	d015      	beq.n	8006ed6 <UART_SetConfig+0x3ee>
 8006eaa:	dc18      	bgt.n	8006ede <UART_SetConfig+0x3f6>
 8006eac:	2b04      	cmp	r3, #4
 8006eae:	d00d      	beq.n	8006ecc <UART_SetConfig+0x3e4>
 8006eb0:	dc15      	bgt.n	8006ede <UART_SetConfig+0x3f6>
 8006eb2:	2b00      	cmp	r3, #0
 8006eb4:	d002      	beq.n	8006ebc <UART_SetConfig+0x3d4>
 8006eb6:	2b02      	cmp	r3, #2
 8006eb8:	d005      	beq.n	8006ec6 <UART_SetConfig+0x3de>
 8006eba:	e010      	b.n	8006ede <UART_SetConfig+0x3f6>
    {
      case UART_CLOCKSOURCE_PCLK1:
        pclk = HAL_RCC_GetPCLK1Freq();
 8006ebc:	f7fd fe8c 	bl	8004bd8 <HAL_RCC_GetPCLK1Freq>
 8006ec0:	0003      	movs	r3, r0
 8006ec2:	637b      	str	r3, [r7, #52]	@ 0x34
        break;
 8006ec4:	e014      	b.n	8006ef0 <UART_SetConfig+0x408>
      case UART_CLOCKSOURCE_HSI:
        pclk = (uint32_t) HSI_VALUE;
 8006ec6:	4b66      	ldr	r3, [pc, #408]	@ (8007060 <UART_SetConfig+0x578>)
 8006ec8:	637b      	str	r3, [r7, #52]	@ 0x34
        break;
 8006eca:	e011      	b.n	8006ef0 <UART_SetConfig+0x408>
      case UART_CLOCKSOURCE_SYSCLK:
        pclk = HAL_RCC_GetSysClockFreq();
 8006ecc:	f7fd fdf8 	bl	8004ac0 <HAL_RCC_GetSysClockFreq>
 8006ed0:	0003      	movs	r3, r0
 8006ed2:	637b      	str	r3, [r7, #52]	@ 0x34
        break;
 8006ed4:	e00c      	b.n	8006ef0 <UART_SetConfig+0x408>
      case UART_CLOCKSOURCE_LSE:
        pclk = (uint32_t) LSE_VALUE;
 8006ed6:	2380      	movs	r3, #128	@ 0x80
 8006ed8:	021b      	lsls	r3, r3, #8
 8006eda:	637b      	str	r3, [r7, #52]	@ 0x34
        break;
 8006edc:	e008      	b.n	8006ef0 <UART_SetConfig+0x408>
      default:
        pclk = 0U;
 8006ede:	2300      	movs	r3, #0
 8006ee0:	637b      	str	r3, [r7, #52]	@ 0x34
        ret = HAL_ERROR;
 8006ee2:	231a      	movs	r3, #26
 8006ee4:	2220      	movs	r2, #32
 8006ee6:	189b      	adds	r3, r3, r2
 8006ee8:	19db      	adds	r3, r3, r7
 8006eea:	2201      	movs	r2, #1
 8006eec:	701a      	strb	r2, [r3, #0]
        break;
 8006eee:	46c0      	nop			@ (mov r8, r8)
    }

    /* USARTDIV must be greater than or equal to 0d16 */
    if (pclk != 0U)
 8006ef0:	6b7b      	ldr	r3, [r7, #52]	@ 0x34
 8006ef2:	2b00      	cmp	r3, #0
 8006ef4:	d100      	bne.n	8006ef8 <UART_SetConfig+0x410>
 8006ef6:	e09a      	b.n	800702e <UART_SetConfig+0x546>
    {
      usartdiv = (uint32_t)(UART_DIV_SAMPLING8(pclk, huart->Init.BaudRate, huart->Init.ClockPrescaler));
 8006ef8:	6a7b      	ldr	r3, [r7, #36]	@ 0x24
 8006efa:	6a5a      	ldr	r2, [r3, #36]	@ 0x24
 8006efc:	4b57      	ldr	r3, [pc, #348]	@ (800705c <UART_SetConfig+0x574>)
 8006efe:	0052      	lsls	r2, r2, #1
 8006f00:	5ad3      	ldrh	r3, [r2, r3]
 8006f02:	0019      	movs	r1, r3
 8006f04:	6b78      	ldr	r0, [r7, #52]	@ 0x34
 8006f06:	f7f9 f8fd 	bl	8000104 <__udivsi3>
 8006f0a:	0003      	movs	r3, r0
 8006f0c:	005a      	lsls	r2, r3, #1
 8006f0e:	6a7b      	ldr	r3, [r7, #36]	@ 0x24
 8006f10:	685b      	ldr	r3, [r3, #4]
 8006f12:	085b      	lsrs	r3, r3, #1
 8006f14:	18d2      	adds	r2, r2, r3
 8006f16:	6a7b      	ldr	r3, [r7, #36]	@ 0x24
 8006f18:	685b      	ldr	r3, [r3, #4]
 8006f1a:	0019      	movs	r1, r3
 8006f1c:	0010      	movs	r0, r2
 8006f1e:	f7f9 f8f1 	bl	8000104 <__udivsi3>
 8006f22:	0003      	movs	r3, r0
 8006f24:	633b      	str	r3, [r7, #48]	@ 0x30
      if ((usartdiv >= UART_BRR_MIN) && (usartdiv <= UART_BRR_MAX))
 8006f26:	6b3b      	ldr	r3, [r7, #48]	@ 0x30
 8006f28:	2b0f      	cmp	r3, #15
 8006f2a:	d921      	bls.n	8006f70 <UART_SetConfig+0x488>
 8006f2c:	6b3a      	ldr	r2, [r7, #48]	@ 0x30
 8006f2e:	2380      	movs	r3, #128	@ 0x80
 8006f30:	025b      	lsls	r3, r3, #9
 8006f32:	429a      	cmp	r2, r3
 8006f34:	d21c      	bcs.n	8006f70 <UART_SetConfig+0x488>
      {
        brrtemp = (uint16_t)(usartdiv & 0xFFF0U);
 8006f36:	6b3b      	ldr	r3, [r7, #48]	@ 0x30
 8006f38:	b29a      	uxth	r2, r3
 8006f3a:	200e      	movs	r0, #14
 8006f3c:	2420      	movs	r4, #32
 8006f3e:	1903      	adds	r3, r0, r4
 8006f40:	19db      	adds	r3, r3, r7
 8006f42:	210f      	movs	r1, #15
 8006f44:	438a      	bics	r2, r1
 8006f46:	801a      	strh	r2, [r3, #0]
        brrtemp |= (uint16_t)((usartdiv & (uint16_t)0x000FU) >> 1U);
 8006f48:	6b3b      	ldr	r3, [r7, #48]	@ 0x30
 8006f4a:	085b      	lsrs	r3, r3, #1
 8006f4c:	b29b      	uxth	r3, r3
 8006f4e:	2207      	movs	r2, #7
 8006f50:	4013      	ands	r3, r2
 8006f52:	b299      	uxth	r1, r3
 8006f54:	1903      	adds	r3, r0, r4
 8006f56:	19db      	adds	r3, r3, r7
 8006f58:	1902      	adds	r2, r0, r4
 8006f5a:	19d2      	adds	r2, r2, r7
 8006f5c:	8812      	ldrh	r2, [r2, #0]
 8006f5e:	430a      	orrs	r2, r1
 8006f60:	801a      	strh	r2, [r3, #0]
        huart->Instance->BRR = brrtemp;
 8006f62:	6a7b      	ldr	r3, [r7, #36]	@ 0x24
 8006f64:	681b      	ldr	r3, [r3, #0]
 8006f66:	1902      	adds	r2, r0, r4
 8006f68:	19d2      	adds	r2, r2, r7
 8006f6a:	8812      	ldrh	r2, [r2, #0]
 8006f6c:	60da      	str	r2, [r3, #12]
 8006f6e:	e05e      	b.n	800702e <UART_SetConfig+0x546>
      }
      else
      {
        ret = HAL_ERROR;
 8006f70:	231a      	movs	r3, #26
 8006f72:	2220      	movs	r2, #32
 8006f74:	189b      	adds	r3, r3, r2
 8006f76:	19db      	adds	r3, r3, r7
 8006f78:	2201      	movs	r2, #1
 8006f7a:	701a      	strb	r2, [r3, #0]
 8006f7c:	e057      	b.n	800702e <UART_SetConfig+0x546>
      }
    }
  }
  else
  {
    switch (clocksource)
 8006f7e:	231b      	movs	r3, #27
 8006f80:	2220      	movs	r2, #32
 8006f82:	189b      	adds	r3, r3, r2
 8006f84:	19db      	adds	r3, r3, r7
 8006f86:	781b      	ldrb	r3, [r3, #0]
 8006f88:	2b08      	cmp	r3, #8
 8006f8a:	d015      	beq.n	8006fb8 <UART_SetConfig+0x4d0>
 8006f8c:	dc18      	bgt.n	8006fc0 <UART_SetConfig+0x4d8>
 8006f8e:	2b04      	cmp	r3, #4
 8006f90:	d00d      	beq.n	8006fae <UART_SetConfig+0x4c6>
 8006f92:	dc15      	bgt.n	8006fc0 <UART_SetConfig+0x4d8>
 8006f94:	2b00      	cmp	r3, #0
 8006f96:	d002      	beq.n	8006f9e <UART_SetConfig+0x4b6>
 8006f98:	2b02      	cmp	r3, #2
 8006f9a:	d005      	beq.n	8006fa8 <UART_SetConfig+0x4c0>
 8006f9c:	e010      	b.n	8006fc0 <UART_SetConfig+0x4d8>
    {
      case UART_CLOCKSOURCE_PCLK1:
        pclk = HAL_RCC_GetPCLK1Freq();
 8006f9e:	f7fd fe1b 	bl	8004bd8 <HAL_RCC_GetPCLK1Freq>
 8006fa2:	0003      	movs	r3, r0
 8006fa4:	637b      	str	r3, [r7, #52]	@ 0x34
        break;
 8006fa6:	e014      	b.n	8006fd2 <UART_SetConfig+0x4ea>
      case UART_CLOCKSOURCE_HSI:
        pclk = (uint32_t) HSI_VALUE;
 8006fa8:	4b2d      	ldr	r3, [pc, #180]	@ (8007060 <UART_SetConfig+0x578>)
 8006faa:	637b      	str	r3, [r7, #52]	@ 0x34
        break;
 8006fac:	e011      	b.n	8006fd2 <UART_SetConfig+0x4ea>
      case UART_CLOCKSOURCE_SYSCLK:
        pclk = HAL_RCC_GetSysClockFreq();
 8006fae:	f7fd fd87 	bl	8004ac0 <HAL_RCC_GetSysClockFreq>
 8006fb2:	0003      	movs	r3, r0
 8006fb4:	637b      	str	r3, [r7, #52]	@ 0x34
        break;
 8006fb6:	e00c      	b.n	8006fd2 <UART_SetConfig+0x4ea>
      case UART_CLOCKSOURCE_LSE:
        pclk = (uint32_t) LSE_VALUE;
 8006fb8:	2380      	movs	r3, #128	@ 0x80
 8006fba:	021b      	lsls	r3, r3, #8
 8006fbc:	637b      	str	r3, [r7, #52]	@ 0x34
        break;
 8006fbe:	e008      	b.n	8006fd2 <UART_SetConfig+0x4ea>
      default:
        pclk = 0U;
 8006fc0:	2300      	movs	r3, #0
 8006fc2:	637b      	str	r3, [r7, #52]	@ 0x34
        ret = HAL_ERROR;
 8006fc4:	231a      	movs	r3, #26
 8006fc6:	2220      	movs	r2, #32
 8006fc8:	189b      	adds	r3, r3, r2
 8006fca:	19db      	adds	r3, r3, r7
 8006fcc:	2201      	movs	r2, #1
 8006fce:	701a      	strb	r2, [r3, #0]
        break;
 8006fd0:	46c0      	nop			@ (mov r8, r8)
    }

    if (pclk != 0U)
 8006fd2:	6b7b      	ldr	r3, [r7, #52]	@ 0x34
 8006fd4:	2b00      	cmp	r3, #0
 8006fd6:	d02a      	beq.n	800702e <UART_SetConfig+0x546>
    {
      /* USARTDIV must be greater than or equal to 0d16 */
      usartdiv = (uint32_t)(UART_DIV_SAMPLING16(pclk, huart->Init.BaudRate, huart->Init.ClockPrescaler));
 8006fd8:	6a7b      	ldr	r3, [r7, #36]	@ 0x24
 8006fda:	6a5a      	ldr	r2, [r3, #36]	@ 0x24
 8006fdc:	4b1f      	ldr	r3, [pc, #124]	@ (800705c <UART_SetConfig+0x574>)
 8006fde:	0052      	lsls	r2, r2, #1
 8006fe0:	5ad3      	ldrh	r3, [r2, r3]
 8006fe2:	0019      	movs	r1, r3
 8006fe4:	6b78      	ldr	r0, [r7, #52]	@ 0x34
 8006fe6:	f7f9 f88d 	bl	8000104 <__udivsi3>
 8006fea:	0003      	movs	r3, r0
 8006fec:	001a      	movs	r2, r3
 8006fee:	6a7b      	ldr	r3, [r7, #36]	@ 0x24
 8006ff0:	685b      	ldr	r3, [r3, #4]
 8006ff2:	085b      	lsrs	r3, r3, #1
 8006ff4:	18d2      	adds	r2, r2, r3
 8006ff6:	6a7b      	ldr	r3, [r7, #36]	@ 0x24
 8006ff8:	685b      	ldr	r3, [r3, #4]
 8006ffa:	0019      	movs	r1, r3
 8006ffc:	0010      	movs	r0, r2
 8006ffe:	f7f9 f881 	bl	8000104 <__udivsi3>
 8007002:	0003      	movs	r3, r0
 8007004:	633b      	str	r3, [r7, #48]	@ 0x30
      if ((usartdiv >= UART_BRR_MIN) && (usartdiv <= UART_BRR_MAX))
 8007006:	6b3b      	ldr	r3, [r7, #48]	@ 0x30
 8007008:	2b0f      	cmp	r3, #15
 800700a:	d90a      	bls.n	8007022 <UART_SetConfig+0x53a>
 800700c:	6b3a      	ldr	r2, [r7, #48]	@ 0x30
 800700e:	2380      	movs	r3, #128	@ 0x80
 8007010:	025b      	lsls	r3, r3, #9
 8007012:	429a      	cmp	r2, r3
 8007014:	d205      	bcs.n	8007022 <UART_SetConfig+0x53a>
      {
        huart->Instance->BRR = (uint16_t)usartdiv;
 8007016:	6b3b      	ldr	r3, [r7, #48]	@ 0x30
 8007018:	b29a      	uxth	r2, r3
 800701a:	6a7b      	ldr	r3, [r7, #36]	@ 0x24
 800701c:	681b      	ldr	r3, [r3, #0]
 800701e:	60da      	str	r2, [r3, #12]
 8007020:	e005      	b.n	800702e <UART_SetConfig+0x546>
      }
      else
      {
        ret = HAL_ERROR;
 8007022:	231a      	movs	r3, #26
 8007024:	2220      	movs	r2, #32
 8007026:	189b      	adds	r3, r3, r2
 8007028:	19db      	adds	r3, r3, r7
 800702a:	2201      	movs	r2, #1
 800702c:	701a      	strb	r2, [r3, #0]
      }
    }
  }

  /* Initialize the number of data to process during RX/TX ISR execution */
  huart->NbTxDataToProcess = 1;
 800702e:	6a7b      	ldr	r3, [r7, #36]	@ 0x24
 8007030:	226a      	movs	r2, #106	@ 0x6a
 8007032:	2101      	movs	r1, #1
 8007034:	5299      	strh	r1, [r3, r2]
  huart->NbRxDataToProcess = 1;
 8007036:	6a7b      	ldr	r3, [r7, #36]	@ 0x24
 8007038:	2268      	movs	r2, #104	@ 0x68
 800703a:	2101      	movs	r1, #1
 800703c:	5299      	strh	r1, [r3, r2]

  /* Clear ISR function pointers */
  huart->RxISR = NULL;
 800703e:	6a7b      	ldr	r3, [r7, #36]	@ 0x24
 8007040:	2200      	movs	r2, #0
 8007042:	675a      	str	r2, [r3, #116]	@ 0x74
  huart->TxISR = NULL;
 8007044:	6a7b      	ldr	r3, [r7, #36]	@ 0x24
 8007046:	2200      	movs	r2, #0
 8007048:	679a      	str	r2, [r3, #120]	@ 0x78

  return ret;
 800704a:	231a      	movs	r3, #26
 800704c:	2220      	movs	r2, #32
 800704e:	189b      	adds	r3, r3, r2
 8007050:	19db      	adds	r3, r3, r7
 8007052:	781b      	ldrb	r3, [r3, #0]
}
 8007054:	0018      	movs	r0, r3
 8007056:	46bd      	mov	sp, r7
 8007058:	b010      	add	sp, #64	@ 0x40
 800705a:	bdb0      	pop	{r4, r5, r7, pc}
 800705c:	0800788c 	.word	0x0800788c
 8007060:	00f42400 	.word	0x00f42400

08007064 <UART_AdvFeatureConfig>:
  * @brief Configure the UART peripheral advanced features.
  * @param huart UART handle.
  * @retval None
  */
void UART_AdvFeatureConfig(UART_HandleTypeDef *huart)
{
 8007064:	b580      	push	{r7, lr}
 8007066:	b082      	sub	sp, #8
 8007068:	af00      	add	r7, sp, #0
 800706a:	6078      	str	r0, [r7, #4]
  /* Check whether the set of advanced features to configure is properly set */
  assert_param(IS_UART_ADVFEATURE_INIT(huart->AdvancedInit.AdvFeatureInit));

  /* if required, configure RX/TX pins swap */
  if (HAL_IS_BIT_SET(huart->AdvancedInit.AdvFeatureInit, UART_ADVFEATURE_SWAP_INIT))
 800706c:	687b      	ldr	r3, [r7, #4]
 800706e:	6a9b      	ldr	r3, [r3, #40]	@ 0x28
 8007070:	2208      	movs	r2, #8
 8007072:	4013      	ands	r3, r2
 8007074:	d00b      	beq.n	800708e <UART_AdvFeatureConfig+0x2a>
  {
    assert_param(IS_UART_ADVFEATURE_SWAP(huart->AdvancedInit.Swap));
    MODIFY_REG(huart->Instance->CR2, USART_CR2_SWAP, huart->AdvancedInit.Swap);
 8007076:	687b      	ldr	r3, [r7, #4]
 8007078:	681b      	ldr	r3, [r3, #0]
 800707a:	685b      	ldr	r3, [r3, #4]
 800707c:	4a4a      	ldr	r2, [pc, #296]	@ (80071a8 <UART_AdvFeatureConfig+0x144>)
 800707e:	4013      	ands	r3, r2
 8007080:	0019      	movs	r1, r3
 8007082:	687b      	ldr	r3, [r7, #4]
 8007084:	6b9a      	ldr	r2, [r3, #56]	@ 0x38
 8007086:	687b      	ldr	r3, [r7, #4]
 8007088:	681b      	ldr	r3, [r3, #0]
 800708a:	430a      	orrs	r2, r1
 800708c:	605a      	str	r2, [r3, #4]
  }

  /* if required, configure TX pin active level inversion */
  if (HAL_IS_BIT_SET(huart->AdvancedInit.AdvFeatureInit, UART_ADVFEATURE_TXINVERT_INIT))
 800708e:	687b      	ldr	r3, [r7, #4]
 8007090:	6a9b      	ldr	r3, [r3, #40]	@ 0x28
 8007092:	2201      	movs	r2, #1
 8007094:	4013      	ands	r3, r2
 8007096:	d00b      	beq.n	80070b0 <UART_AdvFeatureConfig+0x4c>
  {
    assert_param(IS_UART_ADVFEATURE_TXINV(huart->AdvancedInit.TxPinLevelInvert));
    MODIFY_REG(huart->Instance->CR2, USART_CR2_TXINV, huart->AdvancedInit.TxPinLevelInvert);
 8007098:	687b      	ldr	r3, [r7, #4]
 800709a:	681b      	ldr	r3, [r3, #0]
 800709c:	685b      	ldr	r3, [r3, #4]
 800709e:	4a43      	ldr	r2, [pc, #268]	@ (80071ac <UART_AdvFeatureConfig+0x148>)
 80070a0:	4013      	ands	r3, r2
 80070a2:	0019      	movs	r1, r3
 80070a4:	687b      	ldr	r3, [r7, #4]
 80070a6:	6ada      	ldr	r2, [r3, #44]	@ 0x2c
 80070a8:	687b      	ldr	r3, [r7, #4]
 80070aa:	681b      	ldr	r3, [r3, #0]
 80070ac:	430a      	orrs	r2, r1
 80070ae:	605a      	str	r2, [r3, #4]
  }

  /* if required, configure RX pin active level inversion */
  if (HAL_IS_BIT_SET(huart->AdvancedInit.AdvFeatureInit, UART_ADVFEATURE_RXINVERT_INIT))
 80070b0:	687b      	ldr	r3, [r7, #4]
 80070b2:	6a9b      	ldr	r3, [r3, #40]	@ 0x28
 80070b4:	2202      	movs	r2, #2
 80070b6:	4013      	ands	r3, r2
 80070b8:	d00b      	beq.n	80070d2 <UART_AdvFeatureConfig+0x6e>
  {
    assert_param(IS_UART_ADVFEATURE_RXINV(huart->AdvancedInit.RxPinLevelInvert));
    MODIFY_REG(huart->Instance->CR2, USART_CR2_RXINV, huart->AdvancedInit.RxPinLevelInvert);
 80070ba:	687b      	ldr	r3, [r7, #4]
 80070bc:	681b      	ldr	r3, [r3, #0]
 80070be:	685b      	ldr	r3, [r3, #4]
 80070c0:	4a3b      	ldr	r2, [pc, #236]	@ (80071b0 <UART_AdvFeatureConfig+0x14c>)
 80070c2:	4013      	ands	r3, r2
 80070c4:	0019      	movs	r1, r3
 80070c6:	687b      	ldr	r3, [r7, #4]
 80070c8:	6b1a      	ldr	r2, [r3, #48]	@ 0x30
 80070ca:	687b      	ldr	r3, [r7, #4]
 80070cc:	681b      	ldr	r3, [r3, #0]
 80070ce:	430a      	orrs	r2, r1
 80070d0:	605a      	str	r2, [r3, #4]
  }

  /* if required, configure data inversion */
  if (HAL_IS_BIT_SET(huart->AdvancedInit.AdvFeatureInit, UART_ADVFEATURE_DATAINVERT_INIT))
 80070d2:	687b      	ldr	r3, [r7, #4]
 80070d4:	6a9b      	ldr	r3, [r3, #40]	@ 0x28
 80070d6:	2204      	movs	r2, #4
 80070d8:	4013      	ands	r3, r2
 80070da:	d00b      	beq.n	80070f4 <UART_AdvFeatureConfig+0x90>
  {
    assert_param(IS_UART_ADVFEATURE_DATAINV(huart->AdvancedInit.DataInvert));
    MODIFY_REG(huart->Instance->CR2, USART_CR2_DATAINV, huart->AdvancedInit.DataInvert);
 80070dc:	687b      	ldr	r3, [r7, #4]
 80070de:	681b      	ldr	r3, [r3, #0]
 80070e0:	685b      	ldr	r3, [r3, #4]
 80070e2:	4a34      	ldr	r2, [pc, #208]	@ (80071b4 <UART_AdvFeatureConfig+0x150>)
 80070e4:	4013      	ands	r3, r2
 80070e6:	0019      	movs	r1, r3
 80070e8:	687b      	ldr	r3, [r7, #4]
 80070ea:	6b5a      	ldr	r2, [r3, #52]	@ 0x34
 80070ec:	687b      	ldr	r3, [r7, #4]
 80070ee:	681b      	ldr	r3, [r3, #0]
 80070f0:	430a      	orrs	r2, r1
 80070f2:	605a      	str	r2, [r3, #4]
  }

  /* if required, configure RX overrun detection disabling */
  if (HAL_IS_BIT_SET(huart->AdvancedInit.AdvFeatureInit, UART_ADVFEATURE_RXOVERRUNDISABLE_INIT))
 80070f4:	687b      	ldr	r3, [r7, #4]
 80070f6:	6a9b      	ldr	r3, [r3, #40]	@ 0x28
 80070f8:	2210      	movs	r2, #16
 80070fa:	4013      	ands	r3, r2
 80070fc:	d00b      	beq.n	8007116 <UART_AdvFeatureConfig+0xb2>
  {
    assert_param(IS_UART_OVERRUN(huart->AdvancedInit.OverrunDisable));
    MODIFY_REG(huart->Instance->CR3, USART_CR3_OVRDIS, huart->AdvancedInit.OverrunDisable);
 80070fe:	687b      	ldr	r3, [r7, #4]
 8007100:	681b      	ldr	r3, [r3, #0]
 8007102:	689b      	ldr	r3, [r3, #8]
 8007104:	4a2c      	ldr	r2, [pc, #176]	@ (80071b8 <UART_AdvFeatureConfig+0x154>)
 8007106:	4013      	ands	r3, r2
 8007108:	0019      	movs	r1, r3
 800710a:	687b      	ldr	r3, [r7, #4]
 800710c:	6bda      	ldr	r2, [r3, #60]	@ 0x3c
 800710e:	687b      	ldr	r3, [r7, #4]
 8007110:	681b      	ldr	r3, [r3, #0]
 8007112:	430a      	orrs	r2, r1
 8007114:	609a      	str	r2, [r3, #8]
  }

  /* if required, configure DMA disabling on reception error */
  if (HAL_IS_BIT_SET(huart->AdvancedInit.AdvFeatureInit, UART_ADVFEATURE_DMADISABLEONERROR_INIT))
 8007116:	687b      	ldr	r3, [r7, #4]
 8007118:	6a9b      	ldr	r3, [r3, #40]	@ 0x28
 800711a:	2220      	movs	r2, #32
 800711c:	4013      	ands	r3, r2
 800711e:	d00b      	beq.n	8007138 <UART_AdvFeatureConfig+0xd4>
  {
    assert_param(IS_UART_ADVFEATURE_DMAONRXERROR(huart->AdvancedInit.DMADisableonRxError));
    MODIFY_REG(huart->Instance->CR3, USART_CR3_DDRE, huart->AdvancedInit.DMADisableonRxError);
 8007120:	687b      	ldr	r3, [r7, #4]
 8007122:	681b      	ldr	r3, [r3, #0]
 8007124:	689b      	ldr	r3, [r3, #8]
 8007126:	4a25      	ldr	r2, [pc, #148]	@ (80071bc <UART_AdvFeatureConfig+0x158>)
 8007128:	4013      	ands	r3, r2
 800712a:	0019      	movs	r1, r3
 800712c:	687b      	ldr	r3, [r7, #4]
 800712e:	6c1a      	ldr	r2, [r3, #64]	@ 0x40
 8007130:	687b      	ldr	r3, [r7, #4]
 8007132:	681b      	ldr	r3, [r3, #0]
 8007134:	430a      	orrs	r2, r1
 8007136:	609a      	str	r2, [r3, #8]
  }

  /* if required, configure auto Baud rate detection scheme */
  if (HAL_IS_BIT_SET(huart->AdvancedInit.AdvFeatureInit, UART_ADVFEATURE_AUTOBAUDRATE_INIT))
 8007138:	687b      	ldr	r3, [r7, #4]
 800713a:	6a9b      	ldr	r3, [r3, #40]	@ 0x28
 800713c:	2240      	movs	r2, #64	@ 0x40
 800713e:	4013      	ands	r3, r2
 8007140:	d01d      	beq.n	800717e <UART_AdvFeatureConfig+0x11a>
  {
    assert_param(IS_USART_AUTOBAUDRATE_DETECTION_INSTANCE(huart->Instance));
    assert_param(IS_UART_ADVFEATURE_AUTOBAUDRATE(huart->AdvancedInit.AutoBaudRateEnable));
    MODIFY_REG(huart->Instance->CR2, USART_CR2_ABREN, huart->AdvancedInit.AutoBaudRateEnable);
 8007142:	687b      	ldr	r3, [r7, #4]
 8007144:	681b      	ldr	r3, [r3, #0]
 8007146:	685b      	ldr	r3, [r3, #4]
 8007148:	4a1d      	ldr	r2, [pc, #116]	@ (80071c0 <UART_AdvFeatureConfig+0x15c>)
 800714a:	4013      	ands	r3, r2
 800714c:	0019      	movs	r1, r3
 800714e:	687b      	ldr	r3, [r7, #4]
 8007150:	6c5a      	ldr	r2, [r3, #68]	@ 0x44
 8007152:	687b      	ldr	r3, [r7, #4]
 8007154:	681b      	ldr	r3, [r3, #0]
 8007156:	430a      	orrs	r2, r1
 8007158:	605a      	str	r2, [r3, #4]
    /* set auto Baudrate detection parameters if detection is enabled */
    if (huart->AdvancedInit.AutoBaudRateEnable == UART_ADVFEATURE_AUTOBAUDRATE_ENABLE)
 800715a:	687b      	ldr	r3, [r7, #4]
 800715c:	6c5a      	ldr	r2, [r3, #68]	@ 0x44
 800715e:	2380      	movs	r3, #128	@ 0x80
 8007160:	035b      	lsls	r3, r3, #13
 8007162:	429a      	cmp	r2, r3
 8007164:	d10b      	bne.n	800717e <UART_AdvFeatureConfig+0x11a>
    {
      assert_param(IS_UART_ADVFEATURE_AUTOBAUDRATEMODE(huart->AdvancedInit.AutoBaudRateMode));
      MODIFY_REG(huart->Instance->CR2, USART_CR2_ABRMODE, huart->AdvancedInit.AutoBaudRateMode);
 8007166:	687b      	ldr	r3, [r7, #4]
 8007168:	681b      	ldr	r3, [r3, #0]
 800716a:	685b      	ldr	r3, [r3, #4]
 800716c:	4a15      	ldr	r2, [pc, #84]	@ (80071c4 <UART_AdvFeatureConfig+0x160>)
 800716e:	4013      	ands	r3, r2
 8007170:	0019      	movs	r1, r3
 8007172:	687b      	ldr	r3, [r7, #4]
 8007174:	6c9a      	ldr	r2, [r3, #72]	@ 0x48
 8007176:	687b      	ldr	r3, [r7, #4]
 8007178:	681b      	ldr	r3, [r3, #0]
 800717a:	430a      	orrs	r2, r1
 800717c:	605a      	str	r2, [r3, #4]
    }
  }

  /* if required, configure MSB first on communication line */
  if (HAL_IS_BIT_SET(huart->AdvancedInit.AdvFeatureInit, UART_ADVFEATURE_MSBFIRST_INIT))
 800717e:	687b      	ldr	r3, [r7, #4]
 8007180:	6a9b      	ldr	r3, [r3, #40]	@ 0x28
 8007182:	2280      	movs	r2, #128	@ 0x80
 8007184:	4013      	ands	r3, r2
 8007186:	d00b      	beq.n	80071a0 <UART_AdvFeatureConfig+0x13c>
  {
    assert_param(IS_UART_ADVFEATURE_MSBFIRST(huart->AdvancedInit.MSBFirst));
    MODIFY_REG(huart->Instance->CR2, USART_CR2_MSBFIRST, huart->AdvancedInit.MSBFirst);
 8007188:	687b      	ldr	r3, [r7, #4]
 800718a:	681b      	ldr	r3, [r3, #0]
 800718c:	685b      	ldr	r3, [r3, #4]
 800718e:	4a0e      	ldr	r2, [pc, #56]	@ (80071c8 <UART_AdvFeatureConfig+0x164>)
 8007190:	4013      	ands	r3, r2
 8007192:	0019      	movs	r1, r3
 8007194:	687b      	ldr	r3, [r7, #4]
 8007196:	6cda      	ldr	r2, [r3, #76]	@ 0x4c
 8007198:	687b      	ldr	r3, [r7, #4]
 800719a:	681b      	ldr	r3, [r3, #0]
 800719c:	430a      	orrs	r2, r1
 800719e:	605a      	str	r2, [r3, #4]
  }
}
 80071a0:	46c0      	nop			@ (mov r8, r8)
 80071a2:	46bd      	mov	sp, r7
 80071a4:	b002      	add	sp, #8
 80071a6:	bd80      	pop	{r7, pc}
 80071a8:	ffff7fff 	.word	0xffff7fff
 80071ac:	fffdffff 	.word	0xfffdffff
 80071b0:	fffeffff 	.word	0xfffeffff
 80071b4:	fffbffff 	.word	0xfffbffff
 80071b8:	ffffefff 	.word	0xffffefff
 80071bc:	ffffdfff 	.word	0xffffdfff
 80071c0:	ffefffff 	.word	0xffefffff
 80071c4:	ff9fffff 	.word	0xff9fffff
 80071c8:	fff7ffff 	.word	0xfff7ffff

080071cc <UART_CheckIdleState>:
  * @brief Check the UART Idle State.
  * @param huart UART handle.
  * @retval HAL status
  */
HAL_StatusTypeDef UART_CheckIdleState(UART_HandleTypeDef *huart)
{
 80071cc:	b580      	push	{r7, lr}
 80071ce:	b092      	sub	sp, #72	@ 0x48
 80071d0:	af02      	add	r7, sp, #8
 80071d2:	6078      	str	r0, [r7, #4]
  uint32_t tickstart;

  /* Initialize the UART ErrorCode */
  huart->ErrorCode = HAL_UART_ERROR_NONE;
 80071d4:	687b      	ldr	r3, [r7, #4]
 80071d6:	2290      	movs	r2, #144	@ 0x90
 80071d8:	2100      	movs	r1, #0
 80071da:	5099      	str	r1, [r3, r2]

  /* Init tickstart for timeout management */
  tickstart = HAL_GetTick();
 80071dc:	f7fa fe7e 	bl	8001edc <HAL_GetTick>
 80071e0:	0003      	movs	r3, r0
 80071e2:	63fb      	str	r3, [r7, #60]	@ 0x3c

  /* Check if the Transmitter is enabled */
  if ((huart->Instance->CR1 & USART_CR1_TE) == USART_CR1_TE)
 80071e4:	687b      	ldr	r3, [r7, #4]
 80071e6:	681b      	ldr	r3, [r3, #0]
 80071e8:	681b      	ldr	r3, [r3, #0]
 80071ea:	2208      	movs	r2, #8
 80071ec:	4013      	ands	r3, r2
 80071ee:	2b08      	cmp	r3, #8
 80071f0:	d12d      	bne.n	800724e <UART_CheckIdleState+0x82>
  {
    /* Wait until TEACK flag is set */
    if (UART_WaitOnFlagUntilTimeout(huart, USART_ISR_TEACK, RESET, tickstart, HAL_UART_TIMEOUT_VALUE) != HAL_OK)
 80071f2:	6bfb      	ldr	r3, [r7, #60]	@ 0x3c
 80071f4:	2280      	movs	r2, #128	@ 0x80
 80071f6:	0391      	lsls	r1, r2, #14
 80071f8:	6878      	ldr	r0, [r7, #4]
 80071fa:	4a47      	ldr	r2, [pc, #284]	@ (8007318 <UART_CheckIdleState+0x14c>)
 80071fc:	9200      	str	r2, [sp, #0]
 80071fe:	2200      	movs	r2, #0
 8007200:	f000 f88e 	bl	8007320 <UART_WaitOnFlagUntilTimeout>
 8007204:	1e03      	subs	r3, r0, #0
 8007206:	d022      	beq.n	800724e <UART_CheckIdleState+0x82>
 */
__STATIC_FORCEINLINE uint32_t __get_PRIMASK(void)
{
  uint32_t result;

  __ASM volatile ("MRS %0, primask" : "=r" (result) :: "memory");
 8007208:	f3ef 8310 	mrs	r3, PRIMASK
 800720c:	627b      	str	r3, [r7, #36]	@ 0x24
  return(result);
 800720e:	6a7b      	ldr	r3, [r7, #36]	@ 0x24
    {
      /* Disable TXE interrupt for the interrupt process */
      ATOMIC_CLEAR_BIT(huart->Instance->CR1, (USART_CR1_TXEIE_TXFNFIE));
 8007210:	63bb      	str	r3, [r7, #56]	@ 0x38
 8007212:	2301      	movs	r3, #1
 8007214:	62bb      	str	r3, [r7, #40]	@ 0x28
  \details Assigns the given value to the Priority Mask Register.
  \param [in]    priMask  Priority Mask
 */
__STATIC_FORCEINLINE void __set_PRIMASK(uint32_t priMask)
{
  __ASM volatile ("MSR primask, %0" : : "r" (priMask) : "memory");
 8007216:	6abb      	ldr	r3, [r7, #40]	@ 0x28
 8007218:	f383 8810 	msr	PRIMASK, r3
}
 800721c:	46c0      	nop			@ (mov r8, r8)
 800721e:	687b      	ldr	r3, [r7, #4]
 8007220:	681b      	ldr	r3, [r3, #0]
 8007222:	681a      	ldr	r2, [r3, #0]
 8007224:	687b      	ldr	r3, [r7, #4]
 8007226:	681b      	ldr	r3, [r3, #0]
 8007228:	2180      	movs	r1, #128	@ 0x80
 800722a:	438a      	bics	r2, r1
 800722c:	601a      	str	r2, [r3, #0]
 800722e:	6bbb      	ldr	r3, [r7, #56]	@ 0x38
 8007230:	62fb      	str	r3, [r7, #44]	@ 0x2c
  __ASM volatile ("MSR primask, %0" : : "r" (priMask) : "memory");
 8007232:	6afb      	ldr	r3, [r7, #44]	@ 0x2c
 8007234:	f383 8810 	msr	PRIMASK, r3
}
 8007238:	46c0      	nop			@ (mov r8, r8)

      huart->gState = HAL_UART_STATE_READY;
 800723a:	687b      	ldr	r3, [r7, #4]
 800723c:	2288      	movs	r2, #136	@ 0x88
 800723e:	2120      	movs	r1, #32
 8007240:	5099      	str	r1, [r3, r2]

      __HAL_UNLOCK(huart);
 8007242:	687b      	ldr	r3, [r7, #4]
 8007244:	2284      	movs	r2, #132	@ 0x84
 8007246:	2100      	movs	r1, #0
 8007248:	5499      	strb	r1, [r3, r2]

      /* Timeout occurred */
      return HAL_TIMEOUT;
 800724a:	2303      	movs	r3, #3
 800724c:	e060      	b.n	8007310 <UART_CheckIdleState+0x144>
    }
  }

  /* Check if the Receiver is enabled */
  if ((huart->Instance->CR1 & USART_CR1_RE) == USART_CR1_RE)
 800724e:	687b      	ldr	r3, [r7, #4]
 8007250:	681b      	ldr	r3, [r3, #0]
 8007252:	681b      	ldr	r3, [r3, #0]
 8007254:	2204      	movs	r2, #4
 8007256:	4013      	ands	r3, r2
 8007258:	2b04      	cmp	r3, #4
 800725a:	d146      	bne.n	80072ea <UART_CheckIdleState+0x11e>
  {
    /* Wait until REACK flag is set */
    if (UART_WaitOnFlagUntilTimeout(huart, USART_ISR_REACK, RESET, tickstart, HAL_UART_TIMEOUT_VALUE) != HAL_OK)
 800725c:	6bfb      	ldr	r3, [r7, #60]	@ 0x3c
 800725e:	2280      	movs	r2, #128	@ 0x80
 8007260:	03d1      	lsls	r1, r2, #15
 8007262:	6878      	ldr	r0, [r7, #4]
 8007264:	4a2c      	ldr	r2, [pc, #176]	@ (8007318 <UART_CheckIdleState+0x14c>)
 8007266:	9200      	str	r2, [sp, #0]
 8007268:	2200      	movs	r2, #0
 800726a:	f000 f859 	bl	8007320 <UART_WaitOnFlagUntilTimeout>
 800726e:	1e03      	subs	r3, r0, #0
 8007270:	d03b      	beq.n	80072ea <UART_CheckIdleState+0x11e>
  __ASM volatile ("MRS %0, primask" : "=r" (result) :: "memory");
 8007272:	f3ef 8310 	mrs	r3, PRIMASK
 8007276:	60fb      	str	r3, [r7, #12]
  return(result);
 8007278:	68fb      	ldr	r3, [r7, #12]
    {
      /* Disable RXNE, PE and ERR (Frame error, noise error, overrun error)
      interrupts for the interrupt process */
      ATOMIC_CLEAR_BIT(huart->Instance->CR1, (USART_CR1_RXNEIE_RXFNEIE | USART_CR1_PEIE));
 800727a:	637b      	str	r3, [r7, #52]	@ 0x34
 800727c:	2301      	movs	r3, #1
 800727e:	613b      	str	r3, [r7, #16]
  __ASM volatile ("MSR primask, %0" : : "r" (priMask) : "memory");
 8007280:	693b      	ldr	r3, [r7, #16]
 8007282:	f383 8810 	msr	PRIMASK, r3
}
 8007286:	46c0      	nop			@ (mov r8, r8)
 8007288:	687b      	ldr	r3, [r7, #4]
 800728a:	681b      	ldr	r3, [r3, #0]
 800728c:	681a      	ldr	r2, [r3, #0]
 800728e:	687b      	ldr	r3, [r7, #4]
 8007290:	681b      	ldr	r3, [r3, #0]
 8007292:	4922      	ldr	r1, [pc, #136]	@ (800731c <UART_CheckIdleState+0x150>)
 8007294:	400a      	ands	r2, r1
 8007296:	601a      	str	r2, [r3, #0]
 8007298:	6b7b      	ldr	r3, [r7, #52]	@ 0x34
 800729a:	617b      	str	r3, [r7, #20]
  __ASM volatile ("MSR primask, %0" : : "r" (priMask) : "memory");
 800729c:	697b      	ldr	r3, [r7, #20]
 800729e:	f383 8810 	msr	PRIMASK, r3
}
 80072a2:	46c0      	nop			@ (mov r8, r8)
  __ASM volatile ("MRS %0, primask" : "=r" (result) :: "memory");
 80072a4:	f3ef 8310 	mrs	r3, PRIMASK
 80072a8:	61bb      	str	r3, [r7, #24]
  return(result);
 80072aa:	69bb      	ldr	r3, [r7, #24]
      ATOMIC_CLEAR_BIT(huart->Instance->CR3, USART_CR3_EIE);
 80072ac:	633b      	str	r3, [r7, #48]	@ 0x30
 80072ae:	2301      	movs	r3, #1
 80072b0:	61fb      	str	r3, [r7, #28]
  __ASM volatile ("MSR primask, %0" : : "r" (priMask) : "memory");
 80072b2:	69fb      	ldr	r3, [r7, #28]
 80072b4:	f383 8810 	msr	PRIMASK, r3
}
 80072b8:	46c0      	nop			@ (mov r8, r8)
 80072ba:	687b      	ldr	r3, [r7, #4]
 80072bc:	681b      	ldr	r3, [r3, #0]
 80072be:	689a      	ldr	r2, [r3, #8]
 80072c0:	687b      	ldr	r3, [r7, #4]
 80072c2:	681b      	ldr	r3, [r3, #0]
 80072c4:	2101      	movs	r1, #1
 80072c6:	438a      	bics	r2, r1
 80072c8:	609a      	str	r2, [r3, #8]
 80072ca:	6b3b      	ldr	r3, [r7, #48]	@ 0x30
 80072cc:	623b      	str	r3, [r7, #32]
  __ASM volatile ("MSR primask, %0" : : "r" (priMask) : "memory");
 80072ce:	6a3b      	ldr	r3, [r7, #32]
 80072d0:	f383 8810 	msr	PRIMASK, r3
}
 80072d4:	46c0      	nop			@ (mov r8, r8)

      huart->RxState = HAL_UART_STATE_READY;
 80072d6:	687b      	ldr	r3, [r7, #4]
 80072d8:	228c      	movs	r2, #140	@ 0x8c
 80072da:	2120      	movs	r1, #32
 80072dc:	5099      	str	r1, [r3, r2]

      __HAL_UNLOCK(huart);
 80072de:	687b      	ldr	r3, [r7, #4]
 80072e0:	2284      	movs	r2, #132	@ 0x84
 80072e2:	2100      	movs	r1, #0
 80072e4:	5499      	strb	r1, [r3, r2]

      /* Timeout occurred */
      return HAL_TIMEOUT;
 80072e6:	2303      	movs	r3, #3
 80072e8:	e012      	b.n	8007310 <UART_CheckIdleState+0x144>
    }
  }

  /* Initialize the UART State */
  huart->gState = HAL_UART_STATE_READY;
 80072ea:	687b      	ldr	r3, [r7, #4]
 80072ec:	2288      	movs	r2, #136	@ 0x88
 80072ee:	2120      	movs	r1, #32
 80072f0:	5099      	str	r1, [r3, r2]
  huart->RxState = HAL_UART_STATE_READY;
 80072f2:	687b      	ldr	r3, [r7, #4]
 80072f4:	228c      	movs	r2, #140	@ 0x8c
 80072f6:	2120      	movs	r1, #32
 80072f8:	5099      	str	r1, [r3, r2]
  huart->ReceptionType = HAL_UART_RECEPTION_STANDARD;
 80072fa:	687b      	ldr	r3, [r7, #4]
 80072fc:	2200      	movs	r2, #0
 80072fe:	66da      	str	r2, [r3, #108]	@ 0x6c
  huart->RxEventType = HAL_UART_RXEVENT_TC;
 8007300:	687b      	ldr	r3, [r7, #4]
 8007302:	2200      	movs	r2, #0
 8007304:	671a      	str	r2, [r3, #112]	@ 0x70

  __HAL_UNLOCK(huart);
 8007306:	687b      	ldr	r3, [r7, #4]
 8007308:	2284      	movs	r2, #132	@ 0x84
 800730a:	2100      	movs	r1, #0
 800730c:	5499      	strb	r1, [r3, r2]

  return HAL_OK;
 800730e:	2300      	movs	r3, #0
}
 8007310:	0018      	movs	r0, r3
 8007312:	46bd      	mov	sp, r7
 8007314:	b010      	add	sp, #64	@ 0x40
 8007316:	bd80      	pop	{r7, pc}
 8007318:	01ffffff 	.word	0x01ffffff
 800731c:	fffffedf 	.word	0xfffffedf

08007320 <UART_WaitOnFlagUntilTimeout>:
  * @param Timeout   Timeout duration
  * @retval HAL status
  */
HAL_StatusTypeDef UART_WaitOnFlagUntilTimeout(UART_HandleTypeDef *huart, uint32_t Flag, FlagStatus Status,
                                              uint32_t Tickstart, uint32_t Timeout)
{
 8007320:	b580      	push	{r7, lr}
 8007322:	b084      	sub	sp, #16
 8007324:	af00      	add	r7, sp, #0
 8007326:	60f8      	str	r0, [r7, #12]
 8007328:	60b9      	str	r1, [r7, #8]
 800732a:	603b      	str	r3, [r7, #0]
 800732c:	1dfb      	adds	r3, r7, #7
 800732e:	701a      	strb	r2, [r3, #0]
  /* Wait until flag is set */
  while ((__HAL_UART_GET_FLAG(huart, Flag) ? SET : RESET) == Status)
 8007330:	e051      	b.n	80073d6 <UART_WaitOnFlagUntilTimeout+0xb6>
  {
    /* Check for the Timeout */
    if (Timeout != HAL_MAX_DELAY)
 8007332:	69bb      	ldr	r3, [r7, #24]
 8007334:	3301      	adds	r3, #1
 8007336:	d04e      	beq.n	80073d6 <UART_WaitOnFlagUntilTimeout+0xb6>
    {
      if (((HAL_GetTick() - Tickstart) > Timeout) || (Timeout == 0U))
 8007338:	f7fa fdd0 	bl	8001edc <HAL_GetTick>
 800733c:	0002      	movs	r2, r0
 800733e:	683b      	ldr	r3, [r7, #0]
 8007340:	1ad3      	subs	r3, r2, r3
 8007342:	69ba      	ldr	r2, [r7, #24]
 8007344:	429a      	cmp	r2, r3
 8007346:	d302      	bcc.n	800734e <UART_WaitOnFlagUntilTimeout+0x2e>
 8007348:	69bb      	ldr	r3, [r7, #24]
 800734a:	2b00      	cmp	r3, #0
 800734c:	d101      	bne.n	8007352 <UART_WaitOnFlagUntilTimeout+0x32>
      {

        return HAL_TIMEOUT;
 800734e:	2303      	movs	r3, #3
 8007350:	e051      	b.n	80073f6 <UART_WaitOnFlagUntilTimeout+0xd6>
      }

      if ((READ_BIT(huart->Instance->CR1, USART_CR1_RE) != 0U) && (Flag != UART_FLAG_TXE) && (Flag != UART_FLAG_TC))
 8007352:	68fb      	ldr	r3, [r7, #12]
 8007354:	681b      	ldr	r3, [r3, #0]
 8007356:	681b      	ldr	r3, [r3, #0]
 8007358:	2204      	movs	r2, #4
 800735a:	4013      	ands	r3, r2
 800735c:	d03b      	beq.n	80073d6 <UART_WaitOnFlagUntilTimeout+0xb6>
 800735e:	68bb      	ldr	r3, [r7, #8]
 8007360:	2b80      	cmp	r3, #128	@ 0x80
 8007362:	d038      	beq.n	80073d6 <UART_WaitOnFlagUntilTimeout+0xb6>
 8007364:	68bb      	ldr	r3, [r7, #8]
 8007366:	2b40      	cmp	r3, #64	@ 0x40
 8007368:	d035      	beq.n	80073d6 <UART_WaitOnFlagUntilTimeout+0xb6>
      {
        if (__HAL_UART_GET_FLAG(huart, UART_FLAG_ORE) == SET)
 800736a:	68fb      	ldr	r3, [r7, #12]
 800736c:	681b      	ldr	r3, [r3, #0]
 800736e:	69db      	ldr	r3, [r3, #28]
 8007370:	2208      	movs	r2, #8
 8007372:	4013      	ands	r3, r2
 8007374:	2b08      	cmp	r3, #8
 8007376:	d111      	bne.n	800739c <UART_WaitOnFlagUntilTimeout+0x7c>
        {
          /* Clear Overrun Error flag*/
          __HAL_UART_CLEAR_FLAG(huart, UART_CLEAR_OREF);
 8007378:	68fb      	ldr	r3, [r7, #12]
 800737a:	681b      	ldr	r3, [r3, #0]
 800737c:	2208      	movs	r2, #8
 800737e:	621a      	str	r2, [r3, #32]

          /* Blocking error : transfer is aborted
          Set the UART state ready to be able to start again the process,
          Disable Rx Interrupts if ongoing */
          UART_EndRxTransfer(huart);
 8007380:	68fb      	ldr	r3, [r7, #12]
 8007382:	0018      	movs	r0, r3
 8007384:	f000 f83c 	bl	8007400 <UART_EndRxTransfer>

          huart->ErrorCode = HAL_UART_ERROR_ORE;
 8007388:	68fb      	ldr	r3, [r7, #12]
 800738a:	2290      	movs	r2, #144	@ 0x90
 800738c:	2108      	movs	r1, #8
 800738e:	5099      	str	r1, [r3, r2]

          /* Process Unlocked */
          __HAL_UNLOCK(huart);
 8007390:	68fb      	ldr	r3, [r7, #12]
 8007392:	2284      	movs	r2, #132	@ 0x84
 8007394:	2100      	movs	r1, #0
 8007396:	5499      	strb	r1, [r3, r2]

          return HAL_ERROR;
 8007398:	2301      	movs	r3, #1
 800739a:	e02c      	b.n	80073f6 <UART_WaitOnFlagUntilTimeout+0xd6>
        }
        if (__HAL_UART_GET_FLAG(huart, UART_FLAG_RTOF) == SET)
 800739c:	68fb      	ldr	r3, [r7, #12]
 800739e:	681b      	ldr	r3, [r3, #0]
 80073a0:	69da      	ldr	r2, [r3, #28]
 80073a2:	2380      	movs	r3, #128	@ 0x80
 80073a4:	011b      	lsls	r3, r3, #4
 80073a6:	401a      	ands	r2, r3
 80073a8:	2380      	movs	r3, #128	@ 0x80
 80073aa:	011b      	lsls	r3, r3, #4
 80073ac:	429a      	cmp	r2, r3
 80073ae:	d112      	bne.n	80073d6 <UART_WaitOnFlagUntilTimeout+0xb6>
        {
          /* Clear Receiver Timeout flag*/
          __HAL_UART_CLEAR_FLAG(huart, UART_CLEAR_RTOF);
 80073b0:	68fb      	ldr	r3, [r7, #12]
 80073b2:	681b      	ldr	r3, [r3, #0]
 80073b4:	2280      	movs	r2, #128	@ 0x80
 80073b6:	0112      	lsls	r2, r2, #4
 80073b8:	621a      	str	r2, [r3, #32]

          /* Blocking error : transfer is aborted
          Set the UART state ready to be able to start again the process,
          Disable Rx Interrupts if ongoing */
          UART_EndRxTransfer(huart);
 80073ba:	68fb      	ldr	r3, [r7, #12]
 80073bc:	0018      	movs	r0, r3
 80073be:	f000 f81f 	bl	8007400 <UART_EndRxTransfer>

          huart->ErrorCode = HAL_UART_ERROR_RTO;
 80073c2:	68fb      	ldr	r3, [r7, #12]
 80073c4:	2290      	movs	r2, #144	@ 0x90
 80073c6:	2120      	movs	r1, #32
 80073c8:	5099      	str	r1, [r3, r2]

          /* Process Unlocked */
          __HAL_UNLOCK(huart);
 80073ca:	68fb      	ldr	r3, [r7, #12]
 80073cc:	2284      	movs	r2, #132	@ 0x84
 80073ce:	2100      	movs	r1, #0
 80073d0:	5499      	strb	r1, [r3, r2]

          return HAL_TIMEOUT;
 80073d2:	2303      	movs	r3, #3
 80073d4:	e00f      	b.n	80073f6 <UART_WaitOnFlagUntilTimeout+0xd6>
  while ((__HAL_UART_GET_FLAG(huart, Flag) ? SET : RESET) == Status)
 80073d6:	68fb      	ldr	r3, [r7, #12]
 80073d8:	681b      	ldr	r3, [r3, #0]
 80073da:	69db      	ldr	r3, [r3, #28]
 80073dc:	68ba      	ldr	r2, [r7, #8]
 80073de:	4013      	ands	r3, r2
 80073e0:	68ba      	ldr	r2, [r7, #8]
 80073e2:	1ad3      	subs	r3, r2, r3
 80073e4:	425a      	negs	r2, r3
 80073e6:	4153      	adcs	r3, r2
 80073e8:	b2db      	uxtb	r3, r3
 80073ea:	001a      	movs	r2, r3
 80073ec:	1dfb      	adds	r3, r7, #7
 80073ee:	781b      	ldrb	r3, [r3, #0]
 80073f0:	429a      	cmp	r2, r3
 80073f2:	d09e      	beq.n	8007332 <UART_WaitOnFlagUntilTimeout+0x12>
        }
      }
    }
  }
  return HAL_OK;
 80073f4:	2300      	movs	r3, #0
}
 80073f6:	0018      	movs	r0, r3
 80073f8:	46bd      	mov	sp, r7
 80073fa:	b004      	add	sp, #16
 80073fc:	bd80      	pop	{r7, pc}
	...

08007400 <UART_EndRxTransfer>:
  * @brief  End ongoing Rx transfer on UART peripheral (following error detection or Reception completion).
  * @param  huart UART handle.
  * @retval None
  */
static void UART_EndRxTransfer(UART_HandleTypeDef *huart)
{
 8007400:	b580      	push	{r7, lr}
 8007402:	b08e      	sub	sp, #56	@ 0x38
 8007404:	af00      	add	r7, sp, #0
 8007406:	6078      	str	r0, [r7, #4]
  __ASM volatile ("MRS %0, primask" : "=r" (result) :: "memory");
 8007408:	f3ef 8310 	mrs	r3, PRIMASK
 800740c:	617b      	str	r3, [r7, #20]
  return(result);
 800740e:	697b      	ldr	r3, [r7, #20]
  /* Disable RXNE, PE and ERR (Frame error, noise error, overrun error) interrupts */
  ATOMIC_CLEAR_BIT(huart->Instance->CR1, (USART_CR1_RXNEIE_RXFNEIE | USART_CR1_PEIE));
 8007410:	637b      	str	r3, [r7, #52]	@ 0x34
 8007412:	2301      	movs	r3, #1
 8007414:	61bb      	str	r3, [r7, #24]
  __ASM volatile ("MSR primask, %0" : : "r" (priMask) : "memory");
 8007416:	69bb      	ldr	r3, [r7, #24]
 8007418:	f383 8810 	msr	PRIMASK, r3
}
 800741c:	46c0      	nop			@ (mov r8, r8)
 800741e:	687b      	ldr	r3, [r7, #4]
 8007420:	681b      	ldr	r3, [r3, #0]
 8007422:	681a      	ldr	r2, [r3, #0]
 8007424:	687b      	ldr	r3, [r7, #4]
 8007426:	681b      	ldr	r3, [r3, #0]
 8007428:	4926      	ldr	r1, [pc, #152]	@ (80074c4 <UART_EndRxTransfer+0xc4>)
 800742a:	400a      	ands	r2, r1
 800742c:	601a      	str	r2, [r3, #0]
 800742e:	6b7b      	ldr	r3, [r7, #52]	@ 0x34
 8007430:	61fb      	str	r3, [r7, #28]
  __ASM volatile ("MSR primask, %0" : : "r" (priMask) : "memory");
 8007432:	69fb      	ldr	r3, [r7, #28]
 8007434:	f383 8810 	msr	PRIMASK, r3
}
 8007438:	46c0      	nop			@ (mov r8, r8)
  __ASM volatile ("MRS %0, primask" : "=r" (result) :: "memory");
 800743a:	f3ef 8310 	mrs	r3, PRIMASK
 800743e:	623b      	str	r3, [r7, #32]
  return(result);
 8007440:	6a3b      	ldr	r3, [r7, #32]
  ATOMIC_CLEAR_BIT(huart->Instance->CR3, (USART_CR3_EIE | USART_CR3_RXFTIE));
 8007442:	633b      	str	r3, [r7, #48]	@ 0x30
 8007444:	2301      	movs	r3, #1
 8007446:	627b      	str	r3, [r7, #36]	@ 0x24
  __ASM volatile ("MSR primask, %0" : : "r" (priMask) : "memory");
 8007448:	6a7b      	ldr	r3, [r7, #36]	@ 0x24
 800744a:	f383 8810 	msr	PRIMASK, r3
}
 800744e:	46c0      	nop			@ (mov r8, r8)
 8007450:	687b      	ldr	r3, [r7, #4]
 8007452:	681b      	ldr	r3, [r3, #0]
 8007454:	689a      	ldr	r2, [r3, #8]
 8007456:	687b      	ldr	r3, [r7, #4]
 8007458:	681b      	ldr	r3, [r3, #0]
 800745a:	491b      	ldr	r1, [pc, #108]	@ (80074c8 <UART_EndRxTransfer+0xc8>)
 800745c:	400a      	ands	r2, r1
 800745e:	609a      	str	r2, [r3, #8]
 8007460:	6b3b      	ldr	r3, [r7, #48]	@ 0x30
 8007462:	62bb      	str	r3, [r7, #40]	@ 0x28
  __ASM volatile ("MSR primask, %0" : : "r" (priMask) : "memory");
 8007464:	6abb      	ldr	r3, [r7, #40]	@ 0x28
 8007466:	f383 8810 	msr	PRIMASK, r3
}
 800746a:	46c0      	nop			@ (mov r8, r8)

  /* In case of reception waiting for IDLE event, disable also the IDLE IE interrupt source */
  if (huart->ReceptionType == HAL_UART_RECEPTION_TOIDLE)
 800746c:	687b      	ldr	r3, [r7, #4]
 800746e:	6edb      	ldr	r3, [r3, #108]	@ 0x6c
 8007470:	2b01      	cmp	r3, #1
 8007472:	d118      	bne.n	80074a6 <UART_EndRxTransfer+0xa6>
  __ASM volatile ("MRS %0, primask" : "=r" (result) :: "memory");
 8007474:	f3ef 8310 	mrs	r3, PRIMASK
 8007478:	60bb      	str	r3, [r7, #8]
  return(result);
 800747a:	68bb      	ldr	r3, [r7, #8]
  {
    ATOMIC_CLEAR_BIT(huart->Instance->CR1, USART_CR1_IDLEIE);
 800747c:	62fb      	str	r3, [r7, #44]	@ 0x2c
 800747e:	2301      	movs	r3, #1
 8007480:	60fb      	str	r3, [r7, #12]
  __ASM volatile ("MSR primask, %0" : : "r" (priMask) : "memory");
 8007482:	68fb      	ldr	r3, [r7, #12]
 8007484:	f383 8810 	msr	PRIMASK, r3
}
 8007488:	46c0      	nop			@ (mov r8, r8)
 800748a:	687b      	ldr	r3, [r7, #4]
 800748c:	681b      	ldr	r3, [r3, #0]
 800748e:	681a      	ldr	r2, [r3, #0]
 8007490:	687b      	ldr	r3, [r7, #4]
 8007492:	681b      	ldr	r3, [r3, #0]
 8007494:	2110      	movs	r1, #16
 8007496:	438a      	bics	r2, r1
 8007498:	601a      	str	r2, [r3, #0]
 800749a:	6afb      	ldr	r3, [r7, #44]	@ 0x2c
 800749c:	613b      	str	r3, [r7, #16]
  __ASM volatile ("MSR primask, %0" : : "r" (priMask) : "memory");
 800749e:	693b      	ldr	r3, [r7, #16]
 80074a0:	f383 8810 	msr	PRIMASK, r3
}
 80074a4:	46c0      	nop			@ (mov r8, r8)
  }

  /* At end of Rx process, restore huart->RxState to Ready */
  huart->RxState = HAL_UART_STATE_READY;
 80074a6:	687b      	ldr	r3, [r7, #4]
 80074a8:	228c      	movs	r2, #140	@ 0x8c
 80074aa:	2120      	movs	r1, #32
 80074ac:	5099      	str	r1, [r3, r2]
  huart->ReceptionType = HAL_UART_RECEPTION_STANDARD;
 80074ae:	687b      	ldr	r3, [r7, #4]
 80074b0:	2200      	movs	r2, #0
 80074b2:	66da      	str	r2, [r3, #108]	@ 0x6c

  /* Reset RxIsr function pointer */
  huart->RxISR = NULL;
 80074b4:	687b      	ldr	r3, [r7, #4]
 80074b6:	2200      	movs	r2, #0
 80074b8:	675a      	str	r2, [r3, #116]	@ 0x74
}
 80074ba:	46c0      	nop			@ (mov r8, r8)
 80074bc:	46bd      	mov	sp, r7
 80074be:	b00e      	add	sp, #56	@ 0x38
 80074c0:	bd80      	pop	{r7, pc}
 80074c2:	46c0      	nop			@ (mov r8, r8)
 80074c4:	fffffedf 	.word	0xfffffedf
 80074c8:	effffffe 	.word	0xeffffffe

080074cc <HAL_UARTEx_DisableFifoMode>:
  * @brief  Disable the FIFO mode.
  * @param huart      UART handle.
  * @retval HAL status
  */
HAL_StatusTypeDef HAL_UARTEx_DisableFifoMode(UART_HandleTypeDef *huart)
{
 80074cc:	b580      	push	{r7, lr}
 80074ce:	b084      	sub	sp, #16
 80074d0:	af00      	add	r7, sp, #0
 80074d2:	6078      	str	r0, [r7, #4]

  /* Check parameters */
  assert_param(IS_UART_FIFO_INSTANCE(huart->Instance));

  /* Process Locked */
  __HAL_LOCK(huart);
 80074d4:	687b      	ldr	r3, [r7, #4]
 80074d6:	2284      	movs	r2, #132	@ 0x84
 80074d8:	5c9b      	ldrb	r3, [r3, r2]
 80074da:	2b01      	cmp	r3, #1
 80074dc:	d101      	bne.n	80074e2 <HAL_UARTEx_DisableFifoMode+0x16>
 80074de:	2302      	movs	r3, #2
 80074e0:	e027      	b.n	8007532 <HAL_UARTEx_DisableFifoMode+0x66>
 80074e2:	687b      	ldr	r3, [r7, #4]
 80074e4:	2284      	movs	r2, #132	@ 0x84
 80074e6:	2101      	movs	r1, #1
 80074e8:	5499      	strb	r1, [r3, r2]

  huart->gState = HAL_UART_STATE_BUSY;
 80074ea:	687b      	ldr	r3, [r7, #4]
 80074ec:	2288      	movs	r2, #136	@ 0x88
 80074ee:	2124      	movs	r1, #36	@ 0x24
 80074f0:	5099      	str	r1, [r3, r2]

  /* Save actual UART configuration */
  tmpcr1 = READ_REG(huart->Instance->CR1);
 80074f2:	687b      	ldr	r3, [r7, #4]
 80074f4:	681b      	ldr	r3, [r3, #0]
 80074f6:	681b      	ldr	r3, [r3, #0]
 80074f8:	60fb      	str	r3, [r7, #12]

  /* Disable UART */
  __HAL_UART_DISABLE(huart);
 80074fa:	687b      	ldr	r3, [r7, #4]
 80074fc:	681b      	ldr	r3, [r3, #0]
 80074fe:	681a      	ldr	r2, [r3, #0]
 8007500:	687b      	ldr	r3, [r7, #4]
 8007502:	681b      	ldr	r3, [r3, #0]
 8007504:	2101      	movs	r1, #1
 8007506:	438a      	bics	r2, r1
 8007508:	601a      	str	r2, [r3, #0]

  /* Enable FIFO mode */
  CLEAR_BIT(tmpcr1, USART_CR1_FIFOEN);
 800750a:	68fb      	ldr	r3, [r7, #12]
 800750c:	4a0b      	ldr	r2, [pc, #44]	@ (800753c <HAL_UARTEx_DisableFifoMode+0x70>)
 800750e:	4013      	ands	r3, r2
 8007510:	60fb      	str	r3, [r7, #12]
  huart->FifoMode = UART_FIFOMODE_DISABLE;
 8007512:	687b      	ldr	r3, [r7, #4]
 8007514:	2200      	movs	r2, #0
 8007516:	665a      	str	r2, [r3, #100]	@ 0x64

  /* Restore UART configuration */
  WRITE_REG(huart->Instance->CR1, tmpcr1);
 8007518:	687b      	ldr	r3, [r7, #4]
 800751a:	681b      	ldr	r3, [r3, #0]
 800751c:	68fa      	ldr	r2, [r7, #12]
 800751e:	601a      	str	r2, [r3, #0]

  huart->gState = HAL_UART_STATE_READY;
 8007520:	687b      	ldr	r3, [r7, #4]
 8007522:	2288      	movs	r2, #136	@ 0x88
 8007524:	2120      	movs	r1, #32
 8007526:	5099      	str	r1, [r3, r2]

  /* Process Unlocked */
  __HAL_UNLOCK(huart);
 8007528:	687b      	ldr	r3, [r7, #4]
 800752a:	2284      	movs	r2, #132	@ 0x84
 800752c:	2100      	movs	r1, #0
 800752e:	5499      	strb	r1, [r3, r2]

  return HAL_OK;
 8007530:	2300      	movs	r3, #0
}
 8007532:	0018      	movs	r0, r3
 8007534:	46bd      	mov	sp, r7
 8007536:	b004      	add	sp, #16
 8007538:	bd80      	pop	{r7, pc}
 800753a:	46c0      	nop			@ (mov r8, r8)
 800753c:	dfffffff 	.word	0xdfffffff

08007540 <HAL_UARTEx_SetTxFifoThreshold>:
  *            @arg @ref UART_TXFIFO_THRESHOLD_7_8
  *            @arg @ref UART_TXFIFO_THRESHOLD_8_8
  * @retval HAL status
  */
HAL_StatusTypeDef HAL_UARTEx_SetTxFifoThreshold(UART_HandleTypeDef *huart, uint32_t Threshold)
{
 8007540:	b580      	push	{r7, lr}
 8007542:	b084      	sub	sp, #16
 8007544:	af00      	add	r7, sp, #0
 8007546:	6078      	str	r0, [r7, #4]
 8007548:	6039      	str	r1, [r7, #0]
  /* Check parameters */
  assert_param(IS_UART_FIFO_INSTANCE(huart->Instance));
  assert_param(IS_UART_TXFIFO_THRESHOLD(Threshold));

  /* Process Locked */
  __HAL_LOCK(huart);
 800754a:	687b      	ldr	r3, [r7, #4]
 800754c:	2284      	movs	r2, #132	@ 0x84
 800754e:	5c9b      	ldrb	r3, [r3, r2]
 8007550:	2b01      	cmp	r3, #1
 8007552:	d101      	bne.n	8007558 <HAL_UARTEx_SetTxFifoThreshold+0x18>
 8007554:	2302      	movs	r3, #2
 8007556:	e02e      	b.n	80075b6 <HAL_UARTEx_SetTxFifoThreshold+0x76>
 8007558:	687b      	ldr	r3, [r7, #4]
 800755a:	2284      	movs	r2, #132	@ 0x84
 800755c:	2101      	movs	r1, #1
 800755e:	5499      	strb	r1, [r3, r2]

  huart->gState = HAL_UART_STATE_BUSY;
 8007560:	687b      	ldr	r3, [r7, #4]
 8007562:	2288      	movs	r2, #136	@ 0x88
 8007564:	2124      	movs	r1, #36	@ 0x24
 8007566:	5099      	str	r1, [r3, r2]

  /* Save actual UART configuration */
  tmpcr1 = READ_REG(huart->Instance->CR1);
 8007568:	687b      	ldr	r3, [r7, #4]
 800756a:	681b      	ldr	r3, [r3, #0]
 800756c:	681b      	ldr	r3, [r3, #0]
 800756e:	60fb      	str	r3, [r7, #12]

  /* Disable UART */
  __HAL_UART_DISABLE(huart);
 8007570:	687b      	ldr	r3, [r7, #4]
 8007572:	681b      	ldr	r3, [r3, #0]
 8007574:	681a      	ldr	r2, [r3, #0]
 8007576:	687b      	ldr	r3, [r7, #4]
 8007578:	681b      	ldr	r3, [r3, #0]
 800757a:	2101      	movs	r1, #1
 800757c:	438a      	bics	r2, r1
 800757e:	601a      	str	r2, [r3, #0]

  /* Update TX threshold configuration */
  MODIFY_REG(huart->Instance->CR3, USART_CR3_TXFTCFG, Threshold);
 8007580:	687b      	ldr	r3, [r7, #4]
 8007582:	681b      	ldr	r3, [r3, #0]
 8007584:	689b      	ldr	r3, [r3, #8]
 8007586:	00db      	lsls	r3, r3, #3
 8007588:	08d9      	lsrs	r1, r3, #3
 800758a:	687b      	ldr	r3, [r7, #4]
 800758c:	681b      	ldr	r3, [r3, #0]
 800758e:	683a      	ldr	r2, [r7, #0]
 8007590:	430a      	orrs	r2, r1
 8007592:	609a      	str	r2, [r3, #8]

  /* Determine the number of data to process during RX/TX ISR execution */
  UARTEx_SetNbDataToProcess(huart);
 8007594:	687b      	ldr	r3, [r7, #4]
 8007596:	0018      	movs	r0, r3
 8007598:	f000 f854 	bl	8007644 <UARTEx_SetNbDataToProcess>

  /* Restore UART configuration */
  WRITE_REG(huart->Instance->CR1, tmpcr1);
 800759c:	687b      	ldr	r3, [r7, #4]
 800759e:	681b      	ldr	r3, [r3, #0]
 80075a0:	68fa      	ldr	r2, [r7, #12]
 80075a2:	601a      	str	r2, [r3, #0]

  huart->gState = HAL_UART_STATE_READY;
 80075a4:	687b      	ldr	r3, [r7, #4]
 80075a6:	2288      	movs	r2, #136	@ 0x88
 80075a8:	2120      	movs	r1, #32
 80075aa:	5099      	str	r1, [r3, r2]

  /* Process Unlocked */
  __HAL_UNLOCK(huart);
 80075ac:	687b      	ldr	r3, [r7, #4]
 80075ae:	2284      	movs	r2, #132	@ 0x84
 80075b0:	2100      	movs	r1, #0
 80075b2:	5499      	strb	r1, [r3, r2]

  return HAL_OK;
 80075b4:	2300      	movs	r3, #0
}
 80075b6:	0018      	movs	r0, r3
 80075b8:	46bd      	mov	sp, r7
 80075ba:	b004      	add	sp, #16
 80075bc:	bd80      	pop	{r7, pc}
	...

080075c0 <HAL_UARTEx_SetRxFifoThreshold>:
  *            @arg @ref UART_RXFIFO_THRESHOLD_7_8
  *            @arg @ref UART_RXFIFO_THRESHOLD_8_8
  * @retval HAL status
  */
HAL_StatusTypeDef HAL_UARTEx_SetRxFifoThreshold(UART_HandleTypeDef *huart, uint32_t Threshold)
{
 80075c0:	b580      	push	{r7, lr}
 80075c2:	b084      	sub	sp, #16
 80075c4:	af00      	add	r7, sp, #0
 80075c6:	6078      	str	r0, [r7, #4]
 80075c8:	6039      	str	r1, [r7, #0]
  /* Check the parameters */
  assert_param(IS_UART_FIFO_INSTANCE(huart->Instance));
  assert_param(IS_UART_RXFIFO_THRESHOLD(Threshold));

  /* Process Locked */
  __HAL_LOCK(huart);
 80075ca:	687b      	ldr	r3, [r7, #4]
 80075cc:	2284      	movs	r2, #132	@ 0x84
 80075ce:	5c9b      	ldrb	r3, [r3, r2]
 80075d0:	2b01      	cmp	r3, #1
 80075d2:	d101      	bne.n	80075d8 <HAL_UARTEx_SetRxFifoThreshold+0x18>
 80075d4:	2302      	movs	r3, #2
 80075d6:	e02f      	b.n	8007638 <HAL_UARTEx_SetRxFifoThreshold+0x78>
 80075d8:	687b      	ldr	r3, [r7, #4]
 80075da:	2284      	movs	r2, #132	@ 0x84
 80075dc:	2101      	movs	r1, #1
 80075de:	5499      	strb	r1, [r3, r2]

  huart->gState = HAL_UART_STATE_BUSY;
 80075e0:	687b      	ldr	r3, [r7, #4]
 80075e2:	2288      	movs	r2, #136	@ 0x88
 80075e4:	2124      	movs	r1, #36	@ 0x24
 80075e6:	5099      	str	r1, [r3, r2]

  /* Save actual UART configuration */
  tmpcr1 = READ_REG(huart->Instance->CR1);
 80075e8:	687b      	ldr	r3, [r7, #4]
 80075ea:	681b      	ldr	r3, [r3, #0]
 80075ec:	681b      	ldr	r3, [r3, #0]
 80075ee:	60fb      	str	r3, [r7, #12]

  /* Disable UART */
  __HAL_UART_DISABLE(huart);
 80075f0:	687b      	ldr	r3, [r7, #4]
 80075f2:	681b      	ldr	r3, [r3, #0]
 80075f4:	681a      	ldr	r2, [r3, #0]
 80075f6:	687b      	ldr	r3, [r7, #4]
 80075f8:	681b      	ldr	r3, [r3, #0]
 80075fa:	2101      	movs	r1, #1
 80075fc:	438a      	bics	r2, r1
 80075fe:	601a      	str	r2, [r3, #0]

  /* Update RX threshold configuration */
  MODIFY_REG(huart->Instance->CR3, USART_CR3_RXFTCFG, Threshold);
 8007600:	687b      	ldr	r3, [r7, #4]
 8007602:	681b      	ldr	r3, [r3, #0]
 8007604:	689b      	ldr	r3, [r3, #8]
 8007606:	4a0e      	ldr	r2, [pc, #56]	@ (8007640 <HAL_UARTEx_SetRxFifoThreshold+0x80>)
 8007608:	4013      	ands	r3, r2
 800760a:	0019      	movs	r1, r3
 800760c:	687b      	ldr	r3, [r7, #4]
 800760e:	681b      	ldr	r3, [r3, #0]
 8007610:	683a      	ldr	r2, [r7, #0]
 8007612:	430a      	orrs	r2, r1
 8007614:	609a      	str	r2, [r3, #8]

  /* Determine the number of data to process during RX/TX ISR execution */
  UARTEx_SetNbDataToProcess(huart);
 8007616:	687b      	ldr	r3, [r7, #4]
 8007618:	0018      	movs	r0, r3
 800761a:	f000 f813 	bl	8007644 <UARTEx_SetNbDataToProcess>

  /* Restore UART configuration */
  WRITE_REG(huart->Instance->CR1, tmpcr1);
 800761e:	687b      	ldr	r3, [r7, #4]
 8007620:	681b      	ldr	r3, [r3, #0]
 8007622:	68fa      	ldr	r2, [r7, #12]
 8007624:	601a      	str	r2, [r3, #0]

  huart->gState = HAL_UART_STATE_READY;
 8007626:	687b      	ldr	r3, [r7, #4]
 8007628:	2288      	movs	r2, #136	@ 0x88
 800762a:	2120      	movs	r1, #32
 800762c:	5099      	str	r1, [r3, r2]

  /* Process Unlocked */
  __HAL_UNLOCK(huart);
 800762e:	687b      	ldr	r3, [r7, #4]
 8007630:	2284      	movs	r2, #132	@ 0x84
 8007632:	2100      	movs	r1, #0
 8007634:	5499      	strb	r1, [r3, r2]

  return HAL_OK;
 8007636:	2300      	movs	r3, #0
}
 8007638:	0018      	movs	r0, r3
 800763a:	46bd      	mov	sp, r7
 800763c:	b004      	add	sp, #16
 800763e:	bd80      	pop	{r7, pc}
 8007640:	f1ffffff 	.word	0xf1ffffff

08007644 <UARTEx_SetNbDataToProcess>:
  *       the UART configuration registers.
  * @param huart UART handle.
  * @retval None
  */
static void UARTEx_SetNbDataToProcess(UART_HandleTypeDef *huart)
{
 8007644:	b5f0      	push	{r4, r5, r6, r7, lr}
 8007646:	b085      	sub	sp, #20
 8007648:	af00      	add	r7, sp, #0
 800764a:	6078      	str	r0, [r7, #4]
  uint8_t rx_fifo_threshold;
  uint8_t tx_fifo_threshold;
  static const uint8_t numerator[] = {1U, 1U, 1U, 3U, 7U, 1U, 0U, 0U};
  static const uint8_t denominator[] = {8U, 4U, 2U, 4U, 8U, 1U, 1U, 1U};

  if (huart->FifoMode == UART_FIFOMODE_DISABLE)
 800764c:	687b      	ldr	r3, [r7, #4]
 800764e:	6e5b      	ldr	r3, [r3, #100]	@ 0x64
 8007650:	2b00      	cmp	r3, #0
 8007652:	d108      	bne.n	8007666 <UARTEx_SetNbDataToProcess+0x22>
  {
    huart->NbTxDataToProcess = 1U;
 8007654:	687b      	ldr	r3, [r7, #4]
 8007656:	226a      	movs	r2, #106	@ 0x6a
 8007658:	2101      	movs	r1, #1
 800765a:	5299      	strh	r1, [r3, r2]
    huart->NbRxDataToProcess = 1U;
 800765c:	687b      	ldr	r3, [r7, #4]
 800765e:	2268      	movs	r2, #104	@ 0x68
 8007660:	2101      	movs	r1, #1
 8007662:	5299      	strh	r1, [r3, r2]
    huart->NbTxDataToProcess = ((uint16_t)tx_fifo_depth * numerator[tx_fifo_threshold]) /
                               (uint16_t)denominator[tx_fifo_threshold];
    huart->NbRxDataToProcess = ((uint16_t)rx_fifo_depth * numerator[rx_fifo_threshold]) /
                               (uint16_t)denominator[rx_fifo_threshold];
  }
}
 8007664:	e043      	b.n	80076ee <UARTEx_SetNbDataToProcess+0xaa>
    rx_fifo_depth = RX_FIFO_DEPTH;
 8007666:	260f      	movs	r6, #15
 8007668:	19bb      	adds	r3, r7, r6
 800766a:	2208      	movs	r2, #8
 800766c:	701a      	strb	r2, [r3, #0]
    tx_fifo_depth = TX_FIFO_DEPTH;
 800766e:	200e      	movs	r0, #14
 8007670:	183b      	adds	r3, r7, r0
 8007672:	2208      	movs	r2, #8
 8007674:	701a      	strb	r2, [r3, #0]
    rx_fifo_threshold = (uint8_t)(READ_BIT(huart->Instance->CR3, USART_CR3_RXFTCFG) >> USART_CR3_RXFTCFG_Pos);
 8007676:	687b      	ldr	r3, [r7, #4]
 8007678:	681b      	ldr	r3, [r3, #0]
 800767a:	689b      	ldr	r3, [r3, #8]
 800767c:	0e5b      	lsrs	r3, r3, #25
 800767e:	b2da      	uxtb	r2, r3
 8007680:	240d      	movs	r4, #13
 8007682:	193b      	adds	r3, r7, r4
 8007684:	2107      	movs	r1, #7
 8007686:	400a      	ands	r2, r1
 8007688:	701a      	strb	r2, [r3, #0]
    tx_fifo_threshold = (uint8_t)(READ_BIT(huart->Instance->CR3, USART_CR3_TXFTCFG) >> USART_CR3_TXFTCFG_Pos);
 800768a:	687b      	ldr	r3, [r7, #4]
 800768c:	681b      	ldr	r3, [r3, #0]
 800768e:	689b      	ldr	r3, [r3, #8]
 8007690:	0f5b      	lsrs	r3, r3, #29
 8007692:	b2da      	uxtb	r2, r3
 8007694:	250c      	movs	r5, #12
 8007696:	197b      	adds	r3, r7, r5
 8007698:	2107      	movs	r1, #7
 800769a:	400a      	ands	r2, r1
 800769c:	701a      	strb	r2, [r3, #0]
    huart->NbTxDataToProcess = ((uint16_t)tx_fifo_depth * numerator[tx_fifo_threshold]) /
 800769e:	183b      	adds	r3, r7, r0
 80076a0:	781b      	ldrb	r3, [r3, #0]
 80076a2:	197a      	adds	r2, r7, r5
 80076a4:	7812      	ldrb	r2, [r2, #0]
 80076a6:	4914      	ldr	r1, [pc, #80]	@ (80076f8 <UARTEx_SetNbDataToProcess+0xb4>)
 80076a8:	5c8a      	ldrb	r2, [r1, r2]
 80076aa:	435a      	muls	r2, r3
 80076ac:	0010      	movs	r0, r2
                               (uint16_t)denominator[tx_fifo_threshold];
 80076ae:	197b      	adds	r3, r7, r5
 80076b0:	781b      	ldrb	r3, [r3, #0]
 80076b2:	4a12      	ldr	r2, [pc, #72]	@ (80076fc <UARTEx_SetNbDataToProcess+0xb8>)
 80076b4:	5cd3      	ldrb	r3, [r2, r3]
    huart->NbTxDataToProcess = ((uint16_t)tx_fifo_depth * numerator[tx_fifo_threshold]) /
 80076b6:	0019      	movs	r1, r3
 80076b8:	f7f8 fdae 	bl	8000218 <__divsi3>
 80076bc:	0003      	movs	r3, r0
 80076be:	b299      	uxth	r1, r3
 80076c0:	687b      	ldr	r3, [r7, #4]
 80076c2:	226a      	movs	r2, #106	@ 0x6a
 80076c4:	5299      	strh	r1, [r3, r2]
    huart->NbRxDataToProcess = ((uint16_t)rx_fifo_depth * numerator[rx_fifo_threshold]) /
 80076c6:	19bb      	adds	r3, r7, r6
 80076c8:	781b      	ldrb	r3, [r3, #0]
 80076ca:	193a      	adds	r2, r7, r4
 80076cc:	7812      	ldrb	r2, [r2, #0]
 80076ce:	490a      	ldr	r1, [pc, #40]	@ (80076f8 <UARTEx_SetNbDataToProcess+0xb4>)
 80076d0:	5c8a      	ldrb	r2, [r1, r2]
 80076d2:	435a      	muls	r2, r3
 80076d4:	0010      	movs	r0, r2
                               (uint16_t)denominator[rx_fifo_threshold];
 80076d6:	193b      	adds	r3, r7, r4
 80076d8:	781b      	ldrb	r3, [r3, #0]
 80076da:	4a08      	ldr	r2, [pc, #32]	@ (80076fc <UARTEx_SetNbDataToProcess+0xb8>)
 80076dc:	5cd3      	ldrb	r3, [r2, r3]
    huart->NbRxDataToProcess = ((uint16_t)rx_fifo_depth * numerator[rx_fifo_threshold]) /
 80076de:	0019      	movs	r1, r3
 80076e0:	f7f8 fd9a 	bl	8000218 <__divsi3>
 80076e4:	0003      	movs	r3, r0
 80076e6:	b299      	uxth	r1, r3
 80076e8:	687b      	ldr	r3, [r7, #4]
 80076ea:	2268      	movs	r2, #104	@ 0x68
 80076ec:	5299      	strh	r1, [r3, r2]
}
 80076ee:	46c0      	nop			@ (mov r8, r8)
 80076f0:	46bd      	mov	sp, r7
 80076f2:	b005      	add	sp, #20
 80076f4:	bdf0      	pop	{r4, r5, r6, r7, pc}
 80076f6:	46c0      	nop			@ (mov r8, r8)
 80076f8:	080078a4 	.word	0x080078a4
 80076fc:	080078ac 	.word	0x080078ac

08007700 <memset>:
 8007700:	0003      	movs	r3, r0
 8007702:	1882      	adds	r2, r0, r2
 8007704:	4293      	cmp	r3, r2
 8007706:	d100      	bne.n	800770a <memset+0xa>
 8007708:	4770      	bx	lr
 800770a:	7019      	strb	r1, [r3, #0]
 800770c:	3301      	adds	r3, #1
 800770e:	e7f9      	b.n	8007704 <memset+0x4>

08007710 <__libc_init_array>:
 8007710:	b570      	push	{r4, r5, r6, lr}
 8007712:	2600      	movs	r6, #0
 8007714:	4c0c      	ldr	r4, [pc, #48]	@ (8007748 <__libc_init_array+0x38>)
 8007716:	4d0d      	ldr	r5, [pc, #52]	@ (800774c <__libc_init_array+0x3c>)
 8007718:	1b64      	subs	r4, r4, r5
 800771a:	10a4      	asrs	r4, r4, #2
 800771c:	42a6      	cmp	r6, r4
 800771e:	d109      	bne.n	8007734 <__libc_init_array+0x24>
 8007720:	2600      	movs	r6, #0
 8007722:	f000 f819 	bl	8007758 <_init>
 8007726:	4c0a      	ldr	r4, [pc, #40]	@ (8007750 <__libc_init_array+0x40>)
 8007728:	4d0a      	ldr	r5, [pc, #40]	@ (8007754 <__libc_init_array+0x44>)
 800772a:	1b64      	subs	r4, r4, r5
 800772c:	10a4      	asrs	r4, r4, #2
 800772e:	42a6      	cmp	r6, r4
 8007730:	d105      	bne.n	800773e <__libc_init_array+0x2e>
 8007732:	bd70      	pop	{r4, r5, r6, pc}
 8007734:	00b3      	lsls	r3, r6, #2
 8007736:	58eb      	ldr	r3, [r5, r3]
 8007738:	4798      	blx	r3
 800773a:	3601      	adds	r6, #1
 800773c:	e7ee      	b.n	800771c <__libc_init_array+0xc>
 800773e:	00b3      	lsls	r3, r6, #2
 8007740:	58eb      	ldr	r3, [r5, r3]
 8007742:	4798      	blx	r3
 8007744:	3601      	adds	r6, #1
 8007746:	e7f2      	b.n	800772e <__libc_init_array+0x1e>
 8007748:	080078bc 	.word	0x080078bc
 800774c:	080078bc 	.word	0x080078bc
 8007750:	080078c0 	.word	0x080078c0
 8007754:	080078bc 	.word	0x080078bc

08007758 <_init>:
 8007758:	b5f8      	push	{r3, r4, r5, r6, r7, lr}
 800775a:	46c0      	nop			@ (mov r8, r8)
 800775c:	bcf8      	pop	{r3, r4, r5, r6, r7}
 800775e:	bc08      	pop	{r3}
 8007760:	469e      	mov	lr, r3
 8007762:	4770      	bx	lr

08007764 <_fini>:
 8007764:	b5f8      	push	{r3, r4, r5, r6, r7, lr}
 8007766:	46c0      	nop			@ (mov r8, r8)
 8007768:	bcf8      	pop	{r3, r4, r5, r6, r7}
 800776a:	bc08      	pop	{r3}
 800776c:	469e      	mov	lr, r3
 800776e:	4770      	bx	lr
